
out/exynos4412/tsee.elf:     file format elf32-littlearm
out/exynos4412/tsee.elf
architecture: arm, flags 0x00000112:
EXEC_P, HAS_SYMS, D_PAGED
start address 0x50000000

Program Header:
0x70000001 off    0x00011530 vaddr 0x50009530 paddr 0x50009530 align 2**2
         filesz 0x00000008 memsz 0x00000008 flags r--
    LOAD off    0x00008000 vaddr 0x50000000 paddr 0x50000000 align 2**15
         filesz 0x0000c118 memsz 0x00014000 flags rwx
    LOAD off    0x0001c000 vaddr 0x50014000 paddr 0x50014000 align 2**15
         filesz 0x00020000 memsz 0x00020000 flags rw-
    LOAD off    0x00040000 vaddr 0x50100000 paddr 0x50100000 align 2**15
         filesz 0x00fae138 memsz 0x00fae138 flags r--
private flags = 5000002: [Version5 EABI] [has entry point]

Sections:
Idx Name          Size      VMA       LMA       File off  Algn
  0 .text         0000952c  50000000  50000000  00008000  2**5
                  CONTENTS, ALLOC, LOAD, READONLY, CODE
  1 .ARM.exidx    00000008  50009530  50009530  00011530  2**2
                  CONTENTS, ALLOC, LOAD, READONLY, DATA
  2 .rodata       0000104c  50009538  50009538  00011538  2**2
                  CONTENTS, ALLOC, LOAD, READONLY, DATA
  3 .data         00001b94  5000a584  5000a584  00012584  2**2
                  CONTENTS, ALLOC, LOAD, DATA
  4 .bss          00007ee8  5000c118  5000c118  00014118  2**2
                  ALLOC
  5 .tsee_rtks.phymap 00020000  50014000  50014000  0001c000  2**2
                  CONTENTS, ALLOC, LOAD, DATA
  6 tee_img       00fae138  50100000  50100000  00040000  2**0
                  CONTENTS, ALLOC, LOAD, READONLY, DATA
  7 .ARM.attributes 00000033  00000000  00000000  00fee138  2**0
                  CONTENTS, READONLY
  8 .debug_abbrev 00000f71  00000000  00000000  00fee16b  2**0
                  CONTENTS, READONLY, DEBUGGING
  9 .debug_info   000035ec  00000000  00000000  00fef0dc  2**0
                  CONTENTS, READONLY, DEBUGGING
 10 .debug_line   00001af1  00000000  00000000  00ff26c8  2**0
                  CONTENTS, READONLY, DEBUGGING
 11 .debug_loc    00001e6a  00000000  00000000  00ff41b9  2**0
                  CONTENTS, READONLY, DEBUGGING
 12 .debug_pubnames 00000453  00000000  00000000  00ff6023  2**0
                  CONTENTS, READONLY, DEBUGGING
 13 .debug_pubtypes 000003ac  00000000  00000000  00ff6476  2**0
                  CONTENTS, READONLY, DEBUGGING
 14 .debug_aranges 00000448  00000000  00000000  00ff6828  2**3
                  CONTENTS, READONLY, DEBUGGING
 15 .debug_ranges 000003f8  00000000  00000000  00ff6c70  2**3
                  CONTENTS, READONLY, DEBUGGING
 16 .debug_str    00000c0b  00000000  00000000  00ff7068  2**0
                  CONTENTS, READONLY, DEBUGGING
 17 .debug_frame  000007c4  00000000  00000000  00ff7c74  2**2
                  CONTENTS, READONLY, DEBUGGING
SYMBOL TABLE:
50000000 l    d  .text	00000000 .text
50009530 l    d  .ARM.exidx	00000000 .ARM.exidx
50009538 l    d  .rodata	00000000 .rodata
5000a584 l    d  .data	00000000 .data
5000c118 l    d  .bss	00000000 .bss
50014000 l    d  .tsee_rtks.phymap	00000000 .tsee_rtks.phymap
50100000 l    d  tee_img	00000000 tee_img
00000000 l    d  .ARM.attributes	00000000 .ARM.attributes
00000000 l    d  .debug_abbrev	00000000 .debug_abbrev
00000000 l    d  .debug_info	00000000 .debug_info
00000000 l    d  .debug_line	00000000 .debug_line
00000000 l    d  .debug_loc	00000000 .debug_loc
00000000 l    d  .debug_pubnames	00000000 .debug_pubnames
00000000 l    d  .debug_pubtypes	00000000 .debug_pubtypes
00000000 l    d  .debug_aranges	00000000 .debug_aranges
00000000 l    d  .debug_ranges	00000000 .debug_ranges
00000000 l    d  .debug_str	00000000 .debug_str
00000000 l    d  .debug_frame	00000000 .debug_frame
50000020 l     F .text	00000058 reset
50000078 l     F .text	0000002c reset_secondary
50000078 l       .text	00000000 boot_secondary
500001c4 l       .text	00000000 finished
5000015c l       .text	00000000 loop1
500001b8 l       .text	00000000 skip
50000198 l       .text	00000000 loop2
5000019c l       .text	00000000 loop3
50002020 l       .text	00000000 trap_iabort
5000204c l       .text	00000000 trap_dabort
50001020 l       .text	00000000 monitor_smc
500014b8 l       .text	00000000 tsee_sm_proxy
50001050 l       .text	00000000 tsee_sm_from_ns_entry
50001298 l       .text	00000000 tsee_sm_from_s_entry
00000000 l    df *ABS*	00000000 tsee_sm.c
50004ee0 l     F .text	0000002c tee_phys_to_virt
50004f0c l     F .text	00000054 set_jump_addr
5000c17c l     O .bss	00000004 is_lock_down
5000c180 l     O .bss	00000004 is_init
50009d8c l       .rodata	00000000 .LC0
50009dbc l       .rodata	00000000 .LC1
50009dfc l       .rodata	00000000 .LC2
50009f64 l     O .rodata	00000011 __func__.956
50009e1c l       .rodata	00000000 .LC3
50009e34 l       .rodata	00000000 .LC4
50009e4c l       .rodata	00000000 .LC5
50009e60 l       .rodata	00000000 .LC6
50009e78 l       .rodata	00000000 .LC7
50009e8c l       .rodata	00000000 .LC8
50009ea4 l       .rodata	00000000 .LC9
50009ecc l       .rodata	00000000 .LC10
50009f54 l     O .rodata	0000000d __func__.972
50009ef0 l       .rodata	00000000 .LC11
50009f20 l       .rodata	00000000 .LC12
50009f44 l     O .rodata	0000000f __func__.979
00000000 l    df *ABS*	00000000 setup.c
50009538 l       .rodata	00000000 .LC0
00000000 l    df *ABS*	00000000 exynos4412_uart.c
50009548 l       .rodata	00000000 .LC0
50009558 l     O .rodata	00000009 __func__.901
00000000 l    df *ABS*	00000000 trace_ext.c
00000000 l    df *ABS*	00000000 start.c
50009578 l       .rodata	00000000 .LC0
50009594 l       .rodata	00000000 .LC1
50009610 l     O .rodata	00000010 __func__.1014
500095b0 l       .rodata	00000000 .LC2
500095d8 l       .rodata	00000000 .LC3
500095f0 l       .rodata	00000000 .LC4
50009608 l     O .rodata	00000006 __func__.1021
00000000 l    df *ABS*	00000000 dispatch.c
50002940 l     F .text	0000004c is_tsee_range
5000298c l     F .text	0000008c is_tee_range
50002a18 l     F .text	0000005c is_l2pgtbl_range
50002a74 l     F .text	0000008c is_kpt_range
50002b00 l     F .text	0000005c is_reeshr_range
50002b5c l     F .text	0000006c is_kpgtbl_range
50002bc8 l     F .text	0000008c is_kdata_range
50002c54 l     F .text	0000005c is_krodata_range
50002cb0 l     F .text	0000008c is_ktext_range
50002d3c l     F .text	00000044 is_devmem_range
50002d80 l     F .text	0000004c is_dram0_ranges
50002dcc l     F .text	00000048 is_dram1_ranges
50002e14 l     F .text	00000048 is_devmem_ranges
50002e5c l     F .text	00000138 get_phymap_index
50002f94 l     F .text	000000b0 tsee_mempg_protect
50003044 l     F .text	000000b4 tsee_mempg_unprotect
500030f8 l     F .text	000000b8 tsee_is_mempg_protected
50009620 l       .rodata	00000000 .LC0
5000964c l       .rodata	00000000 .LC1
50009678 l       .rodata	00000000 .LC2
50009690 l       .rodata	00000000 .LC3
500096c8 l       .rodata	00000000 .LC4
500096f8 l       .rodata	00000000 .LC5
50009710 l       .rodata	00000000 .LC6
50009748 l       .rodata	00000000 .LC7
50009d7c l     O .rodata	0000000d __func__.1067
5000978c l       .rodata	00000000 .LC8
500097d4 l       .rodata	00000000 .LC9
500097f0 l       .rodata	00000000 .LC10
50009808 l       .rodata	00000000 .LC11
5000981c l       .rodata	00000000 .LC12
50009840 l       .rodata	00000000 .LC13
50009864 l       .rodata	00000000 .LC14
50009894 l       .rodata	00000000 .LC15
500098b4 l       .rodata	00000000 .LC16
500098d8 l       .rodata	00000000 .LC17
50009900 l       .rodata	00000000 .LC18
50009928 l       .rodata	00000000 .LC19
5000995c l       .rodata	00000000 .LC20
50009980 l       .rodata	00000000 .LC21
500099a4 l       .rodata	00000000 .LC22
500099b8 l       .rodata	00000000 .LC23
500099d0 l       .rodata	00000000 .LC24
500099f4 l       .rodata	00000000 .LC25
50009a0c l       .rodata	00000000 .LC26
50009a20 l       .rodata	00000000 .LC27
50009a40 l       .rodata	00000000 .LC28
50009a58 l       .rodata	00000000 .LC29
50009a6c l       .rodata	00000000 .LC30
50009a8c l       .rodata	00000000 .LC31
50009aa4 l       .rodata	00000000 .LC32
50009ac8 l       .rodata	00000000 .LC33
50009ae0 l       .rodata	00000000 .LC34
50009b04 l       .rodata	00000000 .LC35
50009b20 l       .rodata	00000000 .LC36
50009b4c l       .rodata	00000000 .LC37
50009b60 l       .rodata	00000000 .LC38
50009b80 l       .rodata	00000000 .LC39
50009b94 l       .rodata	00000000 .LC40
50009ba8 l       .rodata	00000000 .LC41
50009bc0 l       .rodata	00000000 .LC42
50009be4 l       .rodata	00000000 .LC43
50009bf8 l       .rodata	00000000 .LC44
50009c10 l       .rodata	00000000 .LC45
50009c2c l       .rodata	00000000 .LC46
50009c44 l       .rodata	00000000 .LC47
50009c5c l       .rodata	00000000 .LC48
50009c74 l       .rodata	00000000 .LC49
50009c9c l       .rodata	00000000 .LC50
50009cc8 l       .rodata	00000000 .LC51
50009d00 l       .rodata	00000000 .LC52
50009d3c l       .rodata	00000000 .LC53
50009d70 l     O .rodata	0000000a __func__.1087
00000000 l    df *ABS*	00000000 tsee_fault.c
5000c018 l     O .data	00000080 prefetch_abt_fault_string
5000c098 l     O .data	00000080 data_abt_fault_string
5000a2d8 l       .rodata	00000000 .LC30
5000a31c l       .rodata	00000000 .LC31
5000a488 l     O .rodata	0000000f __func__.889
5000a328 l       .rodata	00000000 .LC32
5000a478 l     O .rodata	0000000f __func__.896
5000a354 l       .rodata	00000000 .LC33
5000a364 l       .rodata	00000000 .LC34
5000a374 l       .rodata	00000000 .LC35
5000a384 l       .rodata	00000000 .LC36
5000a394 l       .rodata	00000000 .LC37
5000a3a4 l       .rodata	00000000 .LC38
5000a3b4 l       .rodata	00000000 .LC39
5000a3c4 l       .rodata	00000000 .LC40
5000a3d4 l       .rodata	00000000 .LC41
5000a3e4 l       .rodata	00000000 .LC42
5000a3f4 l       .rodata	00000000 .LC43
5000a404 l       .rodata	00000000 .LC44
5000a414 l       .rodata	00000000 .LC45
5000a424 l       .rodata	00000000 .LC46
5000a434 l       .rodata	00000000 .LC47
5000a444 l       .rodata	00000000 .LC48
5000a454 l       .rodata	00000000 .LC49
5000a468 l     O .rodata	0000000f __func__.901
00000000 l    df *ABS*	00000000 memset.c
00000000 l    df *ABS*	00000000 trace.c
5000a4cc l       .rodata	00000000 .LC0
50006bfc l     F .text	00000084 trace_level_to_string
5000a524 l     O .rodata	00000014 lvl_strs.927
5000a4d0 l       .rodata	00000000 .LC1
5000a4e8 l       .rodata	00000000 .LC2
50006ef8 l     F .text	000000fc append
5000a4f8 l       .rodata	00000000 .LC3
5000a500 l       .rodata	00000000 .LC4
5000a504 l       .rodata	00000000 .LC5
5000a508 l       .rodata	00000000 .LC6
5000a518 l     O .rodata	0000000a __func__.969
00000000 l    df *ABS*	00000000 snprintf.c
5000a538 l     O .rodata	00000011 hexdigits
5000a54c l     O .rodata	00000011 HEXDIGITS
500072e8 l     F .text	00001458 kprintf
5000a560 l       .rodata	00000000 .LC0
5000a568 l       .rodata	00000000 .LC1
00000000 l    df *ABS*	00000000 memchr.c
00000000 l    df *ABS*	00000000 strlen.c
00000000 l    df *ABS*	00000000 bpabi.c
00000000 l    df *ABS*	00000000 libgcc2.c
00000000 l    df *ABS*	00000000 libgcc2.c
500093c8 l       .text	00000000 .udivsi3_skip_div0_test
00000000 l    df *ABS*	00000000 
50008aa4 g     F .text	00000040 __gnu_uldivmod_helper
50008ae8 g     F .text	000004a8 __divdi3
5000c000 g     O .data	00000004 uart_base
5000f000 g       .bss	00000000 tee_rw_stack_end
5000e000 g       .bss	00000000 mon_stktop
500071d0 g     F .text	00000058 snprintf
50009538 g       .ARM.exidx	00000000 __exidx_end
500000a4 g       .text	00000000 cpu_init
500014e4 g       .text	00000000 sm_tee_fiq_handler
500014d0 g       .text	00000000 sm_tee_smc_handler
5000a498 g     O .rodata	00000031 v_str
500014d8 g       .text	00000000 sm_tee_abort_handler
5000210c g     F .text	00000064 uart_enable_rx
500021d8 g     F .text	00000088 isr_uart
50000000 g       .text	00000000 __text_start
5000c118 g       .data	00000000 __ctor_list
5000c000 g       .data	00000000 __tsee_data_ro_end
500014cc g       .text	00000000 sm_tee_undef_handler
50000124 g       .text	00000000 flush_cache_all
50001000 g       .text	00000000 __tsee_text_ro_start
50006c80 g     F .text	00000278 trace_printf
50014000 g     O .tsee_rtks.phymap	00020000 tsee_rtks_phymap
00fae138 g       *ABS*	00000000 _binary_tee_img_size
500064c4 g     F .text	000000c8 iabort_handler
50008a28 g     F .text	00000000 __aeabi_uldivmod
5000a584 g       .rodata	00000000 __rodata_end
50002514 g     F .text	0000009c load_pgtlb
500093c8 g     F .text	000000f4 __udivsi3
50007228 g     F .text	000000c0 vsnprintf
5000c004 g     O .data	00000004 trace_level
500063d8 g     F .text	000000ec dabort_handler
50034000 g       .tsee_rtks.phymap	00000000 tsee_rtks_map_bitmap_end
5000242c g     F .text	000000e8 set_bootpgtbl
50005208 g     F .text	00000024 is_sm_lock_down
500025b0 g     F .text	000000a8 start_secondary
50009564 g     O .rodata	00000011 trace_ext_prefix
510ae138 g       *ABS*	00000000 _end_of_ram
510ae138 g       *ABS*	00000000 _binary_tee_img_end
50014000 g       .tsee_rtks.phymap	00000000 tsee_rtks_map_bitmap
50006290 g     F .text	000000a4 map_tsee
50009530 g       .ARM.exidx	00000000 __exidx_start
50014000 g       .bss	00000000 __bss_end
50008f90 g     F .text	00000438 __udivdi3
50009524 g     F .text	00000004 tsee_rtks_call
50002080 g     F .text	00000034 console_init
5000c008 g     F .data	0000000c get_core_pos
500020b4 g     F .text	00000044 console_putc
50002338 g     F .text	00000068 uart_puts
50100000 g       *ABS*	00000000 _binary_tee_img_start
50009528 g     F .text	00000004 tsee_rtks_ns_call
500060b0 g     F .text	00000024 sm_tee_deinit
50001000 g       .text	00000000 monitor_entry
500094dc g     F .text	00000048 __clzsi2
50002260 g     F .text	00000084 uart_init
50008740 g     F .text	000001fc memchr
50006334 g     F .text	000000a4 unmap_tsee
50003638 g     F .text	000018a8 tsee_main
50000000 g     F .text	00000020 _start
50009538 g       .rodata	00000000 __rodata_start
5000c118 g       .data	00000000 __dtor_end
5000c118 g       *ABS*	00000000 __data_end
500060d4 g     F .text	000001bc sm_write_mvbar
50034000 g       *ABS*	00000000 _tsee_pgtbl
50000144 g       .text	00000000 v7_flush_dcache_all
500014c8 g       .text	00000000 default_sm_handler
500014e0 g       .text	00000000 sm_tee_irq_handler
500014dc g       .text	00000000 sm_tee_reserv_handler
5000c014 g     O .data	00000004 tsee_pgtbl
50006bd8 g     F .text	00000024 trace_get_level
50008ae4  w    F .text	00000004 __aeabi_ldiv0
5000952c g       .text	00000000 __text_end
5000c118 g       .data	00000000 __ctor_end
5000c118 g     O .bss	00000064 tsee_init
5000c118 g       .bss	00000000 __bss_start
5000695c g     F .text	00000224 memset
50002000 g       .text	00000000 trap_entry
50006ff4 g     F .text	000001dc dhex_dump
500093c8 g     F .text	00000000 __aeabi_uidiv
50006b80 g     F .text	00000058 trace_set_level
50002170 g     F .text	00000068 uartgetc
500020f8 g     F .text	00000014 console_flush
5000f000 g       .bss	00000000 mon_stktop_init
500022e4 g     F .text	00000054 uartputc
50000110 g       .text	00000000 flush_tlb_all
5000c118 g       .data	00000000 __dtor_list
500094bc g     F .text	00000020 __aeabi_uidivmod
500031b0 g     F .text	00000488 tsee_ns_main
50002000 g       .text	00000000 __tsee_text_ro_end
50038000 g       *ABS*	00000000 _end
500014d4 g       .text	00000000 sm_tee_pref_handler
5000b000 g     O .data	00000018 tsee_pt
50001500 g     F .text	00000044 is_tsee_call
500023a0 g     F .text	00000070 trace_ext_puts
5000b000 g       .data	00000000 __tsee_data_ro_start
50002410 g     F .text	0000001c trace_ext_get_thread_id
500001d8 g       .text	00000000 tlb_lockdown
50002658 g     F .text	000002e8 start
50008ae4  w    F .text	00000004 __aeabi_idiv0
5000b018 g     O .data	00000018 tee_pt
5000893c g     F .text	000000ec strlen
5000e000 g       .bss	00000000 tee_rw_stack_start
500014c8 g       .text	00000000 sm_tee_reset_handler
50008a64 g     F .text	00000040 __gnu_ldivmod_helper
50004f60 g     F .text	000002a8 mem_enforce_perm
5000c000 g       .data	00000000 __data_start
50013000 g       .bss	00000000 mon_stktop_others
5000522c g     F .text	00000e84 sm_lock_down
00038000 g       *ABS*	00000000 __init_mem_usage
5000658c g     F .text	000003d0 dump_trapframe



Disassembly of section .text:

50000000 <_start>:
_start():
/home/liwenhaosuper/data/trustkernel/tsee/tsee/boot/tee/entry.S:16
50000000:	ea000006 	b	50000020 <reset>
/home/liwenhaosuper/data/trustkernel/tsee/tsee/boot/tee/entry.S:17
50000004:	eafffffe 	b	50000004 <_start+0x4>
/home/liwenhaosuper/data/trustkernel/tsee/tsee/boot/tee/entry.S:18
50000008:	eafffffe 	b	50000008 <_start+0x8>
/home/liwenhaosuper/data/trustkernel/tsee/tsee/boot/tee/entry.S:19
5000000c:	eafffffe 	b	5000000c <_start+0xc>
/home/liwenhaosuper/data/trustkernel/tsee/tsee/boot/tee/entry.S:20
50000010:	eafffffe 	b	50000010 <_start+0x10>
/home/liwenhaosuper/data/trustkernel/tsee/tsee/boot/tee/entry.S:21
50000014:	eafffffe 	b	50000014 <_start+0x14>
/home/liwenhaosuper/data/trustkernel/tsee/tsee/boot/tee/entry.S:22
50000018:	eafffffe 	b	50000018 <_start+0x18>
/home/liwenhaosuper/data/trustkernel/tsee/tsee/boot/tee/entry.S:23
5000001c:	eafffffe 	b	5000001c <_start+0x1c>

50000020 <reset>:
reset():
/home/liwenhaosuper/data/trustkernel/tsee/tsee/boot/tee/entry.S:28
50000020:	ee100fb0 	mrc	15, 0, r0, cr0, cr0, {5}
/home/liwenhaosuper/data/trustkernel/tsee/tsee/boot/tee/entry.S:29
50000024:	e2000003 	and	r0, r0, #3
/home/liwenhaosuper/data/trustkernel/tsee/tsee/boot/tee/entry.S:30
50000028:	e3500000 	cmp	r0, #0
/home/liwenhaosuper/data/trustkernel/tsee/tsee/boot/tee/entry.S:31
5000002c:	1b000011 	blne	50000078 <reset_secondary>
/home/liwenhaosuper/data/trustkernel/tsee/tsee/boot/tee/entry.S:33
50000030:	e59f11c8 	ldr	r1, [pc, #456]	; 50000200 <tlb_lockdown+0x28>
/home/liwenhaosuper/data/trustkernel/tsee/tsee/boot/tee/entry.S:34
50000034:	e59f21c8 	ldr	r2, [pc, #456]	; 50000204 <tlb_lockdown+0x2c>
/home/liwenhaosuper/data/trustkernel/tsee/tsee/boot/tee/entry.S:35
50000038:	e3a03000 	mov	r3, #0
/home/liwenhaosuper/data/trustkernel/tsee/tsee/boot/tee/entry.S:37
5000003c:	e1510002 	cmp	r1, r2
/home/liwenhaosuper/data/trustkernel/tsee/tsee/boot/tee/entry.S:38
50000040:	b8a10008 	stmialt	r1!, {r3}
/home/liwenhaosuper/data/trustkernel/tsee/tsee/boot/tee/entry.S:39
50000044:	bafffffc 	blt	5000003c <reset+0x1c>
/home/liwenhaosuper/data/trustkernel/tsee/tsee/boot/tee/entry.S:41
50000048:	e32ff0d6 	msr	CPSR_fsxc, #214	; 0xd6
/home/liwenhaosuper/data/trustkernel/tsee/tsee/boot/tee/entry.S:42
5000004c:	e59fd1b4 	ldr	sp, [pc, #436]	; 50000208 <tlb_lockdown+0x30>
/home/liwenhaosuper/data/trustkernel/tsee/tsee/boot/tee/entry.S:44
50000050:	e59f01b4 	ldr	r0, [pc, #436]	; 5000020c <tlb_lockdown+0x34>
/home/liwenhaosuper/data/trustkernel/tsee/tsee/boot/tee/entry.S:45
50000054:	e59f11b4 	ldr	r1, [pc, #436]	; 50000210 <tlb_lockdown+0x38>
/home/liwenhaosuper/data/trustkernel/tsee/tsee/boot/tee/entry.S:46
50000058:	e5801010 	str	r1, [r0, #16]
/home/liwenhaosuper/data/trustkernel/tsee/tsee/boot/tee/entry.S:48
5000005c:	e59f01b0 	ldr	r0, [pc, #432]	; 50000214 <tlb_lockdown+0x3c>
/home/liwenhaosuper/data/trustkernel/tsee/tsee/boot/tee/entry.S:49
50000060:	ee0c0f30 	mcr	15, 0, r0, cr12, cr0, {1}
/home/liwenhaosuper/data/trustkernel/tsee/tsee/boot/tee/entry.S:51
50000064:	eb00000e 	bl	500000a4 <cpu_init>
/home/liwenhaosuper/data/trustkernel/tsee/tsee/boot/tee/entry.S:52
50000068:	eb000804 	bl	50002080 <console_init>
/home/liwenhaosuper/data/trustkernel/tsee/tsee/boot/tee/entry.S:53
5000006c:	e59f01a4 	ldr	r0, [pc, #420]	; 50000218 <tlb_lockdown+0x40>
/home/liwenhaosuper/data/trustkernel/tsee/tsee/boot/tee/entry.S:54
50000070:	eb001817 	bl	500060d4 <sm_write_mvbar>
/home/liwenhaosuper/data/trustkernel/tsee/tsee/boot/tee/entry.S:55
50000074:	ea000977 	b	50002658 <start>

50000078 <reset_secondary>:
boot_secondary():
/home/liwenhaosuper/data/trustkernel/tsee/tsee/boot/tee/entry.S:62
50000078:	e59f0194 	ldr	r0, [pc, #404]	; 50000214 <tlb_lockdown+0x3c>
/home/liwenhaosuper/data/trustkernel/tsee/tsee/boot/tee/entry.S:63
5000007c:	ee0c0f30 	mcr	15, 0, r0, cr12, cr0, {1}
/home/liwenhaosuper/data/trustkernel/tsee/tsee/boot/tee/entry.S:65
50000080:	e32ff0d6 	msr	CPSR_fsxc, #214	; 0xd6
/home/liwenhaosuper/data/trustkernel/tsee/tsee/boot/tee/entry.S:66
50000084:	eb002fdf 	bl	5000c008 <get_core_pos>
/home/liwenhaosuper/data/trustkernel/tsee/tsee/boot/tee/entry.S:67
50000088:	e1a00100 	lsl	r0, r0, #2
/home/liwenhaosuper/data/trustkernel/tsee/tsee/boot/tee/entry.S:68
5000008c:	e59f1188 	ldr	r1, [pc, #392]	; 5000021c <tlb_lockdown+0x44>
/home/liwenhaosuper/data/trustkernel/tsee/tsee/boot/tee/entry.S:69
50000090:	e791d000 	ldr	sp, [r1, r0]
/home/liwenhaosuper/data/trustkernel/tsee/tsee/boot/tee/entry.S:72
50000094:	eb000002 	bl	500000a4 <cpu_init>
/home/liwenhaosuper/data/trustkernel/tsee/tsee/boot/tee/entry.S:73
50000098:	e59f0178 	ldr	r0, [pc, #376]	; 50000218 <tlb_lockdown+0x40>
/home/liwenhaosuper/data/trustkernel/tsee/tsee/boot/tee/entry.S:74
5000009c:	eb00180c 	bl	500060d4 <sm_write_mvbar>
/home/liwenhaosuper/data/trustkernel/tsee/tsee/boot/tee/entry.S:75
500000a0:	ea000942 	b	500025b0 <start_secondary>

500000a4 <cpu_init>:
cpu_init():
/home/liwenhaosuper/data/trustkernel/tsee/tsee/boot/tee/entry.S:81
500000a4:	e92d4002 	push	{r1, lr}
/home/liwenhaosuper/data/trustkernel/tsee/tsee/boot/tee/entry.S:83
500000a8:	ee111f10 	mrc	15, 0, r1, cr1, cr0, {0}
/home/liwenhaosuper/data/trustkernel/tsee/tsee/boot/tee/entry.S:84
500000ac:	e3c11001 	bic	r1, r1, #1
/home/liwenhaosuper/data/trustkernel/tsee/tsee/boot/tee/entry.S:85
500000b0:	ee011f10 	mcr	15, 0, r1, cr1, cr0, {0}
/home/liwenhaosuper/data/trustkernel/tsee/tsee/boot/tee/entry.S:88
500000b4:	ee111f10 	mrc	15, 0, r1, cr1, cr0, {0}
/home/liwenhaosuper/data/trustkernel/tsee/tsee/boot/tee/entry.S:89
500000b8:	e3c11a01 	bic	r1, r1, #4096	; 0x1000
/home/liwenhaosuper/data/trustkernel/tsee/tsee/boot/tee/entry.S:90
500000bc:	e3c11004 	bic	r1, r1, #4
/home/liwenhaosuper/data/trustkernel/tsee/tsee/boot/tee/entry.S:91
500000c0:	ee011f10 	mcr	15, 0, r1, cr1, cr0, {0}
/home/liwenhaosuper/data/trustkernel/tsee/tsee/boot/tee/entry.S:94
500000c4:	e3a01000 	mov	r1, #0
/home/liwenhaosuper/data/trustkernel/tsee/tsee/boot/tee/entry.S:95
500000c8:	ee071f15 	mcr	15, 0, r1, cr7, cr5, {0}
/home/liwenhaosuper/data/trustkernel/tsee/tsee/boot/tee/entry.S:98
500000cc:	e3a01000 	mov	r1, #0
/home/liwenhaosuper/data/trustkernel/tsee/tsee/boot/tee/entry.S:99
500000d0:	ee081f13 	mcr	15, 0, r1, cr8, cr3, {0}
/home/liwenhaosuper/data/trustkernel/tsee/tsee/boot/tee/entry.S:101
500000d4:	ee111f10 	mrc	15, 0, r1, cr1, cr0, {0}
/home/liwenhaosuper/data/trustkernel/tsee/tsee/boot/tee/entry.S:102
500000d8:	e3c11201 	bic	r1, r1, #268435456	; 0x10000000
/home/liwenhaosuper/data/trustkernel/tsee/tsee/boot/tee/entry.S:103
500000dc:	e3c11a02 	bic	r1, r1, #8192	; 0x2000
/home/liwenhaosuper/data/trustkernel/tsee/tsee/boot/tee/entry.S:104
500000e0:	e3811901 	orr	r1, r1, #16384	; 0x4000
/home/liwenhaosuper/data/trustkernel/tsee/tsee/boot/tee/entry.S:105
500000e4:	ee011f10 	mcr	15, 0, r1, cr1, cr0, {0}
/home/liwenhaosuper/data/trustkernel/tsee/tsee/boot/tee/entry.S:107
500000e8:	ee111f30 	mrc	15, 0, r1, cr1, cr0, {1}
/home/liwenhaosuper/data/trustkernel/tsee/tsee/boot/tee/entry.S:108
500000ec:	e3811040 	orr	r1, r1, #64	; 0x40
/home/liwenhaosuper/data/trustkernel/tsee/tsee/boot/tee/entry.S:109
500000f0:	e3811001 	orr	r1, r1, #1
/home/liwenhaosuper/data/trustkernel/tsee/tsee/boot/tee/entry.S:110
500000f4:	e3811004 	orr	r1, r1, #4
/home/liwenhaosuper/data/trustkernel/tsee/tsee/boot/tee/entry.S:111
500000f8:	ee011f30 	mcr	15, 0, r1, cr1, cr0, {1}
/home/liwenhaosuper/data/trustkernel/tsee/tsee/boot/tee/entry.S:113
500000fc:	e3031fff 	movw	r1, #16383	; 0x3fff
/home/liwenhaosuper/data/trustkernel/tsee/tsee/boot/tee/entry.S:114
50000100:	e3401007 	movt	r1, #7
/home/liwenhaosuper/data/trustkernel/tsee/tsee/boot/tee/entry.S:115
50000104:	ee011f51 	mcr	15, 0, r1, cr1, cr1, {2}
/home/liwenhaosuper/data/trustkernel/tsee/tsee/boot/tee/entry.S:117
50000108:	e8bd4002 	pop	{r1, lr}
/home/liwenhaosuper/data/trustkernel/tsee/tsee/boot/tee/entry.S:118
5000010c:	e12fff1e 	bx	lr

50000110 <flush_tlb_all>:
flush_tlb_all():
/home/liwenhaosuper/data/trustkernel/tsee/tsee/boot/tee/entry.S:125
50000110:	ee080f13 	mcr	15, 0, r0, cr8, cr3, {0}
/home/liwenhaosuper/data/trustkernel/tsee/tsee/boot/tee/entry.S:126
50000114:	ee070fd5 	mcr	15, 0, r0, cr7, cr5, {6}
/home/liwenhaosuper/data/trustkernel/tsee/tsee/boot/tee/entry.S:127
50000118:	f57ff04f 	dsb	sy
/home/liwenhaosuper/data/trustkernel/tsee/tsee/boot/tee/entry.S:128
5000011c:	f57ff06f 	isb	sy
/home/liwenhaosuper/data/trustkernel/tsee/tsee/boot/tee/entry.S:129
50000120:	e1a0f00e 	mov	pc, lr

50000124 <flush_cache_all>:
flush_cache_all():
/home/liwenhaosuper/data/trustkernel/tsee/tsee/boot/tee/entry.S:136
50000124:	e92d5fff 	push	{r0, r1, r2, r3, r4, r5, r6, r7, r8, r9, sl, fp, ip, lr}
/home/liwenhaosuper/data/trustkernel/tsee/tsee/boot/tee/entry.S:137
50000128:	eb000005 	bl	50000144 <v7_flush_dcache_all>
/home/liwenhaosuper/data/trustkernel/tsee/tsee/boot/tee/entry.S:138
5000012c:	e3a00000 	mov	r0, #0
/home/liwenhaosuper/data/trustkernel/tsee/tsee/boot/tee/entry.S:139
50000130:	ee070f15 	mcr	15, 0, r0, cr7, cr5, {0}
/home/liwenhaosuper/data/trustkernel/tsee/tsee/boot/tee/entry.S:140
50000134:	f57ff04f 	dsb	sy
/home/liwenhaosuper/data/trustkernel/tsee/tsee/boot/tee/entry.S:141
50000138:	f57ff06f 	isb	sy
/home/liwenhaosuper/data/trustkernel/tsee/tsee/boot/tee/entry.S:142
5000013c:	e8bd5fff 	pop	{r0, r1, r2, r3, r4, r5, r6, r7, r8, r9, sl, fp, ip, lr}
/home/liwenhaosuper/data/trustkernel/tsee/tsee/boot/tee/entry.S:143
50000140:	e1a0f00e 	mov	pc, lr

50000144 <v7_flush_dcache_all>:
v7_flush_dcache_all():
/home/liwenhaosuper/data/trustkernel/tsee/tsee/boot/tee/entry.S:149
50000144:	f57ff05f 	dmb	sy
/home/liwenhaosuper/data/trustkernel/tsee/tsee/boot/tee/entry.S:150
50000148:	ee300f30 	mrc	15, 1, r0, cr0, cr0, {1}
/home/liwenhaosuper/data/trustkernel/tsee/tsee/boot/tee/entry.S:151
5000014c:	e2103407 	ands	r3, r0, #117440512	; 0x7000000
/home/liwenhaosuper/data/trustkernel/tsee/tsee/boot/tee/entry.S:152
50000150:	e1a03ba3 	lsr	r3, r3, #23
/home/liwenhaosuper/data/trustkernel/tsee/tsee/boot/tee/entry.S:153
50000154:	0a00001a 	beq	500001c4 <finished>
/home/liwenhaosuper/data/trustkernel/tsee/tsee/boot/tee/entry.S:154
50000158:	e3a0a000 	mov	sl, #0

5000015c <loop1>:
loop1():
/home/liwenhaosuper/data/trustkernel/tsee/tsee/boot/tee/entry.S:156
5000015c:	e08a20aa 	add	r2, sl, sl, lsr #1
/home/liwenhaosuper/data/trustkernel/tsee/tsee/boot/tee/entry.S:157
50000160:	e1a01230 	lsr	r1, r0, r2
/home/liwenhaosuper/data/trustkernel/tsee/tsee/boot/tee/entry.S:158
50000164:	e2011007 	and	r1, r1, #7
/home/liwenhaosuper/data/trustkernel/tsee/tsee/boot/tee/entry.S:159
50000168:	e3510002 	cmp	r1, #2
/home/liwenhaosuper/data/trustkernel/tsee/tsee/boot/tee/entry.S:160
5000016c:	ba000011 	blt	500001b8 <skip>
/home/liwenhaosuper/data/trustkernel/tsee/tsee/boot/tee/entry.S:161
50000170:	ee40af10 	mcr	15, 2, sl, cr0, cr0, {0}
/home/liwenhaosuper/data/trustkernel/tsee/tsee/boot/tee/entry.S:162
50000174:	f57ff06f 	isb	sy
/home/liwenhaosuper/data/trustkernel/tsee/tsee/boot/tee/entry.S:163
50000178:	ee301f10 	mrc	15, 1, r1, cr0, cr0, {0}
/home/liwenhaosuper/data/trustkernel/tsee/tsee/boot/tee/entry.S:164
5000017c:	e2012007 	and	r2, r1, #7
/home/liwenhaosuper/data/trustkernel/tsee/tsee/boot/tee/entry.S:165
50000180:	e2822004 	add	r2, r2, #4
/home/liwenhaosuper/data/trustkernel/tsee/tsee/boot/tee/entry.S:166
50000184:	e59f4094 	ldr	r4, [pc, #148]	; 50000220 <tlb_lockdown+0x48>
/home/liwenhaosuper/data/trustkernel/tsee/tsee/boot/tee/entry.S:167
50000188:	e01441a1 	ands	r4, r4, r1, lsr #3
/home/liwenhaosuper/data/trustkernel/tsee/tsee/boot/tee/entry.S:168
5000018c:	e16f5f14 	clz	r5, r4
/home/liwenhaosuper/data/trustkernel/tsee/tsee/boot/tee/entry.S:169
50000190:	e59f708c 	ldr	r7, [pc, #140]	; 50000224 <tlb_lockdown+0x4c>
/home/liwenhaosuper/data/trustkernel/tsee/tsee/boot/tee/entry.S:170
50000194:	e01776a1 	ands	r7, r7, r1, lsr #13

50000198 <loop2>:
loop2():
/home/liwenhaosuper/data/trustkernel/tsee/tsee/boot/tee/entry.S:172
50000198:	e1a09004 	mov	r9, r4

5000019c <loop3>:
loop3():
/home/liwenhaosuper/data/trustkernel/tsee/tsee/boot/tee/entry.S:174
5000019c:	e18ab519 	orr	fp, sl, r9, lsl r5
/home/liwenhaosuper/data/trustkernel/tsee/tsee/boot/tee/entry.S:175
500001a0:	e18bb217 	orr	fp, fp, r7, lsl r2
/home/liwenhaosuper/data/trustkernel/tsee/tsee/boot/tee/entry.S:176
500001a4:	ee07bf5e 	mcr	15, 0, fp, cr7, cr14, {2}
/home/liwenhaosuper/data/trustkernel/tsee/tsee/boot/tee/entry.S:177
500001a8:	e2599001 	subs	r9, r9, #1
/home/liwenhaosuper/data/trustkernel/tsee/tsee/boot/tee/entry.S:178
500001ac:	aafffffa 	bge	5000019c <loop3>
/home/liwenhaosuper/data/trustkernel/tsee/tsee/boot/tee/entry.S:179
500001b0:	e2577001 	subs	r7, r7, #1
/home/liwenhaosuper/data/trustkernel/tsee/tsee/boot/tee/entry.S:180
500001b4:	aafffff7 	bge	50000198 <loop2>

500001b8 <skip>:
skip():
/home/liwenhaosuper/data/trustkernel/tsee/tsee/boot/tee/entry.S:182
500001b8:	e28aa002 	add	sl, sl, #2
/home/liwenhaosuper/data/trustkernel/tsee/tsee/boot/tee/entry.S:183
500001bc:	e153000a 	cmp	r3, sl
/home/liwenhaosuper/data/trustkernel/tsee/tsee/boot/tee/entry.S:184
500001c0:	caffffe5 	bgt	5000015c <loop1>

500001c4 <finished>:
finished():
/home/liwenhaosuper/data/trustkernel/tsee/tsee/boot/tee/entry.S:186
500001c4:	e3a0a000 	mov	sl, #0
/home/liwenhaosuper/data/trustkernel/tsee/tsee/boot/tee/entry.S:187
500001c8:	ee40af10 	mcr	15, 2, sl, cr0, cr0, {0}
/home/liwenhaosuper/data/trustkernel/tsee/tsee/boot/tee/entry.S:188
500001cc:	f57ff04f 	dsb	sy
/home/liwenhaosuper/data/trustkernel/tsee/tsee/boot/tee/entry.S:189
500001d0:	f57ff06f 	isb	sy
/home/liwenhaosuper/data/trustkernel/tsee/tsee/boot/tee/entry.S:190
500001d4:	e1a0f00e 	mov	pc, lr

500001d8 <tlb_lockdown>:
tlb_lockdown():
/home/liwenhaosuper/data/trustkernel/tsee/tsee/boot/tee/entry.S:197
500001d8:	e1a01000 	mov	r1, r0
/home/liwenhaosuper/data/trustkernel/tsee/tsee/boot/tee/entry.S:198
500001dc:	ee081f37 	mcr	15, 0, r1, cr8, cr7, {1}
/home/liwenhaosuper/data/trustkernel/tsee/tsee/boot/tee/entry.S:199
500001e0:	ee1a0f10 	mrc	15, 0, r0, cr10, cr0, {0}
/home/liwenhaosuper/data/trustkernel/tsee/tsee/boot/tee/entry.S:200
500001e4:	e3800001 	orr	r0, r0, #1
/home/liwenhaosuper/data/trustkernel/tsee/tsee/boot/tee/entry.S:201
500001e8:	ee0a0f10 	mcr	15, 0, r0, cr10, cr0, {0}
/home/liwenhaosuper/data/trustkernel/tsee/tsee/boot/tee/entry.S:202
500001ec:	e5911000 	ldr	r1, [r1]
/home/liwenhaosuper/data/trustkernel/tsee/tsee/boot/tee/entry.S:203
500001f0:	ee1a0f10 	mrc	15, 0, r0, cr10, cr0, {0}
/home/liwenhaosuper/data/trustkernel/tsee/tsee/boot/tee/entry.S:204
500001f4:	e3c00001 	bic	r0, r0, #1
/home/liwenhaosuper/data/trustkernel/tsee/tsee/boot/tee/entry.S:205
500001f8:	ee0a0f10 	mcr	15, 0, r0, cr10, cr0, {0}
/home/liwenhaosuper/data/trustkernel/tsee/tsee/boot/tee/entry.S:206
500001fc:	e1a0f00e 	mov	pc, lr
50000200:	5000c118 	.word	0x5000c118
50000204:	50014000 	.word	0x50014000
50000208:	5000f000 	.word	0x5000f000
5000020c:	5000b000 	.word	0x5000b000
50000210:	5000e000 	.word	0x5000e000
50000214:	50001000 	.word	0x50001000
50000218:	500014c8 	.word	0x500014c8
5000021c:	50013000 	.word	0x50013000
50000220:	000003ff 	.word	0x000003ff
50000224:	00007fff 	.word	0x00007fff
	...

50001000 <__tsee_text_ro_start>:
monitor_entry():
/home/liwenhaosuper/data/trustkernel/tsee/tsee/tsee/tee/tsee_sm_gate.S:257
50001000:	ea000130 	b	500014c8 <default_sm_handler>
/home/liwenhaosuper/data/trustkernel/tsee/tsee/tsee/tee/tsee_sm_gate.S:258
50001004:	ea000130 	b	500014cc <sm_tee_undef_handler>
/home/liwenhaosuper/data/trustkernel/tsee/tsee/tsee/tee/tsee_sm_gate.S:259
50001008:	ea000004 	b	50001020 <monitor_smc>
/home/liwenhaosuper/data/trustkernel/tsee/tsee/tsee/tee/tsee_sm_gate.S:260
5000100c:	ea000130 	b	500014d4 <sm_tee_pref_handler>
/home/liwenhaosuper/data/trustkernel/tsee/tsee/tsee/tee/tsee_sm_gate.S:261
50001010:	ea000130 	b	500014d8 <sm_tee_abort_handler>
/home/liwenhaosuper/data/trustkernel/tsee/tsee/tsee/tee/tsee_sm_gate.S:262
50001014:	ea000130 	b	500014dc <sm_tee_reserv_handler>
/home/liwenhaosuper/data/trustkernel/tsee/tsee/tsee/tee/tsee_sm_gate.S:263
50001018:	ea000130 	b	500014e0 <sm_tee_irq_handler>
/home/liwenhaosuper/data/trustkernel/tsee/tsee/tsee/tee/tsee_sm_gate.S:264
5000101c:	ea000130 	b	500014e4 <sm_tee_fiq_handler>

50001020 <monitor_smc>:
monitor_smc():
/home/liwenhaosuper/data/trustkernel/tsee/tsee/tsee/tee/tsee_sm_gate.S:267
50001020:	e52de004 	push	{lr}		; (str lr, [sp, #-4]!)
50001024:	e92d000f 	push	{r0, r1, r2, r3}
50001028:	e14f1000 	mrs	r1, SPSR
5000102c:	e52d1004 	push	{r1}		; (str r1, [sp, #-4]!)
/home/liwenhaosuper/data/trustkernel/tsee/tsee/tsee/tee/tsee_sm_gate.S:270
50001030:	f57ff01f 	clrex
/home/liwenhaosuper/data/trustkernel/tsee/tsee/tsee/tee/tsee_sm_gate.S:271
50001034:	eb000131 	bl	50001500 <is_tsee_call>
/home/liwenhaosuper/data/trustkernel/tsee/tsee/tsee/tee/tsee_sm_gate.S:272
50001038:	e3500001 	cmp	r0, #1
/home/liwenhaosuper/data/trustkernel/tsee/tsee/tsee/tee/tsee_sm_gate.S:273
5000103c:	1a00011d 	bne	500014b8 <tsee_sm_proxy>
/home/liwenhaosuper/data/trustkernel/tsee/tsee/tsee/tee/tsee_sm_gate.S:276
50001040:	ee111f11 	mrc	15, 0, r1, cr1, cr1, {0}
/home/liwenhaosuper/data/trustkernel/tsee/tsee/tsee/tee/tsee_sm_gate.S:277
50001044:	e3110001 	tst	r1, #1
/home/liwenhaosuper/data/trustkernel/tsee/tsee/tsee/tee/tsee_sm_gate.S:278
50001048:	1a000000 	bne	50001050 <tsee_sm_from_ns_entry>
/home/liwenhaosuper/data/trustkernel/tsee/tsee/tsee/tee/tsee_sm_gate.S:279
5000104c:	0a000091 	beq	50001298 <tsee_sm_from_s_entry>

50001050 <tsee_sm_from_ns_entry>:
tsee_sm_from_ns_entry():
/home/liwenhaosuper/data/trustkernel/tsee/tsee/tsee/tee/tsee_sm_gate.S:282
50001050:	e52d1004 	push	{r1}		; (str r1, [sp, #-4]!)
/home/liwenhaosuper/data/trustkernel/tsee/tsee/tsee/tee/tsee_sm_gate.S:283
50001054:	ee111f11 	mrc	15, 0, r1, cr1, cr1, {0}
/home/liwenhaosuper/data/trustkernel/tsee/tsee/tsee/tee/tsee_sm_gate.S:284
50001058:	e3c11001 	bic	r1, r1, #1
/home/liwenhaosuper/data/trustkernel/tsee/tsee/tsee/tee/tsee_sm_gate.S:285
5000105c:	ee011f11 	mcr	15, 0, r1, cr1, cr1, {0}
/home/liwenhaosuper/data/trustkernel/tsee/tsee/tsee/tee/tsee_sm_gate.S:286
50001060:	e49d1004 	pop	{r1}		; (ldr r1, [sp], #4)
/home/liwenhaosuper/data/trustkernel/tsee/tsee/tsee/tee/tsee_sm_gate.S:287
50001064:	e49de004 	pop	{lr}		; (ldr lr, [sp], #4)
50001068:	e8bd000f 	pop	{r0, r1, r2, r3}
5000106c:	e52de004 	push	{lr}		; (str lr, [sp, #-4]!)
50001070:	e92d000f 	push	{r0, r1, r2, r3}
50001074:	ee1c1f10 	mrc	15, 0, r1, cr12, cr0, {0}
50001078:	e52d1004 	push	{r1}		; (str r1, [sp, #-4]!)
5000107c:	ee111f10 	mrc	15, 0, r1, cr1, cr0, {0}
50001080:	e52d1004 	push	{r1}		; (str r1, [sp, #-4]!)
50001084:	e1a02001 	mov	r2, r1
50001088:	ee121f30 	mrc	15, 0, r1, cr2, cr0, {1}
5000108c:	e52d1004 	push	{r1}		; (str r1, [sp, #-4]!)
50001090:	ee121f10 	mrc	15, 0, r1, cr2, cr0, {0}
50001094:	e52d1004 	push	{r1}		; (str r1, [sp, #-4]!)
50001098:	ee121f50 	mrc	15, 0, r1, cr2, cr0, {2}
5000109c:	e52d1004 	push	{r1}		; (str r1, [sp, #-4]!)
500010a0:	e59f0440 	ldr	r0, [pc, #1088]	; 500014e8 <sm_tee_fiq_handler+0x4>
500010a4:	e4901004 	ldr	r1, [r0], #4
500010a8:	ee021f50 	mcr	15, 0, r1, cr2, cr0, {2}
500010ac:	e4901004 	ldr	r1, [r0], #4
500010b0:	ee021f10 	mcr	15, 0, r1, cr2, cr0, {0}
500010b4:	e4901004 	ldr	r1, [r0], #4
500010b8:	ee021f30 	mcr	15, 0, r1, cr2, cr0, {1}
500010bc:	e4901004 	ldr	r1, [r0], #4
500010c0:	ee011f10 	mcr	15, 0, r1, cr1, cr0, {0}
500010c4:	e4901004 	ldr	r1, [r0], #4
500010c8:	e4901004 	ldr	r1, [r0], #4
500010cc:	ee0c1f10 	mcr	15, 0, r1, cr12, cr0, {0}
500010d0:	f57ff06f 	isb	sy
500010d4:	e59f040c 	ldr	r0, [pc, #1036]	; 500014e8 <sm_tee_fiq_handler+0x4>
500010d8:	e4901004 	ldr	r1, [r0], #4
500010dc:	ee123f50 	mrc	15, 0, r3, cr2, cr0, {2}
500010e0:	e1510003 	cmp	r1, r3
500010e4:	1afffffe 	bne	500010e4 <tsee_sm_from_ns_entry+0x94>
500010e8:	e4901004 	ldr	r1, [r0], #4
500010ec:	ee123f10 	mrc	15, 0, r3, cr2, cr0, {0}
500010f0:	e1510003 	cmp	r1, r3
500010f4:	1afffffe 	bne	500010f4 <tsee_sm_from_ns_entry+0xa4>
500010f8:	e4901004 	ldr	r1, [r0], #4
500010fc:	ee123f30 	mrc	15, 0, r3, cr2, cr0, {1}
50001100:	e1510003 	cmp	r1, r3
50001104:	1afffffe 	bne	50001104 <tsee_sm_from_ns_entry+0xb4>
50001108:	e4901004 	ldr	r1, [r0], #4
5000110c:	ee113f10 	mrc	15, 0, r3, cr1, cr0, {0}
50001110:	e1510003 	cmp	r1, r3
50001114:	1afffffe 	bne	50001114 <tsee_sm_from_ns_entry+0xc4>
50001118:	e4901004 	ldr	r1, [r0], #4
5000111c:	e4901004 	ldr	r1, [r0], #4
50001120:	ee1c3f10 	mrc	15, 0, r3, cr12, cr0, {0}
50001124:	e1510003 	cmp	r1, r3
50001128:	1afffffe 	bne	50001128 <tsee_sm_from_ns_entry+0xd8>
5000112c:	e3a00000 	mov	r0, #0
50001130:	ee070f15 	mcr	15, 0, r0, cr7, cr5, {0}
50001134:	ee080f13 	mcr	15, 0, r0, cr8, cr3, {0}
50001138:	ee070fd5 	mcr	15, 0, r0, cr7, cr5, {6}
/home/liwenhaosuper/data/trustkernel/tsee/tsee/tsee/tee/tsee_sm_gate.S:127
5000113c:	f57ff04f 	dsb	sy
50001140:	f57ff06f 	isb	sy
50001144:	e59f03a0 	ldr	r0, [pc, #928]	; 500014ec <sm_tee_fiq_handler+0x8>
50001148:	e49d1004 	pop	{r1}		; (ldr r1, [sp], #4)
5000114c:	e4801004 	str	r1, [r0], #4
50001150:	e49d1004 	pop	{r1}		; (ldr r1, [sp], #4)
50001154:	e4801004 	str	r1, [r0], #4
50001158:	e49d1004 	pop	{r1}		; (ldr r1, [sp], #4)
5000115c:	e4801004 	str	r1, [r0], #4
50001160:	e49d1004 	pop	{r1}		; (ldr r1, [sp], #4)
50001164:	e4801004 	str	r1, [r0], #4
50001168:	e49d1004 	pop	{r1}		; (ldr r1, [sp], #4)
5000116c:	e480d004 	str	sp, [r0], #4
50001170:	e4801004 	str	r1, [r0], #4
50001174:	e8bd000f 	pop	{r0, r1, r2, r3}
50001178:	e59fd368 	ldr	sp, [pc, #872]	; 500014e8 <sm_tee_fiq_handler+0x4>
5000117c:	e59dd010 	ldr	sp, [sp, #16]
/home/liwenhaosuper/data/trustkernel/tsee/tsee/tsee/tee/tsee_sm_gate.S:288
50001180:	eb0020e8 	bl	50009528 <tsee_rtks_ns_call>
/home/liwenhaosuper/data/trustkernel/tsee/tsee/tsee/tee/tsee_sm_gate.S:289
50001184:	e59f035c 	ldr	r0, [pc, #860]	; 500014e8 <sm_tee_fiq_handler+0x4>
50001188:	ee121f50 	mrc	15, 0, r1, cr2, cr0, {2}
5000118c:	e4801004 	str	r1, [r0], #4
50001190:	ee121f10 	mrc	15, 0, r1, cr2, cr0, {0}
50001194:	e4801004 	str	r1, [r0], #4
50001198:	ee121f30 	mrc	15, 0, r1, cr2, cr0, {1}
5000119c:	e4801004 	str	r1, [r0], #4
500011a0:	ee111f10 	mrc	15, 0, r1, cr1, cr0, {0}
500011a4:	e4801004 	str	r1, [r0], #4
500011a8:	e480d004 	str	sp, [r0], #4
500011ac:	ee1c1f10 	mrc	15, 0, r1, cr12, cr0, {0}
500011b0:	e4801004 	str	r1, [r0], #4
500011b4:	e59f0330 	ldr	r0, [pc, #816]	; 500014ec <sm_tee_fiq_handler+0x8>
500011b8:	e4901004 	ldr	r1, [r0], #4
500011bc:	ee021f50 	mcr	15, 0, r1, cr2, cr0, {2}
500011c0:	e59f1324 	ldr	r1, [pc, #804]	; 500014ec <sm_tee_fiq_handler+0x8>
500011c4:	e5911000 	ldr	r1, [r1]
500011c8:	ee122f50 	mrc	15, 0, r2, cr2, cr0, {2}
500011cc:	e1510002 	cmp	r1, r2
500011d0:	1afffffe 	bne	500011d0 <tsee_sm_from_ns_entry+0x180>
500011d4:	e4901004 	ldr	r1, [r0], #4
500011d8:	ee021f10 	mcr	15, 0, r1, cr2, cr0, {0}
500011dc:	e59f1308 	ldr	r1, [pc, #776]	; 500014ec <sm_tee_fiq_handler+0x8>
500011e0:	e5911004 	ldr	r1, [r1, #4]
500011e4:	ee122f10 	mrc	15, 0, r2, cr2, cr0, {0}
500011e8:	e1510002 	cmp	r1, r2
500011ec:	1afffffe 	bne	500011ec <tsee_sm_from_ns_entry+0x19c>
500011f0:	e4901004 	ldr	r1, [r0], #4
500011f4:	ee021f30 	mcr	15, 0, r1, cr2, cr0, {1}
500011f8:	e59f12ec 	ldr	r1, [pc, #748]	; 500014ec <sm_tee_fiq_handler+0x8>
500011fc:	e5911008 	ldr	r1, [r1, #8]
50001200:	ee122f30 	mrc	15, 0, r2, cr2, cr0, {1}
50001204:	e1510002 	cmp	r1, r2
50001208:	1afffffe 	bne	50001208 <tsee_sm_from_ns_entry+0x1b8>
5000120c:	e4901004 	ldr	r1, [r0], #4
50001210:	ee011f10 	mcr	15, 0, r1, cr1, cr0, {0}
50001214:	e59f12d0 	ldr	r1, [pc, #720]	; 500014ec <sm_tee_fiq_handler+0x8>
50001218:	e591100c 	ldr	r1, [r1, #12]
5000121c:	ee112f10 	mrc	15, 0, r2, cr1, cr0, {0}
50001220:	e1510002 	cmp	r1, r2
50001224:	1afffffe 	bne	50001224 <tsee_sm_from_ns_entry+0x1d4>
50001228:	e490d004 	ldr	sp, [r0], #4
5000122c:	e59f12b8 	ldr	r1, [pc, #696]	; 500014ec <sm_tee_fiq_handler+0x8>
50001230:	e5911010 	ldr	r1, [r1, #16]
50001234:	e151000d 	cmp	r1, sp
50001238:	1afffffe 	bne	50001238 <tsee_sm_from_ns_entry+0x1e8>
5000123c:	e4901004 	ldr	r1, [r0], #4
50001240:	ee0c1f10 	mcr	15, 0, r1, cr12, cr0, {0}
50001244:	e59f12a0 	ldr	r1, [pc, #672]	; 500014ec <sm_tee_fiq_handler+0x8>
50001248:	e5911014 	ldr	r1, [r1, #20]
5000124c:	ee1c2f10 	mrc	15, 0, r2, cr12, cr0, {0}
50001250:	e1510002 	cmp	r1, r2
50001254:	1afffffe 	bne	50001254 <tsee_sm_from_ns_entry+0x204>
50001258:	e3a00000 	mov	r0, #0
5000125c:	ee070f15 	mcr	15, 0, r0, cr7, cr5, {0}
50001260:	ee080f13 	mcr	15, 0, r0, cr8, cr3, {0}
50001264:	ee070fd5 	mcr	15, 0, r0, cr7, cr5, {6}
/home/liwenhaosuper/data/trustkernel/tsee/tsee/tsee/tee/tsee_sm_gate.S:250
50001268:	f57ff04f 	dsb	sy
5000126c:	f57ff06f 	isb	sy
50001270:	e8bd000f 	pop	{r0, r1, r2, r3}
/home/liwenhaosuper/data/trustkernel/tsee/tsee/tsee/tee/tsee_sm_gate.S:291
50001274:	e52d1004 	push	{r1}		; (str r1, [sp, #-4]!)
/home/liwenhaosuper/data/trustkernel/tsee/tsee/tsee/tee/tsee_sm_gate.S:292
50001278:	ee111f11 	mrc	15, 0, r1, cr1, cr1, {0}
/home/liwenhaosuper/data/trustkernel/tsee/tsee/tsee/tee/tsee_sm_gate.S:293
5000127c:	e3811001 	orr	r1, r1, #1
/home/liwenhaosuper/data/trustkernel/tsee/tsee/tsee/tee/tsee_sm_gate.S:294
50001280:	ee011f11 	mcr	15, 0, r1, cr1, cr1, {0}
/home/liwenhaosuper/data/trustkernel/tsee/tsee/tsee/tee/tsee_sm_gate.S:295
50001284:	e49d1004 	pop	{r1}		; (ldr r1, [sp], #4)
/home/liwenhaosuper/data/trustkernel/tsee/tsee/tsee/tee/tsee_sm_gate.S:296
50001288:	e49d0004 	pop	{r0}		; (ldr r0, [sp], #4)
5000128c:	e16ff000 	msr	SPSR_fsxc, r0
50001290:	e49de004 	pop	{lr}		; (ldr lr, [sp], #4)
50001294:	e1b0f00e 	movs	pc, lr

50001298 <tsee_sm_from_s_entry>:
tsee_sm_from_s_entry():
/home/liwenhaosuper/data/trustkernel/tsee/tsee/tsee/tee/tsee_sm_gate.S:298
50001298:	e49de004 	pop	{lr}		; (ldr lr, [sp], #4)
5000129c:	e8bd000f 	pop	{r0, r1, r2, r3}
500012a0:	e52de004 	push	{lr}		; (str lr, [sp, #-4]!)
500012a4:	e92d000f 	push	{r0, r1, r2, r3}
500012a8:	ee1c1f10 	mrc	15, 0, r1, cr12, cr0, {0}
500012ac:	e52d1004 	push	{r1}		; (str r1, [sp, #-4]!)
500012b0:	ee111f10 	mrc	15, 0, r1, cr1, cr0, {0}
500012b4:	e52d1004 	push	{r1}		; (str r1, [sp, #-4]!)
500012b8:	e1a02001 	mov	r2, r1
500012bc:	ee121f30 	mrc	15, 0, r1, cr2, cr0, {1}
500012c0:	e52d1004 	push	{r1}		; (str r1, [sp, #-4]!)
500012c4:	ee121f10 	mrc	15, 0, r1, cr2, cr0, {0}
500012c8:	e52d1004 	push	{r1}		; (str r1, [sp, #-4]!)
500012cc:	ee121f50 	mrc	15, 0, r1, cr2, cr0, {2}
500012d0:	e52d1004 	push	{r1}		; (str r1, [sp, #-4]!)
500012d4:	e59f020c 	ldr	r0, [pc, #524]	; 500014e8 <sm_tee_fiq_handler+0x4>
500012d8:	e4901004 	ldr	r1, [r0], #4
500012dc:	ee021f50 	mcr	15, 0, r1, cr2, cr0, {2}
500012e0:	e4901004 	ldr	r1, [r0], #4
500012e4:	ee021f10 	mcr	15, 0, r1, cr2, cr0, {0}
500012e8:	e4901004 	ldr	r1, [r0], #4
500012ec:	ee021f30 	mcr	15, 0, r1, cr2, cr0, {1}
500012f0:	e4901004 	ldr	r1, [r0], #4
500012f4:	ee011f10 	mcr	15, 0, r1, cr1, cr0, {0}
500012f8:	e4901004 	ldr	r1, [r0], #4
500012fc:	e4901004 	ldr	r1, [r0], #4
50001300:	ee0c1f10 	mcr	15, 0, r1, cr12, cr0, {0}
50001304:	f57ff06f 	isb	sy
50001308:	e59f01d8 	ldr	r0, [pc, #472]	; 500014e8 <sm_tee_fiq_handler+0x4>
5000130c:	e4901004 	ldr	r1, [r0], #4
50001310:	ee123f50 	mrc	15, 0, r3, cr2, cr0, {2}
50001314:	e1510003 	cmp	r1, r3
50001318:	1afffffe 	bne	50001318 <tsee_sm_from_s_entry+0x80>
5000131c:	e4901004 	ldr	r1, [r0], #4
50001320:	ee123f10 	mrc	15, 0, r3, cr2, cr0, {0}
50001324:	e1510003 	cmp	r1, r3
50001328:	1afffffe 	bne	50001328 <tsee_sm_from_s_entry+0x90>
5000132c:	e4901004 	ldr	r1, [r0], #4
50001330:	ee123f30 	mrc	15, 0, r3, cr2, cr0, {1}
50001334:	e1510003 	cmp	r1, r3
50001338:	1afffffe 	bne	50001338 <tsee_sm_from_s_entry+0xa0>
5000133c:	e4901004 	ldr	r1, [r0], #4
50001340:	ee113f10 	mrc	15, 0, r3, cr1, cr0, {0}
50001344:	e1510003 	cmp	r1, r3
50001348:	1afffffe 	bne	50001348 <tsee_sm_from_s_entry+0xb0>
5000134c:	e4901004 	ldr	r1, [r0], #4
50001350:	e4901004 	ldr	r1, [r0], #4
50001354:	ee1c3f10 	mrc	15, 0, r3, cr12, cr0, {0}
50001358:	e1510003 	cmp	r1, r3
5000135c:	1afffffe 	bne	5000135c <tsee_sm_from_s_entry+0xc4>
50001360:	e3a00000 	mov	r0, #0
50001364:	ee070f15 	mcr	15, 0, r0, cr7, cr5, {0}
50001368:	ee080f13 	mcr	15, 0, r0, cr8, cr3, {0}
5000136c:	ee070fd5 	mcr	15, 0, r0, cr7, cr5, {6}
/home/liwenhaosuper/data/trustkernel/tsee/tsee/tsee/tee/tsee_sm_gate.S:127
50001370:	f57ff04f 	dsb	sy
50001374:	f57ff06f 	isb	sy
50001378:	e59f016c 	ldr	r0, [pc, #364]	; 500014ec <sm_tee_fiq_handler+0x8>
5000137c:	e49d1004 	pop	{r1}		; (ldr r1, [sp], #4)
50001380:	e4801004 	str	r1, [r0], #4
50001384:	e49d1004 	pop	{r1}		; (ldr r1, [sp], #4)
50001388:	e4801004 	str	r1, [r0], #4
5000138c:	e49d1004 	pop	{r1}		; (ldr r1, [sp], #4)
50001390:	e4801004 	str	r1, [r0], #4
50001394:	e49d1004 	pop	{r1}		; (ldr r1, [sp], #4)
50001398:	e4801004 	str	r1, [r0], #4
5000139c:	e49d1004 	pop	{r1}		; (ldr r1, [sp], #4)
500013a0:	e480d004 	str	sp, [r0], #4
500013a4:	e4801004 	str	r1, [r0], #4
500013a8:	e8bd000f 	pop	{r0, r1, r2, r3}
500013ac:	e59fd134 	ldr	sp, [pc, #308]	; 500014e8 <sm_tee_fiq_handler+0x4>
500013b0:	e59dd010 	ldr	sp, [sp, #16]
/home/liwenhaosuper/data/trustkernel/tsee/tsee/tsee/tee/tsee_sm_gate.S:299
500013b4:	eb00205a 	bl	50009524 <tsee_rtks_call>
/home/liwenhaosuper/data/trustkernel/tsee/tsee/tsee/tee/tsee_sm_gate.S:300
500013b8:	e59f0128 	ldr	r0, [pc, #296]	; 500014e8 <sm_tee_fiq_handler+0x4>
500013bc:	ee121f50 	mrc	15, 0, r1, cr2, cr0, {2}
500013c0:	e4801004 	str	r1, [r0], #4
500013c4:	ee121f10 	mrc	15, 0, r1, cr2, cr0, {0}
500013c8:	e4801004 	str	r1, [r0], #4
500013cc:	ee121f30 	mrc	15, 0, r1, cr2, cr0, {1}
500013d0:	e4801004 	str	r1, [r0], #4
500013d4:	ee111f10 	mrc	15, 0, r1, cr1, cr0, {0}
500013d8:	e4801004 	str	r1, [r0], #4
500013dc:	e480d004 	str	sp, [r0], #4
500013e0:	ee1c1f10 	mrc	15, 0, r1, cr12, cr0, {0}
500013e4:	e4801004 	str	r1, [r0], #4
500013e8:	e59f00fc 	ldr	r0, [pc, #252]	; 500014ec <sm_tee_fiq_handler+0x8>
500013ec:	e4901004 	ldr	r1, [r0], #4
500013f0:	ee021f50 	mcr	15, 0, r1, cr2, cr0, {2}
500013f4:	e59f10f0 	ldr	r1, [pc, #240]	; 500014ec <sm_tee_fiq_handler+0x8>
500013f8:	e5911000 	ldr	r1, [r1]
500013fc:	ee122f50 	mrc	15, 0, r2, cr2, cr0, {2}
50001400:	e1510002 	cmp	r1, r2
50001404:	1afffffe 	bne	50001404 <tsee_sm_from_s_entry+0x16c>
50001408:	e4901004 	ldr	r1, [r0], #4
5000140c:	ee021f10 	mcr	15, 0, r1, cr2, cr0, {0}
50001410:	e59f10d4 	ldr	r1, [pc, #212]	; 500014ec <sm_tee_fiq_handler+0x8>
50001414:	e5911004 	ldr	r1, [r1, #4]
50001418:	ee122f10 	mrc	15, 0, r2, cr2, cr0, {0}
5000141c:	e1510002 	cmp	r1, r2
50001420:	1afffffe 	bne	50001420 <tsee_sm_from_s_entry+0x188>
50001424:	e4901004 	ldr	r1, [r0], #4
50001428:	ee021f30 	mcr	15, 0, r1, cr2, cr0, {1}
5000142c:	e59f10b8 	ldr	r1, [pc, #184]	; 500014ec <sm_tee_fiq_handler+0x8>
50001430:	e5911008 	ldr	r1, [r1, #8]
50001434:	ee122f30 	mrc	15, 0, r2, cr2, cr0, {1}
50001438:	e1510002 	cmp	r1, r2
5000143c:	1afffffe 	bne	5000143c <tsee_sm_from_s_entry+0x1a4>
50001440:	e4901004 	ldr	r1, [r0], #4
50001444:	ee011f10 	mcr	15, 0, r1, cr1, cr0, {0}
50001448:	e59f109c 	ldr	r1, [pc, #156]	; 500014ec <sm_tee_fiq_handler+0x8>
5000144c:	e591100c 	ldr	r1, [r1, #12]
50001450:	ee112f10 	mrc	15, 0, r2, cr1, cr0, {0}
50001454:	e1510002 	cmp	r1, r2
50001458:	1afffffe 	bne	50001458 <tsee_sm_from_s_entry+0x1c0>
5000145c:	e490d004 	ldr	sp, [r0], #4
50001460:	e59f1084 	ldr	r1, [pc, #132]	; 500014ec <sm_tee_fiq_handler+0x8>
50001464:	e5911010 	ldr	r1, [r1, #16]
50001468:	e151000d 	cmp	r1, sp
5000146c:	1afffffe 	bne	5000146c <tsee_sm_from_s_entry+0x1d4>
50001470:	e4901004 	ldr	r1, [r0], #4
50001474:	ee0c1f10 	mcr	15, 0, r1, cr12, cr0, {0}
50001478:	e59f106c 	ldr	r1, [pc, #108]	; 500014ec <sm_tee_fiq_handler+0x8>
5000147c:	e5911014 	ldr	r1, [r1, #20]
50001480:	ee1c2f10 	mrc	15, 0, r2, cr12, cr0, {0}
50001484:	e1510002 	cmp	r1, r2
50001488:	1afffffe 	bne	50001488 <tsee_sm_from_s_entry+0x1f0>
5000148c:	e3a00000 	mov	r0, #0
50001490:	ee070f15 	mcr	15, 0, r0, cr7, cr5, {0}
50001494:	ee080f13 	mcr	15, 0, r0, cr8, cr3, {0}
50001498:	ee070fd5 	mcr	15, 0, r0, cr7, cr5, {6}
/home/liwenhaosuper/data/trustkernel/tsee/tsee/tsee/tee/tsee_sm_gate.S:250
5000149c:	f57ff04f 	dsb	sy
500014a0:	f57ff06f 	isb	sy
500014a4:	e8bd000f 	pop	{r0, r1, r2, r3}
/home/liwenhaosuper/data/trustkernel/tsee/tsee/tsee/tee/tsee_sm_gate.S:301
500014a8:	e49d0004 	pop	{r0}		; (ldr r0, [sp], #4)
500014ac:	e16ff000 	msr	SPSR_fsxc, r0
500014b0:	e49de004 	pop	{lr}		; (ldr lr, [sp], #4)
500014b4:	e1b0f00e 	movs	pc, lr

500014b8 <tsee_sm_proxy>:
tsee_sm_proxy():
/home/liwenhaosuper/data/trustkernel/tsee/tsee/tsee/tee/tsee_sm_gate.S:304
500014b8:	e49de004 	pop	{lr}		; (ldr lr, [sp], #4)
/home/liwenhaosuper/data/trustkernel/tsee/tsee/tsee/tee/tsee_sm_gate.S:305
500014bc:	e8bd000f 	pop	{r0, r1, r2, r3}
/home/liwenhaosuper/data/trustkernel/tsee/tsee/tsee/tee/tsee_sm_gate.S:306
500014c0:	e49de004 	pop	{lr}		; (ldr lr, [sp], #4)
/home/liwenhaosuper/data/trustkernel/tsee/tsee/tsee/tee/tsee_sm_gate.S:307
500014c4:	ea000001 	b	500014d0 <sm_tee_smc_handler>

500014c8 <default_sm_handler>:
sm_tee_reset_handler():
/home/liwenhaosuper/data/trustkernel/tsee/tsee/tsee/tee/tsee_sm_gate.S:321
500014c8:	e51ff008 	ldr	pc, [pc, #-8]	; 500014c8 <default_sm_handler>

500014cc <sm_tee_undef_handler>:
sm_tee_undef_handler():
/home/liwenhaosuper/data/trustkernel/tsee/tsee/tsee/tee/tsee_sm_gate.S:323
500014cc:	eafffffe 	b	500014cc <sm_tee_undef_handler>

500014d0 <sm_tee_smc_handler>:
sm_tee_smc_handler():
/home/liwenhaosuper/data/trustkernel/tsee/tsee/tsee/tee/tsee_sm_gate.S:325
500014d0:	eafffffe 	b	500014d0 <sm_tee_smc_handler>

500014d4 <sm_tee_pref_handler>:
sm_tee_pref_handler():
/home/liwenhaosuper/data/trustkernel/tsee/tsee/tsee/tee/tsee_sm_gate.S:327
500014d4:	eafffffe 	b	500014d4 <sm_tee_pref_handler>

500014d8 <sm_tee_abort_handler>:
sm_tee_abort_handler():
/home/liwenhaosuper/data/trustkernel/tsee/tsee/tsee/tee/tsee_sm_gate.S:329
500014d8:	eafffffe 	b	500014d8 <sm_tee_abort_handler>

500014dc <sm_tee_reserv_handler>:
sm_tee_reserv_handler():
/home/liwenhaosuper/data/trustkernel/tsee/tsee/tsee/tee/tsee_sm_gate.S:331
500014dc:	eafffffe 	b	500014dc <sm_tee_reserv_handler>

500014e0 <sm_tee_irq_handler>:
sm_tee_irq_handler():
/home/liwenhaosuper/data/trustkernel/tsee/tsee/tsee/tee/tsee_sm_gate.S:333
500014e0:	eafffffe 	b	500014e0 <sm_tee_irq_handler>

500014e4 <sm_tee_fiq_handler>:
sm_tee_fiq_handler():
/home/liwenhaosuper/data/trustkernel/tsee/tsee/tsee/tee/tsee_sm_gate.S:335
500014e4:	eafffffe 	b	500014e4 <sm_tee_fiq_handler>
500014e8:	5000b000 	.word	0x5000b000
500014ec:	5000b018 	.word	0x5000b018
500014f0:	e320f000 	nop	{0}
500014f4:	e320f000 	nop	{0}
500014f8:	e320f000 	nop	{0}
500014fc:	e320f000 	nop	{0}

50001500 <is_tsee_call>:
is_tsee_call():
/home/liwenhaosuper/data/trustkernel/tsee/tsee/tsee/tee/tsee_sm.c:173
50001500:	e52db004 	push	{fp}		; (str fp, [sp, #-4]!)
50001504:	e28db000 	add	fp, sp, #0
50001508:	e24dd00c 	sub	sp, sp, #12
5000150c:	e50b0008 	str	r0, [fp, #-8]
/home/liwenhaosuper/data/trustkernel/tsee/tsee/tsee/tee/tsee_sm.c:174
50001510:	e51b3008 	ldr	r3, [fp, #-8]
50001514:	e3c320ff 	bic	r2, r3, #255	; 0xff
50001518:	e3a03cbe 	mov	r3, #48640	; 0xbe00
5000151c:	e34d3ead 	movt	r3, #57005	; 0xdead
50001520:	e1520003 	cmp	r2, r3
50001524:	1a000001 	bne	50001530 <is_tsee_call+0x30>
/home/liwenhaosuper/data/trustkernel/tsee/tsee/tsee/tee/tsee_sm.c:176
50001528:	e3a03001 	mov	r3, #1
5000152c:	ea000000 	b	50001534 <is_tsee_call+0x34>
/home/liwenhaosuper/data/trustkernel/tsee/tsee/tsee/tee/tsee_sm.c:179
50001530:	e3a03000 	mov	r3, #0
/home/liwenhaosuper/data/trustkernel/tsee/tsee/tsee/tee/tsee_sm.c:180
50001534:	e1a00003 	mov	r0, r3
50001538:	e28bd000 	add	sp, fp, #0
5000153c:	e49db004 	pop	{fp}		; (ldr fp, [sp], #4)
50001540:	e12fff1e 	bx	lr
	...

50002000 <__tsee_text_ro_end>:
__tsee_text_ro_end():
/home/liwenhaosuper/data/trustkernel/tsee/tsee/tsee/tee/tsee_sm_gate.S:7
50002000:	eafffffe 	b	50002000 <__tsee_text_ro_end>
/home/liwenhaosuper/data/trustkernel/tsee/tsee/tsee/tee/tsee_sm_gate.S:8
50002004:	eafffffe 	b	50002004 <__tsee_text_ro_end+0x4>
/home/liwenhaosuper/data/trustkernel/tsee/tsee/tsee/tee/tsee_sm_gate.S:9
50002008:	eafffffe 	b	50002008 <__tsee_text_ro_end+0x8>
/home/liwenhaosuper/data/trustkernel/tsee/tsee/tsee/tee/tsee_sm_gate.S:10
5000200c:	ea000003 	b	50002020 <trap_iabort>
/home/liwenhaosuper/data/trustkernel/tsee/tsee/tsee/tee/tsee_sm_gate.S:11
50002010:	ea00000d 	b	5000204c <trap_dabort>
/home/liwenhaosuper/data/trustkernel/tsee/tsee/tsee/tee/tsee_sm_gate.S:12
50002014:	eafffffe 	b	50002014 <__tsee_text_ro_end+0x14>
/home/liwenhaosuper/data/trustkernel/tsee/tsee/tsee/tee/tsee_sm_gate.S:13
50002018:	eafffffe 	b	50002018 <__tsee_text_ro_end+0x18>
/home/liwenhaosuper/data/trustkernel/tsee/tsee/tsee/tee/tsee_sm_gate.S:14
5000201c:	eafffffe 	b	5000201c <__tsee_text_ro_end+0x1c>

50002020 <trap_iabort>:
trap_iabort():
/home/liwenhaosuper/data/trustkernel/tsee/tsee/tsee/tee/tsee_sm_gate.S:17
50002020:	e59fd050 	ldr	sp, [pc, #80]	; 50002078 <trap_dabort+0x2c>
/home/liwenhaosuper/data/trustkernel/tsee/tsee/tsee/tee/tsee_sm_gate.S:18
50002024:	e24ee004 	sub	lr, lr, #4
/home/liwenhaosuper/data/trustkernel/tsee/tsee/tsee/tee/tsee_sm_gate.S:19
50002028:	e92d5fff 	push	{r0, r1, r2, r3, r4, r5, r6, r7, r8, r9, sl, fp, ip, lr}
/home/liwenhaosuper/data/trustkernel/tsee/tsee/tsee/tee/tsee_sm_gate.S:20
5000202c:	e14f2000 	mrs	r2, SPSR
/home/liwenhaosuper/data/trustkernel/tsee/tsee/tsee/tee/tsee_sm_gate.S:21
50002030:	e52d2004 	push	{r2}		; (str r2, [sp, #-4]!)
/home/liwenhaosuper/data/trustkernel/tsee/tsee/tsee/tee/tsee_sm_gate.S:22
50002034:	e52de004 	push	{lr}		; (str lr, [sp, #-4]!)
/home/liwenhaosuper/data/trustkernel/tsee/tsee/tsee/tee/tsee_sm_gate.S:23
50002038:	e94d6000 	stmdb	sp, {sp, lr}^
/home/liwenhaosuper/data/trustkernel/tsee/tsee/tsee/tee/tsee_sm_gate.S:24
5000203c:	e24dd008 	sub	sp, sp, #8
/home/liwenhaosuper/data/trustkernel/tsee/tsee/tsee/tee/tsee_sm_gate.S:26
50002040:	e1a0000d 	mov	r0, sp
/home/liwenhaosuper/data/trustkernel/tsee/tsee/tsee/tee/tsee_sm_gate.S:27
50002044:	eb00111e 	bl	500064c4 <iabort_handler>
/home/liwenhaosuper/data/trustkernel/tsee/tsee/tsee/tee/tsee_sm_gate.S:28
50002048:	eafffffe 	b	50002048 <trap_iabort+0x28>

5000204c <trap_dabort>:
trap_dabort():
/home/liwenhaosuper/data/trustkernel/tsee/tsee/tsee/tee/tsee_sm_gate.S:31
5000204c:	e59fd024 	ldr	sp, [pc, #36]	; 50002078 <trap_dabort+0x2c>
/home/liwenhaosuper/data/trustkernel/tsee/tsee/tsee/tee/tsee_sm_gate.S:32
50002050:	e24ee008 	sub	lr, lr, #8
/home/liwenhaosuper/data/trustkernel/tsee/tsee/tsee/tee/tsee_sm_gate.S:33
50002054:	e92d5fff 	push	{r0, r1, r2, r3, r4, r5, r6, r7, r8, r9, sl, fp, ip, lr}
/home/liwenhaosuper/data/trustkernel/tsee/tsee/tsee/tee/tsee_sm_gate.S:34
50002058:	e14f2000 	mrs	r2, SPSR
/home/liwenhaosuper/data/trustkernel/tsee/tsee/tsee/tee/tsee_sm_gate.S:35
5000205c:	e52d2004 	push	{r2}		; (str r2, [sp, #-4]!)
/home/liwenhaosuper/data/trustkernel/tsee/tsee/tsee/tee/tsee_sm_gate.S:36
50002060:	e52de004 	push	{lr}		; (str lr, [sp, #-4]!)
/home/liwenhaosuper/data/trustkernel/tsee/tsee/tsee/tee/tsee_sm_gate.S:37
50002064:	e94d6000 	stmdb	sp, {sp, lr}^
/home/liwenhaosuper/data/trustkernel/tsee/tsee/tsee/tee/tsee_sm_gate.S:38
50002068:	e24dd008 	sub	sp, sp, #8
/home/liwenhaosuper/data/trustkernel/tsee/tsee/tsee/tee/tsee_sm_gate.S:40
5000206c:	e1a0000d 	mov	r0, sp
/home/liwenhaosuper/data/trustkernel/tsee/tsee/tsee/tee/tsee_sm_gate.S:41
50002070:	eb0010d8 	bl	500063d8 <dabort_handler>
/home/liwenhaosuper/data/trustkernel/tsee/tsee/tsee/tee/tsee_sm_gate.S:42
50002074:	eafffffe 	b	50002074 <trap_dabort+0x28>
50002078:	50013000 	.word	0x50013000
5000207c:	e320f000 	nop	{0}

50002080 <console_init>:
console_init():
/home/liwenhaosuper/data/trustkernel/tsee/tsee/boot/plat-exynos4412/setup.c:21
50002080:	e92d4800 	push	{fp, lr}
50002084:	e28db004 	add	fp, sp, #4
/home/liwenhaosuper/data/trustkernel/tsee/tsee/boot/plat-exynos4412/setup.c:22
50002088:	e3a00000 	mov	r0, #0
5000208c:	e3410382 	movt	r0, #4994	; 0x1382
50002090:	e3023260 	movw	r3, #8800	; 0x2260
50002094:	e3453000 	movt	r3, #20480	; 0x5000
50002098:	e12fff33 	blx	r3
/home/liwenhaosuper/data/trustkernel/tsee/tsee/boot/plat-exynos4412/setup.c:23
5000209c:	e3090538 	movw	r0, #38200	; 0x9538
500020a0:	e3450000 	movt	r0, #20480	; 0x5000
500020a4:	e3023338 	movw	r3, #9016	; 0x2338
500020a8:	e3453000 	movt	r3, #20480	; 0x5000
500020ac:	e12fff33 	blx	r3
/home/liwenhaosuper/data/trustkernel/tsee/tsee/boot/plat-exynos4412/setup.c:24
500020b0:	e8bd8800 	pop	{fp, pc}

500020b4 <console_putc>:
console_putc():
/home/liwenhaosuper/data/trustkernel/tsee/tsee/boot/plat-exynos4412/setup.c:27
500020b4:	e92d4800 	push	{fp, lr}
500020b8:	e28db004 	add	fp, sp, #4
500020bc:	e24dd008 	sub	sp, sp, #8
500020c0:	e50b0008 	str	r0, [fp, #-8]
/home/liwenhaosuper/data/trustkernel/tsee/tsee/boot/plat-exynos4412/setup.c:28
500020c4:	e51b0008 	ldr	r0, [fp, #-8]
500020c8:	e30232e4 	movw	r3, #8932	; 0x22e4
500020cc:	e3453000 	movt	r3, #20480	; 0x5000
500020d0:	e12fff33 	blx	r3
/home/liwenhaosuper/data/trustkernel/tsee/tsee/boot/plat-exynos4412/setup.c:29
500020d4:	e51b3008 	ldr	r3, [fp, #-8]
500020d8:	e353000a 	cmp	r3, #10
500020dc:	1a000003 	bne	500020f0 <console_putc+0x3c>
/home/liwenhaosuper/data/trustkernel/tsee/tsee/boot/plat-exynos4412/setup.c:30
500020e0:	e3a0000d 	mov	r0, #13
500020e4:	e30232e4 	movw	r3, #8932	; 0x22e4
500020e8:	e3453000 	movt	r3, #20480	; 0x5000
500020ec:	e12fff33 	blx	r3
/home/liwenhaosuper/data/trustkernel/tsee/tsee/boot/plat-exynos4412/setup.c:31
500020f0:	e24bd004 	sub	sp, fp, #4
500020f4:	e8bd8800 	pop	{fp, pc}

500020f8 <console_flush>:
console_flush():
/home/liwenhaosuper/data/trustkernel/tsee/tsee/boot/plat-exynos4412/setup.c:34
500020f8:	e52db004 	push	{fp}		; (str fp, [sp, #-4]!)
500020fc:	e28db000 	add	fp, sp, #0
/home/liwenhaosuper/data/trustkernel/tsee/tsee/boot/plat-exynos4412/setup.c:36
50002100:	e28bd000 	add	sp, fp, #0
50002104:	e49db004 	pop	{fp}		; (ldr fp, [sp], #4)
50002108:	e12fff1e 	bx	lr

5000210c <uart_enable_rx>:
uart_enable_rx():
/home/liwenhaosuper/data/trustkernel/tsee/tsee/boot/plat-exynos4412/exynos4412_uart.c:65
5000210c:	e52db004 	push	{fp}		; (str fp, [sp, #-4]!)
50002110:	e28db000 	add	fp, sp, #0
50002114:	e24dd00c 	sub	sp, sp, #12
/home/liwenhaosuper/data/trustkernel/tsee/tsee/boot/plat-exynos4412/exynos4412_uart.c:67
50002118:	e30c3000 	movw	r3, #49152	; 0xc000
5000211c:	e3453000 	movt	r3, #20480	; 0x5000
50002120:	e5933000 	ldr	r3, [r3]
50002124:	e50b3008 	str	r3, [fp, #-8]
/home/liwenhaosuper/data/trustkernel/tsee/tsee/boot/plat-exynos4412/exynos4412_uart.c:69
50002128:	e51b3008 	ldr	r3, [fp, #-8]
5000212c:	e3a0200e 	mov	r2, #14
50002130:	e5832038 	str	r2, [r3, #56]	; 0x38
/home/liwenhaosuper/data/trustkernel/tsee/tsee/boot/plat-exynos4412/exynos4412_uart.c:70
50002134:	e51b3008 	ldr	r3, [fp, #-8]
50002138:	e3a0200f 	mov	r2, #15
5000213c:	e5832030 	str	r2, [r3, #48]	; 0x30
/home/liwenhaosuper/data/trustkernel/tsee/tsee/boot/plat-exynos4412/exynos4412_uart.c:71
50002140:	e51b3008 	ldr	r3, [fp, #-8]
50002144:	e3a02008 	mov	r2, #8
50002148:	e583200c 	str	r2, [r3, #12]
/home/liwenhaosuper/data/trustkernel/tsee/tsee/boot/plat-exynos4412/exynos4412_uart.c:72
5000214c:	e51b3008 	ldr	r3, [fp, #-8]
50002150:	e5933004 	ldr	r3, [r3, #4]
50002154:	e3833c01 	orr	r3, r3, #256	; 0x100
50002158:	e3833001 	orr	r3, r3, #1
5000215c:	e51b2008 	ldr	r2, [fp, #-8]
50002160:	e5823004 	str	r3, [r2, #4]
/home/liwenhaosuper/data/trustkernel/tsee/tsee/boot/plat-exynos4412/exynos4412_uart.c:73
50002164:	e28bd000 	add	sp, fp, #0
50002168:	e49db004 	pop	{fp}		; (ldr fp, [sp], #4)
5000216c:	e12fff1e 	bx	lr

50002170 <uartgetc>:
uartgetc():
/home/liwenhaosuper/data/trustkernel/tsee/tsee/boot/plat-exynos4412/exynos4412_uart.c:77
50002170:	e52db004 	push	{fp}		; (str fp, [sp, #-4]!)
50002174:	e28db000 	add	fp, sp, #0
50002178:	e24dd00c 	sub	sp, sp, #12
/home/liwenhaosuper/data/trustkernel/tsee/tsee/boot/plat-exynos4412/exynos4412_uart.c:79
5000217c:	e30c3000 	movw	r3, #49152	; 0xc000
50002180:	e3453000 	movt	r3, #20480	; 0x5000
50002184:	e5933000 	ldr	r3, [r3]
50002188:	e50b3008 	str	r3, [fp, #-8]
/home/liwenhaosuper/data/trustkernel/tsee/tsee/boot/plat-exynos4412/exynos4412_uart.c:81
5000218c:	e51b3008 	ldr	r3, [fp, #-8]
50002190:	e5933018 	ldr	r3, [r3, #24]
50002194:	e2033c01 	and	r3, r3, #256	; 0x100
50002198:	e3530000 	cmp	r3, #0
5000219c:	1a000004 	bne	500021b4 <uartgetc+0x44>
500021a0:	e51b3008 	ldr	r3, [fp, #-8]
500021a4:	e5933018 	ldr	r3, [r3, #24]
500021a8:	e20330ff 	and	r3, r3, #255	; 0xff
500021ac:	e3530000 	cmp	r3, #0
500021b0:	0a000003 	beq	500021c4 <uartgetc+0x54>
/home/liwenhaosuper/data/trustkernel/tsee/tsee/boot/plat-exynos4412/exynos4412_uart.c:82
500021b4:	e51b3008 	ldr	r3, [fp, #-8]
500021b8:	e5d33024 	ldrb	r3, [r3, #36]	; 0x24
500021bc:	e6ef3073 	uxtb	r3, r3
500021c0:	ea000000 	b	500021c8 <uartgetc+0x58>
/home/liwenhaosuper/data/trustkernel/tsee/tsee/boot/plat-exynos4412/exynos4412_uart.c:84
500021c4:	e3e03000 	mvn	r3, #0
/home/liwenhaosuper/data/trustkernel/tsee/tsee/boot/plat-exynos4412/exynos4412_uart.c:85
500021c8:	e1a00003 	mov	r0, r3
500021cc:	e28bd000 	add	sp, fp, #0
500021d0:	e49db004 	pop	{fp}		; (ldr fp, [sp], #4)
500021d4:	e12fff1e 	bx	lr

500021d8 <isr_uart>:
isr_uart():
/home/liwenhaosuper/data/trustkernel/tsee/tsee/boot/plat-exynos4412/exynos4412_uart.c:87
500021d8:	e92d4800 	push	{fp, lr}
500021dc:	e28db004 	add	fp, sp, #4
500021e0:	e24dd018 	sub	sp, sp, #24
500021e4:	e50b0010 	str	r0, [fp, #-16]
/home/liwenhaosuper/data/trustkernel/tsee/tsee/boot/plat-exynos4412/exynos4412_uart.c:92
500021e8:	e30c3000 	movw	r3, #49152	; 0xc000
500021ec:	e3453000 	movt	r3, #20480	; 0x5000
500021f0:	e5933000 	ldr	r3, [r3]
500021f4:	e50b3008 	str	r3, [fp, #-8]
/home/liwenhaosuper/data/trustkernel/tsee/tsee/boot/plat-exynos4412/exynos4412_uart.c:93
500021f8:	e51b3008 	ldr	r3, [fp, #-8]
500021fc:	e5933018 	ldr	r3, [r3, #24]
50002200:	e2033c01 	and	r3, r3, #256	; 0x100
50002204:	e3530000 	cmp	r3, #0
50002208:	1a000004 	bne	50002220 <isr_uart+0x48>
5000220c:	e51b3008 	ldr	r3, [fp, #-8]
50002210:	e5933018 	ldr	r3, [r3, #24]
50002214:	e20330ff 	and	r3, r3, #255	; 0xff
50002218:	e3530000 	cmp	r3, #0
5000221c:	0a00000a 	beq	5000224c <isr_uart+0x74>
/home/liwenhaosuper/data/trustkernel/tsee/tsee/boot/plat-exynos4412/exynos4412_uart.c:95
50002220:	e3093548 	movw	r3, #38216	; 0x9548
50002224:	e3453000 	movt	r3, #20480	; 0x5000
50002228:	e58d3000 	str	r3, [sp]
5000222c:	e3090558 	movw	r0, #38232	; 0x9558
50002230:	e3450000 	movt	r0, #20480	; 0x5000
50002234:	e3a0105f 	mov	r1, #95	; 0x5f
50002238:	e3a02001 	mov	r2, #1
5000223c:	e3a03001 	mov	r3, #1
50002240:	e306cc80 	movw	ip, #27776	; 0x6c80
50002244:	e345c000 	movt	ip, #20480	; 0x5000
50002248:	e12fff3c 	blx	ip
/home/liwenhaosuper/data/trustkernel/tsee/tsee/boot/plat-exynos4412/exynos4412_uart.c:98
5000224c:	e51b3008 	ldr	r3, [fp, #-8]
50002250:	e3a0200f 	mov	r2, #15
50002254:	e5832030 	str	r2, [r3, #48]	; 0x30
/home/liwenhaosuper/data/trustkernel/tsee/tsee/boot/plat-exynos4412/exynos4412_uart.c:99
50002258:	e24bd004 	sub	sp, fp, #4
5000225c:	e8bd8800 	pop	{fp, pc}

50002260 <uart_init>:
uart_init():
/home/liwenhaosuper/data/trustkernel/tsee/tsee/boot/plat-exynos4412/exynos4412_uart.c:102
50002260:	e52db004 	push	{fp}		; (str fp, [sp, #-4]!)
50002264:	e28db000 	add	fp, sp, #0
50002268:	e24dd014 	sub	sp, sp, #20
5000226c:	e50b0010 	str	r0, [fp, #-16]
/home/liwenhaosuper/data/trustkernel/tsee/tsee/boot/plat-exynos4412/exynos4412_uart.c:104
50002270:	e51b2010 	ldr	r2, [fp, #-16]
50002274:	e30c3000 	movw	r3, #49152	; 0xc000
50002278:	e3453000 	movt	r3, #20480	; 0x5000
5000227c:	e5832000 	str	r2, [r3]
/home/liwenhaosuper/data/trustkernel/tsee/tsee/boot/plat-exynos4412/exynos4412_uart.c:105
50002280:	e30c3000 	movw	r3, #49152	; 0xc000
50002284:	e3453000 	movt	r3, #20480	; 0x5000
50002288:	e5933000 	ldr	r3, [r3]
5000228c:	e50b3008 	str	r3, [fp, #-8]
/home/liwenhaosuper/data/trustkernel/tsee/tsee/boot/plat-exynos4412/exynos4412_uart.c:108
50002290:	e51b3008 	ldr	r3, [fp, #-8]
50002294:	e3002111 	movw	r2, #273	; 0x111
50002298:	e5832008 	str	r2, [r3, #8]
/home/liwenhaosuper/data/trustkernel/tsee/tsee/boot/plat-exynos4412/exynos4412_uart.c:110
5000229c:	e51b3008 	ldr	r3, [fp, #-8]
500022a0:	e3a02000 	mov	r2, #0
500022a4:	e583200c 	str	r2, [r3, #12]
/home/liwenhaosuper/data/trustkernel/tsee/tsee/boot/plat-exynos4412/exynos4412_uart.c:112
500022a8:	e51b3008 	ldr	r3, [fp, #-8]
500022ac:	e3a02003 	mov	r2, #3
500022b0:	e5832000 	str	r2, [r3]
/home/liwenhaosuper/data/trustkernel/tsee/tsee/boot/plat-exynos4412/exynos4412_uart.c:114
500022b4:	e51b3008 	ldr	r3, [fp, #-8]
500022b8:	e30023c5 	movw	r2, #965	; 0x3c5
500022bc:	e5832004 	str	r2, [r3, #4]
/home/liwenhaosuper/data/trustkernel/tsee/tsee/boot/plat-exynos4412/exynos4412_uart.c:116
500022c0:	e51b3008 	ldr	r3, [fp, #-8]
500022c4:	e3a02035 	mov	r2, #53	; 0x35
500022c8:	e5832028 	str	r2, [r3, #40]	; 0x28
/home/liwenhaosuper/data/trustkernel/tsee/tsee/boot/plat-exynos4412/exynos4412_uart.c:117
500022cc:	e51b3008 	ldr	r3, [fp, #-8]
500022d0:	e3a02004 	mov	r2, #4
500022d4:	e583202c 	str	r2, [r3, #44]	; 0x2c
/home/liwenhaosuper/data/trustkernel/tsee/tsee/boot/plat-exynos4412/exynos4412_uart.c:137
500022d8:	e28bd000 	add	sp, fp, #0
500022dc:	e49db004 	pop	{fp}		; (ldr fp, [sp], #4)
500022e0:	e12fff1e 	bx	lr

500022e4 <uartputc>:
uartputc():
/home/liwenhaosuper/data/trustkernel/tsee/tsee/boot/plat-exynos4412/exynos4412_uart.c:139
500022e4:	e52db004 	push	{fp}		; (str fp, [sp, #-4]!)
500022e8:	e28db000 	add	fp, sp, #0
500022ec:	e24dd014 	sub	sp, sp, #20
500022f0:	e50b0010 	str	r0, [fp, #-16]
/home/liwenhaosuper/data/trustkernel/tsee/tsee/boot/plat-exynos4412/exynos4412_uart.c:141
500022f4:	e30c3000 	movw	r3, #49152	; 0xc000
500022f8:	e3453000 	movt	r3, #20480	; 0x5000
500022fc:	e5933000 	ldr	r3, [r3]
50002300:	e50b3008 	str	r3, [fp, #-8]
/home/liwenhaosuper/data/trustkernel/tsee/tsee/boot/plat-exynos4412/exynos4412_uart.c:142
50002304:	e1a00000 	nop			; (mov r0, r0)
50002308:	e51b3008 	ldr	r3, [fp, #-8]
5000230c:	e5933010 	ldr	r3, [r3, #16]
50002310:	e2033002 	and	r3, r3, #2
50002314:	e3530000 	cmp	r3, #0
50002318:	0afffffa 	beq	50002308 <uartputc+0x24>
/home/liwenhaosuper/data/trustkernel/tsee/tsee/boot/plat-exynos4412/exynos4412_uart.c:143
5000231c:	e51b3010 	ldr	r3, [fp, #-16]
50002320:	e6ef2073 	uxtb	r2, r3
50002324:	e51b3008 	ldr	r3, [fp, #-8]
50002328:	e5c32020 	strb	r2, [r3, #32]
/home/liwenhaosuper/data/trustkernel/tsee/tsee/boot/plat-exynos4412/exynos4412_uart.c:144
5000232c:	e28bd000 	add	sp, fp, #0
50002330:	e49db004 	pop	{fp}		; (ldr fp, [sp], #4)
50002334:	e12fff1e 	bx	lr

50002338 <uart_puts>:
uart_puts():
/home/liwenhaosuper/data/trustkernel/tsee/tsee/boot/plat-exynos4412/exynos4412_uart.c:146
50002338:	e92d4800 	push	{fp, lr}
5000233c:	e28db004 	add	fp, sp, #4
50002340:	e24dd010 	sub	sp, sp, #16
50002344:	e50b0010 	str	r0, [fp, #-16]
/home/liwenhaosuper/data/trustkernel/tsee/tsee/boot/plat-exynos4412/exynos4412_uart.c:147
50002348:	e3a03000 	mov	r3, #0
5000234c:	e50b3008 	str	r3, [fp, #-8]
/home/liwenhaosuper/data/trustkernel/tsee/tsee/boot/plat-exynos4412/exynos4412_uart.c:148
50002350:	ea00000a 	b	50002380 <uart_puts+0x48>
/home/liwenhaosuper/data/trustkernel/tsee/tsee/boot/plat-exynos4412/exynos4412_uart.c:149
50002354:	e51b3008 	ldr	r3, [fp, #-8]
50002358:	e51b2010 	ldr	r2, [fp, #-16]
5000235c:	e0823003 	add	r3, r2, r3
50002360:	e5d33000 	ldrb	r3, [r3]
50002364:	e1a00003 	mov	r0, r3
50002368:	e30232e4 	movw	r3, #8932	; 0x22e4
5000236c:	e3453000 	movt	r3, #20480	; 0x5000
50002370:	e12fff33 	blx	r3
/home/liwenhaosuper/data/trustkernel/tsee/tsee/boot/plat-exynos4412/exynos4412_uart.c:150
50002374:	e51b3008 	ldr	r3, [fp, #-8]
50002378:	e2833001 	add	r3, r3, #1
5000237c:	e50b3008 	str	r3, [fp, #-8]
/home/liwenhaosuper/data/trustkernel/tsee/tsee/boot/plat-exynos4412/exynos4412_uart.c:148
50002380:	e51b3008 	ldr	r3, [fp, #-8]
50002384:	e51b2010 	ldr	r2, [fp, #-16]
50002388:	e0823003 	add	r3, r2, r3
5000238c:	e5d33000 	ldrb	r3, [r3]
50002390:	e3530000 	cmp	r3, #0
50002394:	1affffee 	bne	50002354 <uart_puts+0x1c>
/home/liwenhaosuper/data/trustkernel/tsee/tsee/boot/plat-exynos4412/exynos4412_uart.c:152
50002398:	e24bd004 	sub	sp, fp, #4
5000239c:	e8bd8800 	pop	{fp, pc}

500023a0 <trace_ext_puts>:
trace_ext_puts():
/home/liwenhaosuper/data/trustkernel/tsee/tsee/boot/tee/trace_ext.c:21
500023a0:	e92d4800 	push	{fp, lr}
500023a4:	e28db004 	add	fp, sp, #4
500023a8:	e24dd010 	sub	sp, sp, #16
500023ac:	e50b0010 	str	r0, [fp, #-16]
/home/liwenhaosuper/data/trustkernel/tsee/tsee/boot/tee/trace_ext.c:24
500023b0:	e30230f8 	movw	r3, #8440	; 0x20f8
500023b4:	e3453000 	movt	r3, #20480	; 0x5000
500023b8:	e12fff33 	blx	r3
/home/liwenhaosuper/data/trustkernel/tsee/tsee/boot/tee/trace_ext.c:26
500023bc:	e51b3010 	ldr	r3, [fp, #-16]
500023c0:	e50b3008 	str	r3, [fp, #-8]
500023c4:	ea000008 	b	500023ec <trace_ext_puts+0x4c>
/home/liwenhaosuper/data/trustkernel/tsee/tsee/boot/tee/trace_ext.c:27
500023c8:	e51b3008 	ldr	r3, [fp, #-8]
500023cc:	e5d33000 	ldrb	r3, [r3]
500023d0:	e1a00003 	mov	r0, r3
500023d4:	e30230b4 	movw	r3, #8372	; 0x20b4
500023d8:	e3453000 	movt	r3, #20480	; 0x5000
500023dc:	e12fff33 	blx	r3
/home/liwenhaosuper/data/trustkernel/tsee/tsee/boot/tee/trace_ext.c:26
500023e0:	e51b3008 	ldr	r3, [fp, #-8]
500023e4:	e2833001 	add	r3, r3, #1
500023e8:	e50b3008 	str	r3, [fp, #-8]
500023ec:	e51b3008 	ldr	r3, [fp, #-8]
500023f0:	e5d33000 	ldrb	r3, [r3]
500023f4:	e3530000 	cmp	r3, #0
500023f8:	1afffff2 	bne	500023c8 <trace_ext_puts+0x28>
/home/liwenhaosuper/data/trustkernel/tsee/tsee/boot/tee/trace_ext.c:30
500023fc:	e30230f8 	movw	r3, #8440	; 0x20f8
50002400:	e3453000 	movt	r3, #20480	; 0x5000
50002404:	e12fff33 	blx	r3
/home/liwenhaosuper/data/trustkernel/tsee/tsee/boot/tee/trace_ext.c:31
50002408:	e24bd004 	sub	sp, fp, #4
5000240c:	e8bd8800 	pop	{fp, pc}

50002410 <trace_ext_get_thread_id>:
trace_ext_get_thread_id():
/home/liwenhaosuper/data/trustkernel/tsee/tsee/boot/tee/trace_ext.c:34
50002410:	e52db004 	push	{fp}		; (str fp, [sp, #-4]!)
50002414:	e28db000 	add	fp, sp, #0
/home/liwenhaosuper/data/trustkernel/tsee/tsee/boot/tee/trace_ext.c:35
50002418:	e3e03000 	mvn	r3, #0
/home/liwenhaosuper/data/trustkernel/tsee/tsee/boot/tee/trace_ext.c:36
5000241c:	e1a00003 	mov	r0, r3
50002420:	e28bd000 	add	sp, fp, #0
50002424:	e49db004 	pop	{fp}		; (ldr fp, [sp], #4)
50002428:	e12fff1e 	bx	lr

5000242c <set_bootpgtbl>:
set_bootpgtbl():
5000242c:	e52db004 	push	{fp}		; (str fp, [sp, #-4]!)
50002430:	e28db000 	add	fp, sp, #0
50002434:	e24dd01c 	sub	sp, sp, #28
50002438:	e50b0010 	str	r0, [fp, #-16]
5000243c:	e50b1014 	str	r1, [fp, #-20]	; 0xffffffec
50002440:	e50b2018 	str	r2, [fp, #-24]	; 0xffffffe8
50002444:	e50b301c 	str	r3, [fp, #-28]	; 0xffffffe4
/home/liwenhaosuper/data/trustkernel/tsee/tsee/boot/tee/start.c:41
50002448:	e51b3010 	ldr	r3, [fp, #-16]
5000244c:	e1a03a23 	lsr	r3, r3, #20
50002450:	e50b3010 	str	r3, [fp, #-16]
/home/liwenhaosuper/data/trustkernel/tsee/tsee/boot/tee/start.c:42
50002454:	e51b3014 	ldr	r3, [fp, #-20]	; 0xffffffec
50002458:	e1a03a23 	lsr	r3, r3, #20
5000245c:	e50b3014 	str	r3, [fp, #-20]	; 0xffffffec
/home/liwenhaosuper/data/trustkernel/tsee/tsee/boot/tee/start.c:43
50002460:	e51b3018 	ldr	r3, [fp, #-24]	; 0xffffffe8
50002464:	e1a03a23 	lsr	r3, r3, #20
50002468:	e50b3018 	str	r3, [fp, #-24]	; 0xffffffe8
/home/liwenhaosuper/data/trustkernel/tsee/tsee/boot/tee/start.c:45
5000246c:	e3a03000 	mov	r3, #0
50002470:	e50b300c 	str	r3, [fp, #-12]
50002474:	ea00001f 	b	500024f8 <set_bootpgtbl+0xcc>
/home/liwenhaosuper/data/trustkernel/tsee/tsee/boot/tee/start.c:46
50002478:	e51b3014 	ldr	r3, [fp, #-20]	; 0xffffffec
5000247c:	e1a03a03 	lsl	r3, r3, #20
50002480:	e50b3008 	str	r3, [fp, #-8]
/home/liwenhaosuper/data/trustkernel/tsee/tsee/boot/tee/start.c:48
50002484:	e51b301c 	ldr	r3, [fp, #-28]	; 0xffffffe4
50002488:	e3530000 	cmp	r3, #0
5000248c:	1a000004 	bne	500024a4 <set_bootpgtbl+0x78>
/home/liwenhaosuper/data/trustkernel/tsee/tsee/boot/tee/start.c:50
50002490:	e51b3008 	ldr	r3, [fp, #-8]
50002494:	e3833b01 	orr	r3, r3, #1024	; 0x400
50002498:	e383300e 	orr	r3, r3, #14
5000249c:	e50b3008 	str	r3, [fp, #-8]
500024a0:	ea000003 	b	500024b4 <set_bootpgtbl+0x88>
/home/liwenhaosuper/data/trustkernel/tsee/tsee/boot/tee/start.c:53
500024a4:	e51b3008 	ldr	r3, [fp, #-8]
500024a8:	e3833b01 	orr	r3, r3, #1024	; 0x400
500024ac:	e3833002 	orr	r3, r3, #2
500024b0:	e50b3008 	str	r3, [fp, #-8]
/home/liwenhaosuper/data/trustkernel/tsee/tsee/boot/tee/start.c:56
500024b4:	e30c3014 	movw	r3, #49172	; 0xc014
500024b8:	e3453000 	movt	r3, #20480	; 0x5000
500024bc:	e5932000 	ldr	r2, [r3]
500024c0:	e51b3010 	ldr	r3, [fp, #-16]
500024c4:	e1a03103 	lsl	r3, r3, #2
500024c8:	e0823003 	add	r3, r2, r3
500024cc:	e51b2008 	ldr	r2, [fp, #-8]
500024d0:	e5832000 	str	r2, [r3]
/home/liwenhaosuper/data/trustkernel/tsee/tsee/boot/tee/start.c:58
500024d4:	e51b3010 	ldr	r3, [fp, #-16]
500024d8:	e2833001 	add	r3, r3, #1
500024dc:	e50b3010 	str	r3, [fp, #-16]
/home/liwenhaosuper/data/trustkernel/tsee/tsee/boot/tee/start.c:59
500024e0:	e51b3014 	ldr	r3, [fp, #-20]	; 0xffffffec
500024e4:	e2833001 	add	r3, r3, #1
500024e8:	e50b3014 	str	r3, [fp, #-20]	; 0xffffffec
/home/liwenhaosuper/data/trustkernel/tsee/tsee/boot/tee/start.c:45
500024ec:	e51b300c 	ldr	r3, [fp, #-12]
500024f0:	e2833001 	add	r3, r3, #1
500024f4:	e50b300c 	str	r3, [fp, #-12]
500024f8:	e51b200c 	ldr	r2, [fp, #-12]
500024fc:	e51b3018 	ldr	r3, [fp, #-24]	; 0xffffffe8
50002500:	e1520003 	cmp	r2, r3
50002504:	3affffdb 	bcc	50002478 <set_bootpgtbl+0x4c>
/home/liwenhaosuper/data/trustkernel/tsee/tsee/boot/tee/start.c:61
50002508:	e28bd000 	add	sp, fp, #0
5000250c:	e49db004 	pop	{fp}		; (ldr fp, [sp], #4)
50002510:	e12fff1e 	bx	lr

50002514 <load_pgtlb>:
load_pgtlb():
/home/liwenhaosuper/data/trustkernel/tsee/tsee/boot/tee/start.c:63
50002514:	e92d4810 	push	{r4, fp, lr}
50002518:	e28db008 	add	fp, sp, #8
5000251c:	e24dd014 	sub	sp, sp, #20
50002520:	e50b0018 	str	r0, [fp, #-24]	; 0xffffffe8
/home/liwenhaosuper/data/trustkernel/tsee/tsee/boot/tee/start.c:69
50002524:	e3a03000 	mov	r3, #0
50002528:	e50b3010 	str	r3, [fp, #-16]
/home/liwenhaosuper/data/trustkernel/tsee/tsee/boot/tee/start.c:70
5000252c:	f57ff05f 	dmb	sy
/home/liwenhaosuper/data/trustkernel/tsee/tsee/boot/tee/start.c:71
50002530:	e51b3010 	ldr	r3, [fp, #-16]
50002534:	ee073f15 	mcr	15, 0, r3, cr7, cr5, {0}
/home/liwenhaosuper/data/trustkernel/tsee/tsee/boot/tee/start.c:73
50002538:	e3003110 	movw	r3, #272	; 0x110
5000253c:	e3453000 	movt	r3, #20480	; 0x5000
50002540:	e12fff33 	blx	r3
/home/liwenhaosuper/data/trustkernel/tsee/tsee/boot/tee/start.c:74
50002544:	e3003124 	movw	r3, #292	; 0x124
50002548:	e3453000 	movt	r3, #20480	; 0x5000
5000254c:	e12fff33 	blx	r3
/home/liwenhaosuper/data/trustkernel/tsee/tsee/boot/tee/start.c:75
50002550:	f57ff05f 	dmb	sy
/home/liwenhaosuper/data/trustkernel/tsee/tsee/boot/tee/start.c:76
50002554:	f57ff06f 	isb	sy
/home/liwenhaosuper/data/trustkernel/tsee/tsee/boot/tee/start.c:79
50002558:	e3053555 	movw	r3, #21845	; 0x5555
5000255c:	e3453555 	movt	r3, #21845	; 0x5555
50002560:	e50b3010 	str	r3, [fp, #-16]
/home/liwenhaosuper/data/trustkernel/tsee/tsee/boot/tee/start.c:80
50002564:	e51b3010 	ldr	r3, [fp, #-16]
50002568:	ee033f10 	mcr	15, 0, r3, cr3, cr0, {0}
/home/liwenhaosuper/data/trustkernel/tsee/tsee/boot/tee/start.c:86
5000256c:	e3a03000 	mov	r3, #0
50002570:	e50b3010 	str	r3, [fp, #-16]
/home/liwenhaosuper/data/trustkernel/tsee/tsee/boot/tee/start.c:87
50002574:	e51b3010 	ldr	r3, [fp, #-16]
50002578:	ee023f50 	mcr	15, 0, r3, cr2, cr0, {2}
/home/liwenhaosuper/data/trustkernel/tsee/tsee/boot/tee/start.c:90
5000257c:	e51b3018 	ldr	r3, [fp, #-24]	; 0xffffffe8
50002580:	e50b3010 	str	r3, [fp, #-16]
/home/liwenhaosuper/data/trustkernel/tsee/tsee/boot/tee/start.c:91
50002584:	e51b3010 	ldr	r3, [fp, #-16]
50002588:	ee023f10 	mcr	15, 0, r3, cr2, cr0, {0}
/home/liwenhaosuper/data/trustkernel/tsee/tsee/boot/tee/start.c:94
5000258c:	ee114f10 	mrc	15, 0, r4, cr1, cr0, {0}
50002590:	e50b4010 	str	r4, [fp, #-16]
/home/liwenhaosuper/data/trustkernel/tsee/tsee/boot/tee/start.c:96
50002594:	e51b3010 	ldr	r3, [fp, #-16]
50002598:	e3833001 	orr	r3, r3, #1
5000259c:	e50b3010 	str	r3, [fp, #-16]
/home/liwenhaosuper/data/trustkernel/tsee/tsee/boot/tee/start.c:102
500025a0:	e51b3010 	ldr	r3, [fp, #-16]
500025a4:	ee013f10 	mcr	15, 0, r3, cr1, cr0, {0}
/home/liwenhaosuper/data/trustkernel/tsee/tsee/boot/tee/start.c:103
500025a8:	e24bd008 	sub	sp, fp, #8
500025ac:	e8bd8810 	pop	{r4, fp, pc}

500025b0 <start_secondary>:
start_secondary():
/home/liwenhaosuper/data/trustkernel/tsee/tsee/boot/tee/start.c:105
500025b0:	e92d4800 	push	{fp, lr}
500025b4:	e28db004 	add	fp, sp, #4
500025b8:	e24dd010 	sub	sp, sp, #16
/home/liwenhaosuper/data/trustkernel/tsee/tsee/boot/tee/start.c:107
500025bc:	e3093578 	movw	r3, #38264	; 0x9578
500025c0:	e3453000 	movt	r3, #20480	; 0x5000
500025c4:	e58d3000 	str	r3, [sp]
500025c8:	e3090610 	movw	r0, #38416	; 0x9610
500025cc:	e3450000 	movt	r0, #20480	; 0x5000
500025d0:	e3a0106b 	mov	r1, #107	; 0x6b
500025d4:	e3a02003 	mov	r2, #3
500025d8:	e3a03001 	mov	r3, #1
500025dc:	e306cc80 	movw	ip, #27776	; 0x6c80
500025e0:	e345c000 	movt	ip, #20480	; 0x5000
500025e4:	e12fff3c 	blx	ip
/home/liwenhaosuper/data/trustkernel/tsee/tsee/boot/tee/start.c:108
500025e8:	e30c3014 	movw	r3, #49172	; 0xc014
500025ec:	e3453000 	movt	r3, #20480	; 0x5000
500025f0:	e5933000 	ldr	r3, [r3]
500025f4:	e1a00003 	mov	r0, r3
500025f8:	e3023514 	movw	r3, #9492	; 0x2514
500025fc:	e3453000 	movt	r3, #20480	; 0x5000
50002600:	e12fff33 	blx	r3
/home/liwenhaosuper/data/trustkernel/tsee/tsee/boot/tee/start.c:109
50002604:	e3003000 	movw	r3, #0
50002608:	e3453010 	movt	r3, #20496	; 0x5010
5000260c:	e50b3008 	str	r3, [fp, #-8]
/home/liwenhaosuper/data/trustkernel/tsee/tsee/boot/tee/start.c:110
50002610:	e3093594 	movw	r3, #38292	; 0x9594
50002614:	e3453000 	movt	r3, #20480	; 0x5000
50002618:	e58d3000 	str	r3, [sp]
5000261c:	e3090610 	movw	r0, #38416	; 0x9610
50002620:	e3450000 	movt	r0, #20480	; 0x5000
50002624:	e3a0106e 	mov	r1, #110	; 0x6e
50002628:	e3a02003 	mov	r2, #3
5000262c:	e3a03001 	mov	r3, #1
50002630:	e306cc80 	movw	ip, #27776	; 0x6c80
50002634:	e345c000 	movt	ip, #20480	; 0x5000
50002638:	e12fff3c 	blx	ip
/home/liwenhaosuper/data/trustkernel/tsee/tsee/boot/tee/start.c:112
5000263c:	e51b3008 	ldr	r3, [fp, #-8]
50002640:	e3a00000 	mov	r0, #0
50002644:	e3a01000 	mov	r1, #0
50002648:	e3a02000 	mov	r2, #0
5000264c:	e12fff33 	blx	r3
/home/liwenhaosuper/data/trustkernel/tsee/tsee/boot/tee/start.c:113
50002650:	e24bd004 	sub	sp, fp, #4
50002654:	e8bd8800 	pop	{fp, pc}

50002658 <start>:
start():
/home/liwenhaosuper/data/trustkernel/tsee/tsee/boot/tee/start.c:117
50002658:	e92d4810 	push	{r4, fp, lr}
5000265c:	e28db008 	add	fp, sp, #8
50002660:	e24dd02c 	sub	sp, sp, #44	; 0x2c
/home/liwenhaosuper/data/trustkernel/tsee/tsee/boot/tee/start.c:121
50002664:	e30c0118 	movw	r0, #49432	; 0xc118
50002668:	e3450000 	movt	r0, #20480	; 0x5000
5000266c:	e3a01000 	mov	r1, #0
50002670:	e3a02064 	mov	r2, #100	; 0x64
50002674:	e306395c 	movw	r3, #26972	; 0x695c
50002678:	e3453000 	movt	r3, #20480	; 0x5000
5000267c:	e12fff33 	blx	r3
/home/liwenhaosuper/data/trustkernel/tsee/tsee/boot/tee/start.c:123
50002680:	e3042000 	movw	r2, #16384	; 0x4000
50002684:	e3452001 	movt	r2, #20481	; 0x5001
50002688:	e30c3118 	movw	r3, #49432	; 0xc118
5000268c:	e3453000 	movt	r3, #20480	; 0x5000
50002690:	e20210ff 	and	r1, r2, #255	; 0xff
50002694:	e3a00000 	mov	r0, #0
50002698:	e1801001 	orr	r1, r0, r1
5000269c:	e5c31048 	strb	r1, [r3, #72]	; 0x48
500026a0:	e1a01422 	lsr	r1, r2, #8
500026a4:	e20110ff 	and	r1, r1, #255	; 0xff
500026a8:	e3a00000 	mov	r0, #0
500026ac:	e1801001 	orr	r1, r0, r1
500026b0:	e5c31049 	strb	r1, [r3, #73]	; 0x49
500026b4:	e1a01822 	lsr	r1, r2, #16
500026b8:	e20110ff 	and	r1, r1, #255	; 0xff
500026bc:	e3a00000 	mov	r0, #0
500026c0:	e1801001 	orr	r1, r0, r1
500026c4:	e5c3104a 	strb	r1, [r3, #74]	; 0x4a
500026c8:	e1a02c22 	lsr	r2, r2, #24
500026cc:	e3a01000 	mov	r1, #0
500026d0:	e1812002 	orr	r2, r1, r2
500026d4:	e5c3204b 	strb	r2, [r3, #75]	; 0x4b
/home/liwenhaosuper/data/trustkernel/tsee/tsee/boot/tee/start.c:124
500026d8:	e30c3118 	movw	r3, #49432	; 0xc118
500026dc:	e3453000 	movt	r3, #20480	; 0x5000
500026e0:	e5d32048 	ldrb	r2, [r3, #72]	; 0x48
500026e4:	e5d31049 	ldrb	r1, [r3, #73]	; 0x49
500026e8:	e1a01401 	lsl	r1, r1, #8
500026ec:	e1812002 	orr	r2, r1, r2
500026f0:	e5d3104a 	ldrb	r1, [r3, #74]	; 0x4a
500026f4:	e1a01801 	lsl	r1, r1, #16
500026f8:	e1812002 	orr	r2, r1, r2
500026fc:	e5d3304b 	ldrb	r3, [r3, #75]	; 0x4b
50002700:	e1a03c03 	lsl	r3, r3, #24
50002704:	e1833002 	orr	r3, r3, r2
50002708:	e1a01003 	mov	r1, r3
5000270c:	e3042000 	movw	r2, #16384	; 0x4000
50002710:	e3452003 	movt	r2, #20483	; 0x5003
50002714:	e3043000 	movw	r3, #16384	; 0x4000
50002718:	e3453001 	movt	r3, #20481	; 0x5001
5000271c:	e0633002 	rsb	r3, r3, r2
50002720:	e1a03143 	asr	r3, r3, #2
50002724:	e1a00001 	mov	r0, r1
50002728:	e3a01000 	mov	r1, #0
5000272c:	e1a02003 	mov	r2, r3
50002730:	e306395c 	movw	r3, #26972	; 0x695c
50002734:	e3453000 	movt	r3, #20480	; 0x5000
50002738:	e12fff33 	blx	r3
/home/liwenhaosuper/data/trustkernel/tsee/tsee/boot/tee/start.c:127
5000273c:	e3a00401 	mov	r0, #16777216	; 0x1000000
50002740:	e3a01401 	mov	r1, #16777216	; 0x1000000
50002744:	e3a02302 	mov	r2, #134217728	; 0x8000000
50002748:	e3a03000 	mov	r3, #0
5000274c:	e302c42c 	movw	ip, #9260	; 0x242c
50002750:	e345c000 	movt	ip, #20480	; 0x5000
50002754:	e12fff3c 	blx	ip
/home/liwenhaosuper/data/trustkernel/tsee/tsee/boot/tee/start.c:128
50002758:	e3a00101 	mov	r0, #1073741824	; 0x40000000
5000275c:	e3a01101 	mov	r1, #1073741824	; 0x40000000
50002760:	e3a02101 	mov	r2, #1073741824	; 0x40000000
50002764:	e3a03000 	mov	r3, #0
50002768:	e302c42c 	movw	ip, #9260	; 0x242c
5000276c:	e345c000 	movt	ip, #20480	; 0x5000
50002770:	e12fff3c 	blx	ip
/home/liwenhaosuper/data/trustkernel/tsee/tsee/boot/tee/start.c:130
50002774:	e3a00201 	mov	r0, #268435456	; 0x10000000
50002778:	e3a01201 	mov	r1, #268435456	; 0x10000000
5000277c:	e3a02302 	mov	r2, #134217728	; 0x8000000
50002780:	e3a03001 	mov	r3, #1
50002784:	e302c42c 	movw	ip, #9260	; 0x242c
50002788:	e345c000 	movt	ip, #20480	; 0x5000
5000278c:	e12fff3c 	blx	ip
/home/liwenhaosuper/data/trustkernel/tsee/tsee/boot/tee/start.c:132
50002790:	e3093578 	movw	r3, #38264	; 0x9578
50002794:	e3453000 	movt	r3, #20480	; 0x5000
50002798:	e58d3000 	str	r3, [sp]
5000279c:	e3090608 	movw	r0, #38408	; 0x9608
500027a0:	e3450000 	movt	r0, #20480	; 0x5000
500027a4:	e3a01084 	mov	r1, #132	; 0x84
500027a8:	e3a02003 	mov	r2, #3
500027ac:	e3a03001 	mov	r3, #1
500027b0:	e306cc80 	movw	ip, #27776	; 0x6c80
500027b4:	e345c000 	movt	ip, #20480	; 0x5000
500027b8:	e12fff3c 	blx	ip
/home/liwenhaosuper/data/trustkernel/tsee/tsee/boot/tee/start.c:133
500027bc:	e30c3014 	movw	r3, #49172	; 0xc014
500027c0:	e3453000 	movt	r3, #20480	; 0x5000
500027c4:	e5933000 	ldr	r3, [r3]
500027c8:	e1a00003 	mov	r0, r3
500027cc:	e3023514 	movw	r3, #9492	; 0x2514
500027d0:	e3453000 	movt	r3, #20480	; 0x5000
500027d4:	e12fff33 	blx	r3
/home/liwenhaosuper/data/trustkernel/tsee/tsee/boot/tee/start.c:135
500027d8:	ee122f50 	mrc	15, 0, r2, cr2, cr0, {2}
500027dc:	e30b3000 	movw	r3, #45056	; 0xb000
500027e0:	e3453000 	movt	r3, #20480	; 0x5000
500027e4:	e5832000 	str	r2, [r3]
/home/liwenhaosuper/data/trustkernel/tsee/tsee/boot/tee/start.c:136
500027e8:	ee122f10 	mrc	15, 0, r2, cr2, cr0, {0}
500027ec:	e30b3000 	movw	r3, #45056	; 0xb000
500027f0:	e3453000 	movt	r3, #20480	; 0x5000
500027f4:	e5832004 	str	r2, [r3, #4]
/home/liwenhaosuper/data/trustkernel/tsee/tsee/boot/tee/start.c:137
500027f8:	ee122f30 	mrc	15, 0, r2, cr2, cr0, {1}
500027fc:	e30b3000 	movw	r3, #45056	; 0xb000
50002800:	e3453000 	movt	r3, #20480	; 0x5000
50002804:	e5832008 	str	r2, [r3, #8]
/home/liwenhaosuper/data/trustkernel/tsee/tsee/boot/tee/start.c:138
50002808:	ee112f10 	mrc	15, 0, r2, cr1, cr0, {0}
5000280c:	e30b3000 	movw	r3, #45056	; 0xb000
50002810:	e3453000 	movt	r3, #20480	; 0x5000
50002814:	e583200c 	str	r2, [r3, #12]
/home/liwenhaosuper/data/trustkernel/tsee/tsee/boot/tee/start.c:139
50002818:	e3022000 	movw	r2, #8192	; 0x2000
5000281c:	e3452000 	movt	r2, #20480	; 0x5000
50002820:	e30b3000 	movw	r3, #45056	; 0xb000
50002824:	e3453000 	movt	r3, #20480	; 0x5000
50002828:	e5832014 	str	r2, [r3, #20]
/home/liwenhaosuper/data/trustkernel/tsee/tsee/boot/tee/start.c:140
5000282c:	e30b3000 	movw	r3, #45056	; 0xb000
50002830:	e3453000 	movt	r3, #20480	; 0x5000
50002834:	e5934000 	ldr	r4, [r3]
50002838:	e30b3000 	movw	r3, #45056	; 0xb000
5000283c:	e3453000 	movt	r3, #20480	; 0x5000
50002840:	e593e008 	ldr	lr, [r3, #8]
50002844:	e30b3000 	movw	r3, #45056	; 0xb000
50002848:	e3453000 	movt	r3, #20480	; 0x5000
5000284c:	e593c004 	ldr	ip, [r3, #4]
50002850:	e30b3000 	movw	r3, #45056	; 0xb000
50002854:	e3453000 	movt	r3, #20480	; 0x5000
50002858:	e593000c 	ldr	r0, [r3, #12]
5000285c:	e30b3000 	movw	r3, #45056	; 0xb000
50002860:	e3453000 	movt	r3, #20480	; 0x5000
50002864:	e5931010 	ldr	r1, [r3, #16]
50002868:	e30b3000 	movw	r3, #45056	; 0xb000
5000286c:	e3453000 	movt	r3, #20480	; 0x5000
50002870:	e5932014 	ldr	r2, [r3, #20]
50002874:	e30935b0 	movw	r3, #38320	; 0x95b0
50002878:	e3453000 	movt	r3, #20480	; 0x5000
5000287c:	e58d3000 	str	r3, [sp]
50002880:	e58d4004 	str	r4, [sp, #4]
50002884:	e58de008 	str	lr, [sp, #8]
50002888:	e58dc00c 	str	ip, [sp, #12]
5000288c:	e58d0010 	str	r0, [sp, #16]
50002890:	e58d1014 	str	r1, [sp, #20]
50002894:	e58d2018 	str	r2, [sp, #24]
50002898:	e3090608 	movw	r0, #38408	; 0x9608
5000289c:	e3450000 	movt	r0, #20480	; 0x5000
500028a0:	e3a0108c 	mov	r1, #140	; 0x8c
500028a4:	e3a02003 	mov	r2, #3
500028a8:	e3a03001 	mov	r3, #1
500028ac:	e306cc80 	movw	ip, #27776	; 0x6c80
500028b0:	e345c000 	movt	ip, #20480	; 0x5000
500028b4:	e12fff3c 	blx	ip
/home/liwenhaosuper/data/trustkernel/tsee/tsee/boot/tee/start.c:143
500028b8:	e3003000 	movw	r3, #0
500028bc:	e3453010 	movt	r3, #20496	; 0x5010
500028c0:	e50b3010 	str	r3, [fp, #-16]
/home/liwenhaosuper/data/trustkernel/tsee/tsee/boot/tee/start.c:144
500028c4:	e30935d8 	movw	r3, #38360	; 0x95d8
500028c8:	e3453000 	movt	r3, #20480	; 0x5000
500028cc:	e58d3000 	str	r3, [sp]
500028d0:	e3090608 	movw	r0, #38408	; 0x9608
500028d4:	e3450000 	movt	r0, #20480	; 0x5000
500028d8:	e3a01090 	mov	r1, #144	; 0x90
500028dc:	e3a02003 	mov	r2, #3
500028e0:	e3a03001 	mov	r3, #1
500028e4:	e306cc80 	movw	ip, #27776	; 0x6c80
500028e8:	e345c000 	movt	ip, #20480	; 0x5000
500028ec:	e12fff3c 	blx	ip
/home/liwenhaosuper/data/trustkernel/tsee/tsee/boot/tee/start.c:145
500028f0:	e51b2010 	ldr	r2, [fp, #-16]
500028f4:	e30935f0 	movw	r3, #38384	; 0x95f0
500028f8:	e3453000 	movt	r3, #20480	; 0x5000
500028fc:	e58d3000 	str	r3, [sp]
50002900:	e58d2004 	str	r2, [sp, #4]
50002904:	e3090608 	movw	r0, #38408	; 0x9608
50002908:	e3450000 	movt	r0, #20480	; 0x5000
5000290c:	e3a01091 	mov	r1, #145	; 0x91
50002910:	e3a02003 	mov	r2, #3
50002914:	e3a03001 	mov	r3, #1
50002918:	e306cc80 	movw	ip, #27776	; 0x6c80
5000291c:	e345c000 	movt	ip, #20480	; 0x5000
50002920:	e12fff3c 	blx	ip
/home/liwenhaosuper/data/trustkernel/tsee/tsee/boot/tee/start.c:147
50002924:	e51b3010 	ldr	r3, [fp, #-16]
50002928:	e3a00000 	mov	r0, #0
5000292c:	e3a01000 	mov	r1, #0
50002930:	e3a02000 	mov	r2, #0
50002934:	e12fff33 	blx	r3
/home/liwenhaosuper/data/trustkernel/tsee/tsee/boot/tee/start.c:150
50002938:	e24bd008 	sub	sp, fp, #8
5000293c:	e8bd8810 	pop	{r4, fp, pc}

50002940 <is_tsee_range>:
is_tsee_range():
/home/liwenhaosuper/data/trustkernel/tsee/tsee/tsee/tee/dispatch.c:27
50002940:	e52db004 	push	{fp}		; (str fp, [sp, #-4]!)
50002944:	e28db000 	add	fp, sp, #0
50002948:	e24dd00c 	sub	sp, sp, #12
5000294c:	e50b0008 	str	r0, [fp, #-8]
/home/liwenhaosuper/data/trustkernel/tsee/tsee/tsee/tee/dispatch.c:28
50002950:	e51b3008 	ldr	r3, [fp, #-8]
50002954:	e373021b 	cmn	r3, #-1342177279	; 0xb0000001
50002958:	9a000006 	bls	50002978 <is_tsee_range+0x38>
5000295c:	e51b2008 	ldr	r2, [fp, #-8]
50002960:	e3a03000 	mov	r3, #0
50002964:	e3453010 	movt	r3, #20496	; 0x5010
50002968:	e1520003 	cmp	r2, r3
5000296c:	8a000001 	bhi	50002978 <is_tsee_range+0x38>
/home/liwenhaosuper/data/trustkernel/tsee/tsee/tsee/tee/dispatch.c:29
50002970:	e3a03001 	mov	r3, #1
50002974:	ea000000 	b	5000297c <is_tsee_range+0x3c>
/home/liwenhaosuper/data/trustkernel/tsee/tsee/tsee/tee/dispatch.c:31
50002978:	e3a03000 	mov	r3, #0
/home/liwenhaosuper/data/trustkernel/tsee/tsee/tsee/tee/dispatch.c:32
5000297c:	e1a00003 	mov	r0, r3
50002980:	e28bd000 	add	sp, fp, #0
50002984:	e49db004 	pop	{fp}		; (ldr fp, [sp], #4)
50002988:	e12fff1e 	bx	lr

5000298c <is_tee_range>:
is_tee_range():
/home/liwenhaosuper/data/trustkernel/tsee/tsee/tsee/tee/dispatch.c:34
5000298c:	e52db004 	push	{fp}		; (str fp, [sp, #-4]!)
50002990:	e28db000 	add	fp, sp, #0
50002994:	e24dd00c 	sub	sp, sp, #12
50002998:	e50b0008 	str	r0, [fp, #-8]
/home/liwenhaosuper/data/trustkernel/tsee/tsee/tsee/tee/dispatch.c:35
5000299c:	e30c3118 	movw	r3, #49432	; 0xc118
500029a0:	e3453000 	movt	r3, #20480	; 0x5000
500029a4:	e593204c 	ldr	r2, [r3, #76]	; 0x4c
500029a8:	e51b3008 	ldr	r3, [fp, #-8]
500029ac:	e1520003 	cmp	r2, r3
500029b0:	8a000005 	bhi	500029cc <is_tee_range+0x40>
500029b4:	e30c3118 	movw	r3, #49432	; 0xc118
500029b8:	e3453000 	movt	r3, #20480	; 0x5000
500029bc:	e5932050 	ldr	r2, [r3, #80]	; 0x50
500029c0:	e51b3008 	ldr	r3, [fp, #-8]
500029c4:	e1520003 	cmp	r2, r3
500029c8:	8a00000b 	bhi	500029fc <is_tee_range+0x70>
/home/liwenhaosuper/data/trustkernel/tsee/tsee/tsee/tee/dispatch.c:36
500029cc:	e30c3118 	movw	r3, #49432	; 0xc118
500029d0:	e3453000 	movt	r3, #20480	; 0x5000
500029d4:	e5932054 	ldr	r2, [r3, #84]	; 0x54
/home/liwenhaosuper/data/trustkernel/tsee/tsee/tsee/tee/dispatch.c:35
500029d8:	e51b3008 	ldr	r3, [fp, #-8]
500029dc:	e1520003 	cmp	r2, r3
500029e0:	8a000007 	bhi	50002a04 <is_tee_range+0x78>
/home/liwenhaosuper/data/trustkernel/tsee/tsee/tsee/tee/dispatch.c:36
500029e4:	e30c3118 	movw	r3, #49432	; 0xc118
500029e8:	e3453000 	movt	r3, #20480	; 0x5000
500029ec:	e5932058 	ldr	r2, [r3, #88]	; 0x58
500029f0:	e51b3008 	ldr	r3, [fp, #-8]
500029f4:	e1520003 	cmp	r2, r3
500029f8:	9a000001 	bls	50002a04 <is_tee_range+0x78>
/home/liwenhaosuper/data/trustkernel/tsee/tsee/tsee/tee/dispatch.c:37
500029fc:	e3a03001 	mov	r3, #1
50002a00:	ea000000 	b	50002a08 <is_tee_range+0x7c>
/home/liwenhaosuper/data/trustkernel/tsee/tsee/tsee/tee/dispatch.c:39
50002a04:	e3a03000 	mov	r3, #0
/home/liwenhaosuper/data/trustkernel/tsee/tsee/tsee/tee/dispatch.c:40
50002a08:	e1a00003 	mov	r0, r3
50002a0c:	e28bd000 	add	sp, fp, #0
50002a10:	e49db004 	pop	{fp}		; (ldr fp, [sp], #4)
50002a14:	e12fff1e 	bx	lr

50002a18 <is_l2pgtbl_range>:
is_l2pgtbl_range():
/home/liwenhaosuper/data/trustkernel/tsee/tsee/tsee/tee/dispatch.c:41
50002a18:	e52db004 	push	{fp}		; (str fp, [sp, #-4]!)
50002a1c:	e28db000 	add	fp, sp, #0
50002a20:	e24dd00c 	sub	sp, sp, #12
50002a24:	e50b0008 	str	r0, [fp, #-8]
/home/liwenhaosuper/data/trustkernel/tsee/tsee/tsee/tee/dispatch.c:42
50002a28:	e30c3118 	movw	r3, #49432	; 0xc118
50002a2c:	e3453000 	movt	r3, #20480	; 0x5000
50002a30:	e5932030 	ldr	r2, [r3, #48]	; 0x30
50002a34:	e51b3008 	ldr	r3, [fp, #-8]
50002a38:	e1520003 	cmp	r2, r3
50002a3c:	8a000007 	bhi	50002a60 <is_l2pgtbl_range+0x48>
50002a40:	e30c3118 	movw	r3, #49432	; 0xc118
50002a44:	e3453000 	movt	r3, #20480	; 0x5000
50002a48:	e5932034 	ldr	r2, [r3, #52]	; 0x34
50002a4c:	e51b3008 	ldr	r3, [fp, #-8]
50002a50:	e1520003 	cmp	r2, r3
50002a54:	9a000001 	bls	50002a60 <is_l2pgtbl_range+0x48>
/home/liwenhaosuper/data/trustkernel/tsee/tsee/tsee/tee/dispatch.c:43
50002a58:	e3a03001 	mov	r3, #1
50002a5c:	ea000000 	b	50002a64 <is_l2pgtbl_range+0x4c>
/home/liwenhaosuper/data/trustkernel/tsee/tsee/tsee/tee/dispatch.c:45
50002a60:	e3a03000 	mov	r3, #0
/home/liwenhaosuper/data/trustkernel/tsee/tsee/tsee/tee/dispatch.c:46
50002a64:	e1a00003 	mov	r0, r3
50002a68:	e28bd000 	add	sp, fp, #0
50002a6c:	e49db004 	pop	{fp}		; (ldr fp, [sp], #4)
50002a70:	e12fff1e 	bx	lr

50002a74 <is_kpt_range>:
is_kpt_range():
/home/liwenhaosuper/data/trustkernel/tsee/tsee/tsee/tee/dispatch.c:47
50002a74:	e52db004 	push	{fp}		; (str fp, [sp, #-4]!)
50002a78:	e28db000 	add	fp, sp, #0
50002a7c:	e24dd00c 	sub	sp, sp, #12
50002a80:	e50b0008 	str	r0, [fp, #-8]
/home/liwenhaosuper/data/trustkernel/tsee/tsee/tsee/tee/dispatch.c:48
50002a84:	e30c3118 	movw	r3, #49432	; 0xc118
50002a88:	e3453000 	movt	r3, #20480	; 0x5000
50002a8c:	e5932038 	ldr	r2, [r3, #56]	; 0x38
50002a90:	e51b3008 	ldr	r3, [fp, #-8]
50002a94:	e1520003 	cmp	r2, r3
50002a98:	8a000005 	bhi	50002ab4 <is_kpt_range+0x40>
50002a9c:	e30c3118 	movw	r3, #49432	; 0xc118
50002aa0:	e3453000 	movt	r3, #20480	; 0x5000
50002aa4:	e593203c 	ldr	r2, [r3, #60]	; 0x3c
50002aa8:	e51b3008 	ldr	r3, [fp, #-8]
50002aac:	e1520003 	cmp	r2, r3
50002ab0:	8a00000b 	bhi	50002ae4 <is_kpt_range+0x70>
/home/liwenhaosuper/data/trustkernel/tsee/tsee/tsee/tee/dispatch.c:49
50002ab4:	e30c3118 	movw	r3, #49432	; 0xc118
50002ab8:	e3453000 	movt	r3, #20480	; 0x5000
50002abc:	e5932040 	ldr	r2, [r3, #64]	; 0x40
/home/liwenhaosuper/data/trustkernel/tsee/tsee/tsee/tee/dispatch.c:48
50002ac0:	e51b3008 	ldr	r3, [fp, #-8]
50002ac4:	e1520003 	cmp	r2, r3
50002ac8:	8a000007 	bhi	50002aec <is_kpt_range+0x78>
/home/liwenhaosuper/data/trustkernel/tsee/tsee/tsee/tee/dispatch.c:49
50002acc:	e30c3118 	movw	r3, #49432	; 0xc118
50002ad0:	e3453000 	movt	r3, #20480	; 0x5000
50002ad4:	e5932044 	ldr	r2, [r3, #68]	; 0x44
50002ad8:	e51b3008 	ldr	r3, [fp, #-8]
50002adc:	e1520003 	cmp	r2, r3
50002ae0:	9a000001 	bls	50002aec <is_kpt_range+0x78>
/home/liwenhaosuper/data/trustkernel/tsee/tsee/tsee/tee/dispatch.c:50
50002ae4:	e3a03001 	mov	r3, #1
50002ae8:	ea000000 	b	50002af0 <is_kpt_range+0x7c>
/home/liwenhaosuper/data/trustkernel/tsee/tsee/tsee/tee/dispatch.c:52
50002aec:	e3a03000 	mov	r3, #0
/home/liwenhaosuper/data/trustkernel/tsee/tsee/tsee/tee/dispatch.c:53
50002af0:	e1a00003 	mov	r0, r3
50002af4:	e28bd000 	add	sp, fp, #0
50002af8:	e49db004 	pop	{fp}		; (ldr fp, [sp], #4)
50002afc:	e12fff1e 	bx	lr

50002b00 <is_reeshr_range>:
is_reeshr_range():
/home/liwenhaosuper/data/trustkernel/tsee/tsee/tsee/tee/dispatch.c:54
50002b00:	e52db004 	push	{fp}		; (str fp, [sp, #-4]!)
50002b04:	e28db000 	add	fp, sp, #0
50002b08:	e24dd00c 	sub	sp, sp, #12
50002b0c:	e50b0008 	str	r0, [fp, #-8]
/home/liwenhaosuper/data/trustkernel/tsee/tsee/tsee/tee/dispatch.c:55
50002b10:	e30c3118 	movw	r3, #49432	; 0xc118
50002b14:	e3453000 	movt	r3, #20480	; 0x5000
50002b18:	e593205c 	ldr	r2, [r3, #92]	; 0x5c
50002b1c:	e51b3008 	ldr	r3, [fp, #-8]
50002b20:	e1520003 	cmp	r2, r3
50002b24:	8a000007 	bhi	50002b48 <is_reeshr_range+0x48>
50002b28:	e30c3118 	movw	r3, #49432	; 0xc118
50002b2c:	e3453000 	movt	r3, #20480	; 0x5000
50002b30:	e5932060 	ldr	r2, [r3, #96]	; 0x60
50002b34:	e51b3008 	ldr	r3, [fp, #-8]
50002b38:	e1520003 	cmp	r2, r3
50002b3c:	9a000001 	bls	50002b48 <is_reeshr_range+0x48>
/home/liwenhaosuper/data/trustkernel/tsee/tsee/tsee/tee/dispatch.c:56
50002b40:	e3a03001 	mov	r3, #1
50002b44:	ea000000 	b	50002b4c <is_reeshr_range+0x4c>
/home/liwenhaosuper/data/trustkernel/tsee/tsee/tsee/tee/dispatch.c:58
50002b48:	e3a03000 	mov	r3, #0
/home/liwenhaosuper/data/trustkernel/tsee/tsee/tsee/tee/dispatch.c:59
50002b4c:	e1a00003 	mov	r0, r3
50002b50:	e28bd000 	add	sp, fp, #0
50002b54:	e49db004 	pop	{fp}		; (ldr fp, [sp], #4)
50002b58:	e12fff1e 	bx	lr

50002b5c <is_kpgtbl_range>:
is_kpgtbl_range():
/home/liwenhaosuper/data/trustkernel/tsee/tsee/tsee/tee/dispatch.c:60
50002b5c:	e52db004 	push	{fp}		; (str fp, [sp, #-4]!)
50002b60:	e28db000 	add	fp, sp, #0
50002b64:	e24dd00c 	sub	sp, sp, #12
50002b68:	e50b0008 	str	r0, [fp, #-8]
/home/liwenhaosuper/data/trustkernel/tsee/tsee/tsee/tee/dispatch.c:61
50002b6c:	e30c3118 	movw	r3, #49432	; 0xc118
50002b70:	e3453000 	movt	r3, #20480	; 0x5000
50002b74:	e5932028 	ldr	r2, [r3, #40]	; 0x28
50002b78:	e51b3008 	ldr	r3, [fp, #-8]
50002b7c:	e1520003 	cmp	r2, r3
50002b80:	8a00000b 	bhi	50002bb4 <is_kpgtbl_range+0x58>
50002b84:	e30c3118 	movw	r3, #49432	; 0xc118
50002b88:	e3453000 	movt	r3, #20480	; 0x5000
50002b8c:	e5932028 	ldr	r2, [r3, #40]	; 0x28
50002b90:	e30c3118 	movw	r3, #49432	; 0xc118
50002b94:	e3453000 	movt	r3, #20480	; 0x5000
50002b98:	e593302c 	ldr	r3, [r3, #44]	; 0x2c
50002b9c:	e0822003 	add	r2, r2, r3
50002ba0:	e51b3008 	ldr	r3, [fp, #-8]
50002ba4:	e1520003 	cmp	r2, r3
50002ba8:	9a000001 	bls	50002bb4 <is_kpgtbl_range+0x58>
/home/liwenhaosuper/data/trustkernel/tsee/tsee/tsee/tee/dispatch.c:62
50002bac:	e3a03001 	mov	r3, #1
50002bb0:	ea000000 	b	50002bb8 <is_kpgtbl_range+0x5c>
/home/liwenhaosuper/data/trustkernel/tsee/tsee/tsee/tee/dispatch.c:64
50002bb4:	e3a03000 	mov	r3, #0
/home/liwenhaosuper/data/trustkernel/tsee/tsee/tsee/tee/dispatch.c:65
50002bb8:	e1a00003 	mov	r0, r3
50002bbc:	e28bd000 	add	sp, fp, #0
50002bc0:	e49db004 	pop	{fp}		; (ldr fp, [sp], #4)
50002bc4:	e12fff1e 	bx	lr

50002bc8 <is_kdata_range>:
is_kdata_range():
/home/liwenhaosuper/data/trustkernel/tsee/tsee/tsee/tee/dispatch.c:66
50002bc8:	e52db004 	push	{fp}		; (str fp, [sp, #-4]!)
50002bcc:	e28db000 	add	fp, sp, #0
50002bd0:	e24dd00c 	sub	sp, sp, #12
50002bd4:	e50b0008 	str	r0, [fp, #-8]
/home/liwenhaosuper/data/trustkernel/tsee/tsee/tsee/tee/dispatch.c:67
50002bd8:	e30c3118 	movw	r3, #49432	; 0xc118
50002bdc:	e3453000 	movt	r3, #20480	; 0x5000
50002be0:	e5932008 	ldr	r2, [r3, #8]
50002be4:	e51b3008 	ldr	r3, [fp, #-8]
50002be8:	e1520003 	cmp	r2, r3
50002bec:	8a000005 	bhi	50002c08 <is_kdata_range+0x40>
50002bf0:	e30c3118 	movw	r3, #49432	; 0xc118
50002bf4:	e3453000 	movt	r3, #20480	; 0x5000
50002bf8:	e593200c 	ldr	r2, [r3, #12]
50002bfc:	e51b3008 	ldr	r3, [fp, #-8]
50002c00:	e1520003 	cmp	r2, r3
50002c04:	8a00000b 	bhi	50002c38 <is_kdata_range+0x70>
/home/liwenhaosuper/data/trustkernel/tsee/tsee/tsee/tee/dispatch.c:68
50002c08:	e30c3118 	movw	r3, #49432	; 0xc118
50002c0c:	e3453000 	movt	r3, #20480	; 0x5000
50002c10:	e5932010 	ldr	r2, [r3, #16]
/home/liwenhaosuper/data/trustkernel/tsee/tsee/tsee/tee/dispatch.c:67
50002c14:	e51b3008 	ldr	r3, [fp, #-8]
50002c18:	e1520003 	cmp	r2, r3
50002c1c:	8a000007 	bhi	50002c40 <is_kdata_range+0x78>
/home/liwenhaosuper/data/trustkernel/tsee/tsee/tsee/tee/dispatch.c:68
50002c20:	e30c3118 	movw	r3, #49432	; 0xc118
50002c24:	e3453000 	movt	r3, #20480	; 0x5000
50002c28:	e5932014 	ldr	r2, [r3, #20]
50002c2c:	e51b3008 	ldr	r3, [fp, #-8]
50002c30:	e1520003 	cmp	r2, r3
50002c34:	9a000001 	bls	50002c40 <is_kdata_range+0x78>
/home/liwenhaosuper/data/trustkernel/tsee/tsee/tsee/tee/dispatch.c:69
50002c38:	e3a03001 	mov	r3, #1
50002c3c:	ea000000 	b	50002c44 <is_kdata_range+0x7c>
/home/liwenhaosuper/data/trustkernel/tsee/tsee/tsee/tee/dispatch.c:71
50002c40:	e3a03000 	mov	r3, #0
/home/liwenhaosuper/data/trustkernel/tsee/tsee/tsee/tee/dispatch.c:72
50002c44:	e1a00003 	mov	r0, r3
50002c48:	e28bd000 	add	sp, fp, #0
50002c4c:	e49db004 	pop	{fp}		; (ldr fp, [sp], #4)
50002c50:	e12fff1e 	bx	lr

50002c54 <is_krodata_range>:
is_krodata_range():
/home/liwenhaosuper/data/trustkernel/tsee/tsee/tsee/tee/dispatch.c:73
50002c54:	e52db004 	push	{fp}		; (str fp, [sp, #-4]!)
50002c58:	e28db000 	add	fp, sp, #0
50002c5c:	e24dd00c 	sub	sp, sp, #12
50002c60:	e50b0008 	str	r0, [fp, #-8]
/home/liwenhaosuper/data/trustkernel/tsee/tsee/tsee/tee/dispatch.c:74
50002c64:	e30c3118 	movw	r3, #49432	; 0xc118
50002c68:	e3453000 	movt	r3, #20480	; 0x5000
50002c6c:	e5932000 	ldr	r2, [r3]
50002c70:	e51b3008 	ldr	r3, [fp, #-8]
50002c74:	e1520003 	cmp	r2, r3
50002c78:	8a000007 	bhi	50002c9c <is_krodata_range+0x48>
50002c7c:	e30c3118 	movw	r3, #49432	; 0xc118
50002c80:	e3453000 	movt	r3, #20480	; 0x5000
50002c84:	e5932004 	ldr	r2, [r3, #4]
50002c88:	e51b3008 	ldr	r3, [fp, #-8]
50002c8c:	e1520003 	cmp	r2, r3
50002c90:	9a000001 	bls	50002c9c <is_krodata_range+0x48>
/home/liwenhaosuper/data/trustkernel/tsee/tsee/tsee/tee/dispatch.c:75
50002c94:	e3a03001 	mov	r3, #1
50002c98:	ea000000 	b	50002ca0 <is_krodata_range+0x4c>
/home/liwenhaosuper/data/trustkernel/tsee/tsee/tsee/tee/dispatch.c:77
50002c9c:	e3a03000 	mov	r3, #0
/home/liwenhaosuper/data/trustkernel/tsee/tsee/tsee/tee/dispatch.c:78
50002ca0:	e1a00003 	mov	r0, r3
50002ca4:	e28bd000 	add	sp, fp, #0
50002ca8:	e49db004 	pop	{fp}		; (ldr fp, [sp], #4)
50002cac:	e12fff1e 	bx	lr

50002cb0 <is_ktext_range>:
is_ktext_range():
/home/liwenhaosuper/data/trustkernel/tsee/tsee/tsee/tee/dispatch.c:79
50002cb0:	e52db004 	push	{fp}		; (str fp, [sp, #-4]!)
50002cb4:	e28db000 	add	fp, sp, #0
50002cb8:	e24dd00c 	sub	sp, sp, #12
50002cbc:	e50b0008 	str	r0, [fp, #-8]
/home/liwenhaosuper/data/trustkernel/tsee/tsee/tsee/tee/dispatch.c:80
50002cc0:	e30c3118 	movw	r3, #49432	; 0xc118
50002cc4:	e3453000 	movt	r3, #20480	; 0x5000
50002cc8:	e5932018 	ldr	r2, [r3, #24]
50002ccc:	e51b3008 	ldr	r3, [fp, #-8]
50002cd0:	e1520003 	cmp	r2, r3
50002cd4:	8a000005 	bhi	50002cf0 <is_ktext_range+0x40>
50002cd8:	e30c3118 	movw	r3, #49432	; 0xc118
50002cdc:	e3453000 	movt	r3, #20480	; 0x5000
50002ce0:	e593201c 	ldr	r2, [r3, #28]
50002ce4:	e51b3008 	ldr	r3, [fp, #-8]
50002ce8:	e1520003 	cmp	r2, r3
50002cec:	8a00000b 	bhi	50002d20 <is_ktext_range+0x70>
/home/liwenhaosuper/data/trustkernel/tsee/tsee/tsee/tee/dispatch.c:81
50002cf0:	e30c3118 	movw	r3, #49432	; 0xc118
50002cf4:	e3453000 	movt	r3, #20480	; 0x5000
50002cf8:	e5932020 	ldr	r2, [r3, #32]
/home/liwenhaosuper/data/trustkernel/tsee/tsee/tsee/tee/dispatch.c:80
50002cfc:	e51b3008 	ldr	r3, [fp, #-8]
50002d00:	e1520003 	cmp	r2, r3
50002d04:	8a000007 	bhi	50002d28 <is_ktext_range+0x78>
/home/liwenhaosuper/data/trustkernel/tsee/tsee/tsee/tee/dispatch.c:81
50002d08:	e30c3118 	movw	r3, #49432	; 0xc118
50002d0c:	e3453000 	movt	r3, #20480	; 0x5000
50002d10:	e5932024 	ldr	r2, [r3, #36]	; 0x24
50002d14:	e51b3008 	ldr	r3, [fp, #-8]
50002d18:	e1520003 	cmp	r2, r3
50002d1c:	9a000001 	bls	50002d28 <is_ktext_range+0x78>
/home/liwenhaosuper/data/trustkernel/tsee/tsee/tsee/tee/dispatch.c:82
50002d20:	e3a03001 	mov	r3, #1
50002d24:	ea000000 	b	50002d2c <is_ktext_range+0x7c>
/home/liwenhaosuper/data/trustkernel/tsee/tsee/tsee/tee/dispatch.c:84
50002d28:	e3a03000 	mov	r3, #0
/home/liwenhaosuper/data/trustkernel/tsee/tsee/tsee/tee/dispatch.c:85
50002d2c:	e1a00003 	mov	r0, r3
50002d30:	e28bd000 	add	sp, fp, #0
50002d34:	e49db004 	pop	{fp}		; (ldr fp, [sp], #4)
50002d38:	e12fff1e 	bx	lr

50002d3c <is_devmem_range>:
is_devmem_range():
/home/liwenhaosuper/data/trustkernel/tsee/tsee/tsee/tee/dispatch.c:86
50002d3c:	e52db004 	push	{fp}		; (str fp, [sp, #-4]!)
50002d40:	e28db000 	add	fp, sp, #0
50002d44:	e24dd00c 	sub	sp, sp, #12
50002d48:	e50b0008 	str	r0, [fp, #-8]
/home/liwenhaosuper/data/trustkernel/tsee/tsee/tsee/tee/dispatch.c:90
50002d4c:	e51b3008 	ldr	r3, [fp, #-8]
50002d50:	e373021f 	cmn	r3, #-268435455	; 0xf0000001
50002d54:	9a000004 	bls	50002d6c <is_devmem_range+0x30>
50002d58:	e51b3008 	ldr	r3, [fp, #-8]
50002d5c:	e373037e 	cmn	r3, #-134217727	; 0xf8000001
50002d60:	8a000001 	bhi	50002d6c <is_devmem_range+0x30>
/home/liwenhaosuper/data/trustkernel/tsee/tsee/tsee/tee/dispatch.c:91
50002d64:	e3a03001 	mov	r3, #1
50002d68:	ea000000 	b	50002d70 <is_devmem_range+0x34>
/home/liwenhaosuper/data/trustkernel/tsee/tsee/tsee/tee/dispatch.c:92
50002d6c:	e3a03000 	mov	r3, #0
/home/liwenhaosuper/data/trustkernel/tsee/tsee/tsee/tee/dispatch.c:94
50002d70:	e1a00003 	mov	r0, r3
50002d74:	e28bd000 	add	sp, fp, #0
50002d78:	e49db004 	pop	{fp}		; (ldr fp, [sp], #4)
50002d7c:	e12fff1e 	bx	lr

50002d80 <is_dram0_ranges>:
is_dram0_ranges():
/home/liwenhaosuper/data/trustkernel/tsee/tsee/tsee/tee/dispatch.c:95
50002d80:	e52db004 	push	{fp}		; (str fp, [sp, #-4]!)
50002d84:	e28db000 	add	fp, sp, #0
50002d88:	e24dd00c 	sub	sp, sp, #12
50002d8c:	e50b0008 	str	r0, [fp, #-8]
50002d90:	e50b100c 	str	r1, [fp, #-12]
/home/liwenhaosuper/data/trustkernel/tsee/tsee/tsee/tee/dispatch.c:96
50002d94:	e51b300c 	ldr	r3, [fp, #-12]
50002d98:	e3530401 	cmp	r3, #16777216	; 0x1000000
50002d9c:	9a000003 	bls	50002db0 <is_dram0_ranges+0x30>
50002da0:	e51b2008 	ldr	r2, [fp, #-8]
50002da4:	e3e034f7 	mvn	r3, #-150994944	; 0xf7000000
50002da8:	e1520003 	cmp	r2, r3
50002dac:	9a000001 	bls	50002db8 <is_dram0_ranges+0x38>
/home/liwenhaosuper/data/trustkernel/tsee/tsee/tsee/tee/dispatch.c:97
50002db0:	e3a03000 	mov	r3, #0
50002db4:	ea000000 	b	50002dbc <is_dram0_ranges+0x3c>
/home/liwenhaosuper/data/trustkernel/tsee/tsee/tsee/tee/dispatch.c:98
50002db8:	e3a03001 	mov	r3, #1
/home/liwenhaosuper/data/trustkernel/tsee/tsee/tsee/tee/dispatch.c:99
50002dbc:	e1a00003 	mov	r0, r3
50002dc0:	e28bd000 	add	sp, fp, #0
50002dc4:	e49db004 	pop	{fp}		; (ldr fp, [sp], #4)
50002dc8:	e12fff1e 	bx	lr

50002dcc <is_dram1_ranges>:
is_dram1_ranges():
/home/liwenhaosuper/data/trustkernel/tsee/tsee/tsee/tee/dispatch.c:100
50002dcc:	e52db004 	push	{fp}		; (str fp, [sp, #-4]!)
50002dd0:	e28db000 	add	fp, sp, #0
50002dd4:	e24dd00c 	sub	sp, sp, #12
50002dd8:	e50b0008 	str	r0, [fp, #-8]
50002ddc:	e50b100c 	str	r1, [fp, #-12]
/home/liwenhaosuper/data/trustkernel/tsee/tsee/tsee/tee/dispatch.c:101
50002de0:	e51b300c 	ldr	r3, [fp, #-12]
50002de4:	e3530101 	cmp	r3, #1073741824	; 0x40000000
50002de8:	9a000002 	bls	50002df8 <is_dram1_ranges+0x2c>
50002dec:	e51b3008 	ldr	r3, [fp, #-8]
50002df0:	e3530102 	cmp	r3, #-2147483648	; 0x80000000
50002df4:	3a000001 	bcc	50002e00 <is_dram1_ranges+0x34>
/home/liwenhaosuper/data/trustkernel/tsee/tsee/tsee/tee/dispatch.c:102
50002df8:	e3a03000 	mov	r3, #0
50002dfc:	ea000000 	b	50002e04 <is_dram1_ranges+0x38>
/home/liwenhaosuper/data/trustkernel/tsee/tsee/tsee/tee/dispatch.c:103
50002e00:	e3a03001 	mov	r3, #1
/home/liwenhaosuper/data/trustkernel/tsee/tsee/tsee/tee/dispatch.c:104
50002e04:	e1a00003 	mov	r0, r3
50002e08:	e28bd000 	add	sp, fp, #0
50002e0c:	e49db004 	pop	{fp}		; (ldr fp, [sp], #4)
50002e10:	e12fff1e 	bx	lr

50002e14 <is_devmem_ranges>:
is_devmem_ranges():
/home/liwenhaosuper/data/trustkernel/tsee/tsee/tsee/tee/dispatch.c:105
50002e14:	e52db004 	push	{fp}		; (str fp, [sp, #-4]!)
50002e18:	e28db000 	add	fp, sp, #0
50002e1c:	e24dd00c 	sub	sp, sp, #12
50002e20:	e50b0008 	str	r0, [fp, #-8]
50002e24:	e50b100c 	str	r1, [fp, #-12]
/home/liwenhaosuper/data/trustkernel/tsee/tsee/tsee/tee/dispatch.c:106
50002e28:	e51b300c 	ldr	r3, [fp, #-12]
50002e2c:	e3530201 	cmp	r3, #268435456	; 0x10000000
50002e30:	9a000002 	bls	50002e40 <is_devmem_ranges+0x2c>
50002e34:	e51b3008 	ldr	r3, [fp, #-8]
50002e38:	e373037a 	cmn	r3, #-402653183	; 0xe8000001
50002e3c:	9a000001 	bls	50002e48 <is_devmem_ranges+0x34>
/home/liwenhaosuper/data/trustkernel/tsee/tsee/tsee/tee/dispatch.c:107
50002e40:	e3a03000 	mov	r3, #0
50002e44:	ea000000 	b	50002e4c <is_devmem_ranges+0x38>
/home/liwenhaosuper/data/trustkernel/tsee/tsee/tsee/tee/dispatch.c:108
50002e48:	e3a03001 	mov	r3, #1
/home/liwenhaosuper/data/trustkernel/tsee/tsee/tsee/tee/dispatch.c:109
50002e4c:	e1a00003 	mov	r0, r3
50002e50:	e28bd000 	add	sp, fp, #0
50002e54:	e49db004 	pop	{fp}		; (ldr fp, [sp], #4)
50002e58:	e12fff1e 	bx	lr

50002e5c <get_phymap_index>:
get_phymap_index():
/home/liwenhaosuper/data/trustkernel/tsee/tsee/tsee/tee/dispatch.c:113
50002e5c:	e92d4800 	push	{fp, lr}
50002e60:	e28db004 	add	fp, sp, #4
50002e64:	e24dd018 	sub	sp, sp, #24
50002e68:	e50b0018 	str	r0, [fp, #-24]	; 0xffffffe8
/home/liwenhaosuper/data/trustkernel/tsee/tsee/tsee/tee/dispatch.c:114
50002e6c:	e3a03000 	mov	r3, #0
50002e70:	e50b300c 	str	r3, [fp, #-12]
50002e74:	e3a03000 	mov	r3, #0
50002e78:	e50b3010 	str	r3, [fp, #-16]
50002e7c:	e3a03000 	mov	r3, #0
50002e80:	e50b3014 	str	r3, [fp, #-20]	; 0xffffffec
/home/liwenhaosuper/data/trustkernel/tsee/tsee/tsee/tee/dispatch.c:115
50002e84:	e3a03000 	mov	r3, #0
50002e88:	e50b3008 	str	r3, [fp, #-8]
/home/liwenhaosuper/data/trustkernel/tsee/tsee/tsee/tee/dispatch.c:116
50002e8c:	e3a03902 	mov	r3, #32768	; 0x8000
50002e90:	e50b300c 	str	r3, [fp, #-12]
/home/liwenhaosuper/data/trustkernel/tsee/tsee/tsee/tee/dispatch.c:117
50002e94:	e3a03701 	mov	r3, #262144	; 0x40000
50002e98:	e50b3010 	str	r3, [fp, #-16]
/home/liwenhaosuper/data/trustkernel/tsee/tsee/tsee/tee/dispatch.c:118
50002e9c:	e3a03902 	mov	r3, #32768	; 0x8000
50002ea0:	e50b3014 	str	r3, [fp, #-20]	; 0xffffffec
/home/liwenhaosuper/data/trustkernel/tsee/tsee/tsee/tee/dispatch.c:120
50002ea4:	e51b3018 	ldr	r3, [fp, #-24]	; 0xffffffe8
50002ea8:	e2833a01 	add	r3, r3, #4096	; 0x1000
50002eac:	e51b0018 	ldr	r0, [fp, #-24]	; 0xffffffe8
50002eb0:	e1a01003 	mov	r1, r3
50002eb4:	e3023d80 	movw	r3, #11648	; 0x2d80
50002eb8:	e3453000 	movt	r3, #20480	; 0x5000
50002ebc:	e12fff33 	blx	r3
50002ec0:	e1a03000 	mov	r3, r0
50002ec4:	e3530000 	cmp	r3, #0
50002ec8:	0a000004 	beq	50002ee0 <get_phymap_index+0x84>
/home/liwenhaosuper/data/trustkernel/tsee/tsee/tsee/tee/dispatch.c:121
50002ecc:	e51b3018 	ldr	r3, [fp, #-24]	; 0xffffffe8
50002ed0:	e28334ff 	add	r3, r3, #-16777216	; 0xff000000
50002ed4:	e1a03623 	lsr	r3, r3, #12
50002ed8:	e50b3008 	str	r3, [fp, #-8]
50002edc:	ea000028 	b	50002f84 <get_phymap_index+0x128>
/home/liwenhaosuper/data/trustkernel/tsee/tsee/tsee/tee/dispatch.c:122
50002ee0:	e51b3018 	ldr	r3, [fp, #-24]	; 0xffffffe8
50002ee4:	e2833a01 	add	r3, r3, #4096	; 0x1000
50002ee8:	e51b0018 	ldr	r0, [fp, #-24]	; 0xffffffe8
50002eec:	e1a01003 	mov	r1, r3
50002ef0:	e3023dcc 	movw	r3, #11724	; 0x2dcc
50002ef4:	e3453000 	movt	r3, #20480	; 0x5000
50002ef8:	e12fff33 	blx	r3
50002efc:	e1a03000 	mov	r3, r0
50002f00:	e3530000 	cmp	r3, #0
50002f04:	0a000007 	beq	50002f28 <get_phymap_index+0xcc>
/home/liwenhaosuper/data/trustkernel/tsee/tsee/tsee/tee/dispatch.c:123
50002f08:	e51b3018 	ldr	r3, [fp, #-24]	; 0xffffffe8
50002f0c:	e2833103 	add	r3, r3, #-1073741824	; 0xc0000000
50002f10:	e1a03623 	lsr	r3, r3, #12
50002f14:	e50b3008 	str	r3, [fp, #-8]
/home/liwenhaosuper/data/trustkernel/tsee/tsee/tsee/tee/dispatch.c:124
50002f18:	e51b3008 	ldr	r3, [fp, #-8]
50002f1c:	e2833902 	add	r3, r3, #32768	; 0x8000
50002f20:	e50b3008 	str	r3, [fp, #-8]
50002f24:	ea000016 	b	50002f84 <get_phymap_index+0x128>
/home/liwenhaosuper/data/trustkernel/tsee/tsee/tsee/tee/dispatch.c:125
50002f28:	e51b3018 	ldr	r3, [fp, #-24]	; 0xffffffe8
50002f2c:	e2833a01 	add	r3, r3, #4096	; 0x1000
50002f30:	e51b0018 	ldr	r0, [fp, #-24]	; 0xffffffe8
50002f34:	e1a01003 	mov	r1, r3
50002f38:	e3023e14 	movw	r3, #11796	; 0x2e14
50002f3c:	e3453000 	movt	r3, #20480	; 0x5000
50002f40:	e12fff33 	blx	r3
50002f44:	e1a03000 	mov	r3, r0
50002f48:	e3530000 	cmp	r3, #0
50002f4c:	0a00000a 	beq	50002f7c <get_phymap_index+0x120>
/home/liwenhaosuper/data/trustkernel/tsee/tsee/tsee/tee/dispatch.c:126
50002f50:	e51b3018 	ldr	r3, [fp, #-24]	; 0xffffffe8
50002f54:	e283320f 	add	r3, r3, #-268435456	; 0xf0000000
50002f58:	e1a03623 	lsr	r3, r3, #12
50002f5c:	e50b3008 	str	r3, [fp, #-8]
/home/liwenhaosuper/data/trustkernel/tsee/tsee/tsee/tee/dispatch.c:127
50002f60:	e51b3008 	ldr	r3, [fp, #-8]
50002f64:	e2833902 	add	r3, r3, #32768	; 0x8000
50002f68:	e50b3008 	str	r3, [fp, #-8]
/home/liwenhaosuper/data/trustkernel/tsee/tsee/tsee/tee/dispatch.c:128
50002f6c:	e51b3008 	ldr	r3, [fp, #-8]
50002f70:	e2833701 	add	r3, r3, #262144	; 0x40000
50002f74:	e50b3008 	str	r3, [fp, #-8]
50002f78:	ea000001 	b	50002f84 <get_phymap_index+0x128>
/home/liwenhaosuper/data/trustkernel/tsee/tsee/tsee/tee/dispatch.c:131
50002f7c:	e3e03000 	mvn	r3, #0
50002f80:	ea000000 	b	50002f88 <get_phymap_index+0x12c>
/home/liwenhaosuper/data/trustkernel/tsee/tsee/tsee/tee/dispatch.c:133
50002f84:	e51b3008 	ldr	r3, [fp, #-8]
/home/liwenhaosuper/data/trustkernel/tsee/tsee/tsee/tee/dispatch.c:134
50002f88:	e1a00003 	mov	r0, r3
50002f8c:	e24bd004 	sub	sp, fp, #4
50002f90:	e8bd8800 	pop	{fp, pc}

50002f94 <tsee_mempg_protect>:
tsee_mempg_protect():
/home/liwenhaosuper/data/trustkernel/tsee/tsee/tsee/tee/dispatch.c:136
50002f94:	e92d4800 	push	{fp, lr}
50002f98:	e28db004 	add	fp, sp, #4
50002f9c:	e24dd018 	sub	sp, sp, #24
50002fa0:	e50b0018 	str	r0, [fp, #-24]	; 0xffffffe8
/home/liwenhaosuper/data/trustkernel/tsee/tsee/tsee/tee/dispatch.c:142
50002fa4:	e51b3018 	ldr	r3, [fp, #-24]	; 0xffffffe8
50002fa8:	e3c33a01 	bic	r3, r3, #4096	; 0x1000
50002fac:	e50b3018 	str	r3, [fp, #-24]	; 0xffffffe8
/home/liwenhaosuper/data/trustkernel/tsee/tsee/tsee/tee/dispatch.c:143
50002fb0:	e51b0018 	ldr	r0, [fp, #-24]	; 0xffffffe8
50002fb4:	e3023e5c 	movw	r3, #11868	; 0x2e5c
50002fb8:	e3453000 	movt	r3, #20480	; 0x5000
50002fbc:	e12fff33 	blx	r3
50002fc0:	e50b0008 	str	r0, [fp, #-8]
/home/liwenhaosuper/data/trustkernel/tsee/tsee/tsee/tee/dispatch.c:144
50002fc4:	e51b3008 	ldr	r3, [fp, #-8]
50002fc8:	e3730001 	cmn	r3, #1
50002fcc:	1a000001 	bne	50002fd8 <tsee_mempg_protect+0x44>
/home/liwenhaosuper/data/trustkernel/tsee/tsee/tsee/tee/dispatch.c:145
50002fd0:	e3a03001 	mov	r3, #1
50002fd4:	ea000017 	b	50003038 <tsee_mempg_protect+0xa4>
/home/liwenhaosuper/data/trustkernel/tsee/tsee/tsee/tee/dispatch.c:146
50002fd8:	e51b3008 	ldr	r3, [fp, #-8]
50002fdc:	e1a032a3 	lsr	r3, r3, #5
50002fe0:	e50b300c 	str	r3, [fp, #-12]
/home/liwenhaosuper/data/trustkernel/tsee/tsee/tsee/tee/dispatch.c:147
50002fe4:	e30c3118 	movw	r3, #49432	; 0xc118
50002fe8:	e3453000 	movt	r3, #20480	; 0x5000
50002fec:	e5933048 	ldr	r3, [r3, #72]	; 0x48
50002ff0:	e50b3010 	str	r3, [fp, #-16]
/home/liwenhaosuper/data/trustkernel/tsee/tsee/tsee/tee/dispatch.c:148
50002ff4:	e51b300c 	ldr	r3, [fp, #-12]
50002ff8:	e1a03103 	lsl	r3, r3, #2
50002ffc:	e51b2010 	ldr	r2, [fp, #-16]
50003000:	e0823003 	add	r3, r2, r3
50003004:	e50b3010 	str	r3, [fp, #-16]
/home/liwenhaosuper/data/trustkernel/tsee/tsee/tsee/tee/dispatch.c:149
50003008:	e51b3008 	ldr	r3, [fp, #-8]
5000300c:	e203301f 	and	r3, r3, #31
50003010:	e50b3014 	str	r3, [fp, #-20]	; 0xffffffec
/home/liwenhaosuper/data/trustkernel/tsee/tsee/tsee/tee/dispatch.c:151
50003014:	e51b3010 	ldr	r3, [fp, #-16]
50003018:	e5932000 	ldr	r2, [r3]
5000301c:	e51b3014 	ldr	r3, [fp, #-20]	; 0xffffffec
50003020:	e3a01001 	mov	r1, #1
50003024:	e1a03311 	lsl	r3, r1, r3
50003028:	e1822003 	orr	r2, r2, r3
5000302c:	e51b3010 	ldr	r3, [fp, #-16]
50003030:	e5832000 	str	r2, [r3]
/home/liwenhaosuper/data/trustkernel/tsee/tsee/tsee/tee/dispatch.c:153
50003034:	e3a03000 	mov	r3, #0
/home/liwenhaosuper/data/trustkernel/tsee/tsee/tsee/tee/dispatch.c:154
50003038:	e1a00003 	mov	r0, r3
5000303c:	e24bd004 	sub	sp, fp, #4
50003040:	e8bd8800 	pop	{fp, pc}

50003044 <tsee_mempg_unprotect>:
tsee_mempg_unprotect():
/home/liwenhaosuper/data/trustkernel/tsee/tsee/tsee/tee/dispatch.c:155
50003044:	e92d4800 	push	{fp, lr}
50003048:	e28db004 	add	fp, sp, #4
5000304c:	e24dd018 	sub	sp, sp, #24
50003050:	e50b0018 	str	r0, [fp, #-24]	; 0xffffffe8
/home/liwenhaosuper/data/trustkernel/tsee/tsee/tsee/tee/dispatch.c:161
50003054:	e51b3018 	ldr	r3, [fp, #-24]	; 0xffffffe8
50003058:	e3c33a01 	bic	r3, r3, #4096	; 0x1000
5000305c:	e50b3018 	str	r3, [fp, #-24]	; 0xffffffe8
/home/liwenhaosuper/data/trustkernel/tsee/tsee/tsee/tee/dispatch.c:162
50003060:	e51b0018 	ldr	r0, [fp, #-24]	; 0xffffffe8
50003064:	e3023e5c 	movw	r3, #11868	; 0x2e5c
50003068:	e3453000 	movt	r3, #20480	; 0x5000
5000306c:	e12fff33 	blx	r3
50003070:	e50b0008 	str	r0, [fp, #-8]
/home/liwenhaosuper/data/trustkernel/tsee/tsee/tsee/tee/dispatch.c:163
50003074:	e51b3008 	ldr	r3, [fp, #-8]
50003078:	e3730001 	cmn	r3, #1
5000307c:	1a000001 	bne	50003088 <tsee_mempg_unprotect+0x44>
/home/liwenhaosuper/data/trustkernel/tsee/tsee/tsee/tee/dispatch.c:164
50003080:	e3a03001 	mov	r3, #1
50003084:	ea000018 	b	500030ec <tsee_mempg_unprotect+0xa8>
/home/liwenhaosuper/data/trustkernel/tsee/tsee/tsee/tee/dispatch.c:165
50003088:	e51b3008 	ldr	r3, [fp, #-8]
5000308c:	e1a032a3 	lsr	r3, r3, #5
50003090:	e50b300c 	str	r3, [fp, #-12]
/home/liwenhaosuper/data/trustkernel/tsee/tsee/tsee/tee/dispatch.c:166
50003094:	e30c3118 	movw	r3, #49432	; 0xc118
50003098:	e3453000 	movt	r3, #20480	; 0x5000
5000309c:	e5933048 	ldr	r3, [r3, #72]	; 0x48
500030a0:	e50b3010 	str	r3, [fp, #-16]
/home/liwenhaosuper/data/trustkernel/tsee/tsee/tsee/tee/dispatch.c:167
500030a4:	e51b300c 	ldr	r3, [fp, #-12]
500030a8:	e1a03103 	lsl	r3, r3, #2
500030ac:	e51b2010 	ldr	r2, [fp, #-16]
500030b0:	e0823003 	add	r3, r2, r3
500030b4:	e50b3010 	str	r3, [fp, #-16]
/home/liwenhaosuper/data/trustkernel/tsee/tsee/tsee/tee/dispatch.c:168
500030b8:	e51b3008 	ldr	r3, [fp, #-8]
500030bc:	e203301f 	and	r3, r3, #31
500030c0:	e50b3014 	str	r3, [fp, #-20]	; 0xffffffec
/home/liwenhaosuper/data/trustkernel/tsee/tsee/tsee/tee/dispatch.c:170
500030c4:	e51b3010 	ldr	r3, [fp, #-16]
500030c8:	e5932000 	ldr	r2, [r3]
500030cc:	e51b3014 	ldr	r3, [fp, #-20]	; 0xffffffec
500030d0:	e3a01001 	mov	r1, #1
500030d4:	e1a03311 	lsl	r3, r1, r3
500030d8:	e1e03003 	mvn	r3, r3
500030dc:	e0022003 	and	r2, r2, r3
500030e0:	e51b3010 	ldr	r3, [fp, #-16]
500030e4:	e5832000 	str	r2, [r3]
/home/liwenhaosuper/data/trustkernel/tsee/tsee/tsee/tee/dispatch.c:172
500030e8:	e3a03000 	mov	r3, #0
/home/liwenhaosuper/data/trustkernel/tsee/tsee/tsee/tee/dispatch.c:173
500030ec:	e1a00003 	mov	r0, r3
500030f0:	e24bd004 	sub	sp, fp, #4
500030f4:	e8bd8800 	pop	{fp, pc}

500030f8 <tsee_is_mempg_protected>:
tsee_is_mempg_protected():
/home/liwenhaosuper/data/trustkernel/tsee/tsee/tsee/tee/dispatch.c:174
500030f8:	e92d4800 	push	{fp, lr}
500030fc:	e28db004 	add	fp, sp, #4
50003100:	e24dd020 	sub	sp, sp, #32
50003104:	e50b0020 	str	r0, [fp, #-32]	; 0xffffffe0
/home/liwenhaosuper/data/trustkernel/tsee/tsee/tsee/tee/dispatch.c:181
50003108:	e51b3020 	ldr	r3, [fp, #-32]	; 0xffffffe0
5000310c:	e3c33a01 	bic	r3, r3, #4096	; 0x1000
50003110:	e50b3020 	str	r3, [fp, #-32]	; 0xffffffe0
/home/liwenhaosuper/data/trustkernel/tsee/tsee/tsee/tee/dispatch.c:182
50003114:	e51b0020 	ldr	r0, [fp, #-32]	; 0xffffffe0
50003118:	e3023e5c 	movw	r3, #11868	; 0x2e5c
5000311c:	e3453000 	movt	r3, #20480	; 0x5000
50003120:	e12fff33 	blx	r3
50003124:	e50b0008 	str	r0, [fp, #-8]
/home/liwenhaosuper/data/trustkernel/tsee/tsee/tsee/tee/dispatch.c:183
50003128:	e51b3008 	ldr	r3, [fp, #-8]
5000312c:	e3730001 	cmn	r3, #1
50003130:	1a000001 	bne	5000313c <tsee_is_mempg_protected+0x44>
/home/liwenhaosuper/data/trustkernel/tsee/tsee/tsee/tee/dispatch.c:184
50003134:	e3a03000 	mov	r3, #0
50003138:	ea000019 	b	500031a4 <tsee_is_mempg_protected+0xac>
/home/liwenhaosuper/data/trustkernel/tsee/tsee/tsee/tee/dispatch.c:185
5000313c:	e51b3008 	ldr	r3, [fp, #-8]
50003140:	e1a032a3 	lsr	r3, r3, #5
50003144:	e50b300c 	str	r3, [fp, #-12]
/home/liwenhaosuper/data/trustkernel/tsee/tsee/tsee/tee/dispatch.c:186
50003148:	e30c3118 	movw	r3, #49432	; 0xc118
5000314c:	e3453000 	movt	r3, #20480	; 0x5000
50003150:	e5933048 	ldr	r3, [r3, #72]	; 0x48
50003154:	e50b3010 	str	r3, [fp, #-16]
/home/liwenhaosuper/data/trustkernel/tsee/tsee/tsee/tee/dispatch.c:187
50003158:	e51b300c 	ldr	r3, [fp, #-12]
5000315c:	e1a03103 	lsl	r3, r3, #2
50003160:	e51b2010 	ldr	r2, [fp, #-16]
50003164:	e0823003 	add	r3, r2, r3
50003168:	e50b3010 	str	r3, [fp, #-16]
/home/liwenhaosuper/data/trustkernel/tsee/tsee/tsee/tee/dispatch.c:188
5000316c:	e51b3008 	ldr	r3, [fp, #-8]
50003170:	e203301f 	and	r3, r3, #31
50003174:	e50b3014 	str	r3, [fp, #-20]	; 0xffffffec
/home/liwenhaosuper/data/trustkernel/tsee/tsee/tsee/tee/dispatch.c:190
50003178:	e51b3010 	ldr	r3, [fp, #-16]
5000317c:	e5932000 	ldr	r2, [r3]
50003180:	e51b3014 	ldr	r3, [fp, #-20]	; 0xffffffec
50003184:	e3a01001 	mov	r1, #1
50003188:	e1a03311 	lsl	r3, r1, r3
5000318c:	e0023003 	and	r3, r2, r3
50003190:	e3530000 	cmp	r3, #0
50003194:	03a03000 	moveq	r3, #0
50003198:	13a03001 	movne	r3, #1
5000319c:	e50b3018 	str	r3, [fp, #-24]	; 0xffffffe8
/home/liwenhaosuper/data/trustkernel/tsee/tsee/tsee/tee/dispatch.c:191
500031a0:	e51b3018 	ldr	r3, [fp, #-24]	; 0xffffffe8
/home/liwenhaosuper/data/trustkernel/tsee/tsee/tsee/tee/dispatch.c:192
500031a4:	e1a00003 	mov	r0, r3
500031a8:	e24bd004 	sub	sp, fp, #4
500031ac:	e8bd8800 	pop	{fp, pc}

500031b0 <tsee_ns_main>:
tsee_ns_main():
/home/liwenhaosuper/data/trustkernel/tsee/tsee/tsee/tee/dispatch.c:198
500031b0:	e92d4800 	push	{fp, lr}
500031b4:	e28db004 	add	fp, sp, #4
500031b8:	e24dd038 	sub	sp, sp, #56	; 0x38
500031bc:	e50b0010 	str	r0, [fp, #-16]
500031c0:	e50b1014 	str	r1, [fp, #-20]	; 0xffffffec
500031c4:	e50b2018 	str	r2, [fp, #-24]	; 0xffffffe8
500031c8:	e50b301c 	str	r3, [fp, #-28]	; 0xffffffe4
/home/liwenhaosuper/data/trustkernel/tsee/tsee/tsee/tee/dispatch.c:200
500031cc:	e3093620 	movw	r3, #38432	; 0x9620
500031d0:	e3453000 	movt	r3, #20480	; 0x5000
500031d4:	e58d3000 	str	r3, [sp]
500031d8:	e51b3010 	ldr	r3, [fp, #-16]
500031dc:	e58d3004 	str	r3, [sp, #4]
500031e0:	e51b3014 	ldr	r3, [fp, #-20]	; 0xffffffec
500031e4:	e58d3008 	str	r3, [sp, #8]
500031e8:	e51b3018 	ldr	r3, [fp, #-24]	; 0xffffffe8
500031ec:	e58d300c 	str	r3, [sp, #12]
500031f0:	e51b301c 	ldr	r3, [fp, #-28]	; 0xffffffe4
500031f4:	e58d3010 	str	r3, [sp, #16]
500031f8:	e59b3004 	ldr	r3, [fp, #4]
500031fc:	e58d3014 	str	r3, [sp, #20]
50003200:	e59b3008 	ldr	r3, [fp, #8]
50003204:	e58d3018 	str	r3, [sp, #24]
50003208:	e3090d7c 	movw	r0, #40316	; 0x9d7c
5000320c:	e3450000 	movt	r0, #20480	; 0x5000
50003210:	e3a010c8 	mov	r1, #200	; 0xc8
50003214:	e3a02003 	mov	r2, #3
50003218:	e3a03001 	mov	r3, #1
5000321c:	e306cc80 	movw	ip, #27776	; 0x6c80
50003220:	e345c000 	movt	ip, #20480	; 0x5000
50003224:	e12fff3c 	blx	ip
/home/liwenhaosuper/data/trustkernel/tsee/tsee/tsee/tee/dispatch.c:201
50003228:	e51b2010 	ldr	r2, [fp, #-16]
5000322c:	e30b3e50 	movw	r3, #48720	; 0xbe50
50003230:	e34d3ead 	movt	r3, #57005	; 0xdead
50003234:	e1520003 	cmp	r2, r3
50003238:	0a000004 	beq	50003250 <tsee_ns_main+0xa0>
5000323c:	e30b3e51 	movw	r3, #48721	; 0xbe51
50003240:	e34d3ead 	movt	r3, #57005	; 0xdead
50003244:	e1520003 	cmp	r2, r3
50003248:	0a00006f 	beq	5000340c <tsee_ns_main+0x25c>
5000324c:	ea0000dd 	b	500035c8 <tsee_ns_main+0x418>
/home/liwenhaosuper/data/trustkernel/tsee/tsee/tsee/tee/dispatch.c:204
50003250:	e51b2014 	ldr	r2, [fp, #-20]	; 0xffffffec
50003254:	e51b3018 	ldr	r3, [fp, #-24]	; 0xffffffe8
50003258:	e0822003 	add	r2, r2, r3
5000325c:	e309364c 	movw	r3, #38476	; 0x964c
50003260:	e3453000 	movt	r3, #20480	; 0x5000
50003264:	e58d3000 	str	r3, [sp]
50003268:	e51b3014 	ldr	r3, [fp, #-20]	; 0xffffffec
5000326c:	e58d3004 	str	r3, [sp, #4]
50003270:	e58d2008 	str	r2, [sp, #8]
50003274:	e3090d7c 	movw	r0, #40316	; 0x9d7c
50003278:	e3450000 	movt	r0, #20480	; 0x5000
5000327c:	e3a010cc 	mov	r1, #204	; 0xcc
50003280:	e3a02003 	mov	r2, #3
50003284:	e3a03001 	mov	r3, #1
50003288:	e306cc80 	movw	ip, #27776	; 0x6c80
5000328c:	e345c000 	movt	ip, #20480	; 0x5000
50003290:	e12fff3c 	blx	ip
/home/liwenhaosuper/data/trustkernel/tsee/tsee/tsee/tee/dispatch.c:206
50003294:	e30c3118 	movw	r3, #49432	; 0xc118
50003298:	e3453000 	movt	r3, #20480	; 0x5000
5000329c:	e5932050 	ldr	r2, [r3, #80]	; 0x50
500032a0:	e51b3014 	ldr	r3, [fp, #-20]	; 0xffffffec
500032a4:	e1520003 	cmp	r2, r3
500032a8:	9a000007 	bls	500032cc <tsee_ns_main+0x11c>
500032ac:	e51b2014 	ldr	r2, [fp, #-20]	; 0xffffffec
500032b0:	e51b3018 	ldr	r3, [fp, #-24]	; 0xffffffe8
500032b4:	e0822003 	add	r2, r2, r3
500032b8:	e30c3118 	movw	r3, #49432	; 0xc118
500032bc:	e3453000 	movt	r3, #20480	; 0x5000
500032c0:	e593304c 	ldr	r3, [r3, #76]	; 0x4c
500032c4:	e1520003 	cmp	r2, r3
500032c8:	8a00003d 	bhi	500033c4 <tsee_ns_main+0x214>
/home/liwenhaosuper/data/trustkernel/tsee/tsee/tsee/tee/dispatch.c:207
500032cc:	e30c3118 	movw	r3, #49432	; 0xc118
500032d0:	e3453000 	movt	r3, #20480	; 0x5000
500032d4:	e5932058 	ldr	r2, [r3, #88]	; 0x58
/home/liwenhaosuper/data/trustkernel/tsee/tsee/tsee/tee/dispatch.c:206
500032d8:	e51b3014 	ldr	r3, [fp, #-20]	; 0xffffffec
500032dc:	e1520003 	cmp	r2, r3
500032e0:	9a000007 	bls	50003304 <tsee_ns_main+0x154>
/home/liwenhaosuper/data/trustkernel/tsee/tsee/tsee/tee/dispatch.c:207
500032e4:	e51b2014 	ldr	r2, [fp, #-20]	; 0xffffffec
500032e8:	e51b3018 	ldr	r3, [fp, #-24]	; 0xffffffe8
500032ec:	e0822003 	add	r2, r2, r3
500032f0:	e30c3118 	movw	r3, #49432	; 0xc118
500032f4:	e3453000 	movt	r3, #20480	; 0x5000
500032f8:	e5933054 	ldr	r3, [r3, #84]	; 0x54
500032fc:	e1520003 	cmp	r2, r3
50003300:	8a00002f 	bhi	500033c4 <tsee_ns_main+0x214>
/home/liwenhaosuper/data/trustkernel/tsee/tsee/tsee/tee/dispatch.c:208
50003304:	e30c3118 	movw	r3, #49432	; 0xc118
50003308:	e3453000 	movt	r3, #20480	; 0x5000
5000330c:	e5932060 	ldr	r2, [r3, #96]	; 0x60
/home/liwenhaosuper/data/trustkernel/tsee/tsee/tsee/tee/dispatch.c:207
50003310:	e51b3014 	ldr	r3, [fp, #-20]	; 0xffffffec
50003314:	e1520003 	cmp	r2, r3
50003318:	9a000007 	bls	5000333c <tsee_ns_main+0x18c>
/home/liwenhaosuper/data/trustkernel/tsee/tsee/tsee/tee/dispatch.c:208
5000331c:	e51b2014 	ldr	r2, [fp, #-20]	; 0xffffffec
50003320:	e51b3018 	ldr	r3, [fp, #-24]	; 0xffffffe8
50003324:	e0822003 	add	r2, r2, r3
50003328:	e30c3118 	movw	r3, #49432	; 0xc118
5000332c:	e3453000 	movt	r3, #20480	; 0x5000
50003330:	e593305c 	ldr	r3, [r3, #92]	; 0x5c
50003334:	e1520003 	cmp	r2, r3
50003338:	8a000021 	bhi	500033c4 <tsee_ns_main+0x214>
/home/liwenhaosuper/data/trustkernel/tsee/tsee/tsee/tee/dispatch.c:209
5000333c:	e51b3014 	ldr	r3, [fp, #-20]	; 0xffffffec
50003340:	e50b3008 	str	r3, [fp, #-8]
50003344:	ea000016 	b	500033a4 <tsee_ns_main+0x1f4>
/home/liwenhaosuper/data/trustkernel/tsee/tsee/tsee/tee/dispatch.c:210
50003348:	e51b0008 	ldr	r0, [fp, #-8]
5000334c:	e3023f94 	movw	r3, #12180	; 0x2f94
50003350:	e3453000 	movt	r3, #20480	; 0x5000
50003354:	e12fff33 	blx	r3
50003358:	e1a03000 	mov	r3, r0
5000335c:	e3530000 	cmp	r3, #0
50003360:	0a00000c 	beq	50003398 <tsee_ns_main+0x1e8>
/home/liwenhaosuper/data/trustkernel/tsee/tsee/tsee/tee/dispatch.c:211
50003364:	e3093678 	movw	r3, #38520	; 0x9678
50003368:	e3453000 	movt	r3, #20480	; 0x5000
5000336c:	e58d3000 	str	r3, [sp]
50003370:	e51b3008 	ldr	r3, [fp, #-8]
50003374:	e58d3004 	str	r3, [sp, #4]
50003378:	e3090d7c 	movw	r0, #40316	; 0x9d7c
5000337c:	e3450000 	movt	r0, #20480	; 0x5000
50003380:	e3a010d3 	mov	r1, #211	; 0xd3
50003384:	e3a02001 	mov	r2, #1
50003388:	e3a03001 	mov	r3, #1
5000338c:	e306cc80 	movw	ip, #27776	; 0x6c80
50003390:	e345c000 	movt	ip, #20480	; 0x5000
50003394:	e12fff3c 	blx	ip
/home/liwenhaosuper/data/trustkernel/tsee/tsee/tsee/tee/dispatch.c:209
50003398:	e51b3008 	ldr	r3, [fp, #-8]
5000339c:	e2833a01 	add	r3, r3, #4096	; 0x1000
500033a0:	e50b3008 	str	r3, [fp, #-8]
500033a4:	e51b2014 	ldr	r2, [fp, #-20]	; 0xffffffec
500033a8:	e51b3018 	ldr	r3, [fp, #-24]	; 0xffffffe8
500033ac:	e0822003 	add	r2, r2, r3
500033b0:	e51b3008 	ldr	r3, [fp, #-8]
500033b4:	e1520003 	cmp	r2, r3
500033b8:	8affffe2 	bhi	50003348 <tsee_ns_main+0x198>
/home/liwenhaosuper/data/trustkernel/tsee/tsee/tsee/tee/dispatch.c:206
500033bc:	e1a00000 	nop			; (mov r0, r0)
/home/liwenhaosuper/data/trustkernel/tsee/tsee/tsee/tee/dispatch.c:218
500033c0:	ea000098 	b	50003628 <tsee_ns_main+0x478>
/home/liwenhaosuper/data/trustkernel/tsee/tsee/tsee/tee/dispatch.c:216
500033c4:	e51b2014 	ldr	r2, [fp, #-20]	; 0xffffffec
500033c8:	e51b3018 	ldr	r3, [fp, #-24]	; 0xffffffe8
500033cc:	e0822003 	add	r2, r2, r3
500033d0:	e3093690 	movw	r3, #38544	; 0x9690
500033d4:	e3453000 	movt	r3, #20480	; 0x5000
500033d8:	e58d3000 	str	r3, [sp]
500033dc:	e51b3014 	ldr	r3, [fp, #-20]	; 0xffffffec
500033e0:	e58d3004 	str	r3, [sp, #4]
500033e4:	e58d2008 	str	r2, [sp, #8]
500033e8:	e3090d7c 	movw	r0, #40316	; 0x9d7c
500033ec:	e3450000 	movt	r0, #20480	; 0x5000
500033f0:	e3a010d8 	mov	r1, #216	; 0xd8
500033f4:	e3a02001 	mov	r2, #1
500033f8:	e3a03001 	mov	r3, #1
500033fc:	e306cc80 	movw	ip, #27776	; 0x6c80
50003400:	e345c000 	movt	ip, #20480	; 0x5000
50003404:	e12fff3c 	blx	ip
/home/liwenhaosuper/data/trustkernel/tsee/tsee/tsee/tee/dispatch.c:218
50003408:	ea000086 	b	50003628 <tsee_ns_main+0x478>
/home/liwenhaosuper/data/trustkernel/tsee/tsee/tsee/tee/dispatch.c:220
5000340c:	e51b2014 	ldr	r2, [fp, #-20]	; 0xffffffec
50003410:	e51b3018 	ldr	r3, [fp, #-24]	; 0xffffffe8
50003414:	e0822003 	add	r2, r2, r3
50003418:	e30936c8 	movw	r3, #38600	; 0x96c8
5000341c:	e3453000 	movt	r3, #20480	; 0x5000
50003420:	e58d3000 	str	r3, [sp]
50003424:	e51b3014 	ldr	r3, [fp, #-20]	; 0xffffffec
50003428:	e58d3004 	str	r3, [sp, #4]
5000342c:	e58d2008 	str	r2, [sp, #8]
50003430:	e3090d7c 	movw	r0, #40316	; 0x9d7c
50003434:	e3450000 	movt	r0, #20480	; 0x5000
50003438:	e3a010dc 	mov	r1, #220	; 0xdc
5000343c:	e3a02003 	mov	r2, #3
50003440:	e3a03001 	mov	r3, #1
50003444:	e306cc80 	movw	ip, #27776	; 0x6c80
50003448:	e345c000 	movt	ip, #20480	; 0x5000
5000344c:	e12fff3c 	blx	ip
/home/liwenhaosuper/data/trustkernel/tsee/tsee/tsee/tee/dispatch.c:222
50003450:	e30c3118 	movw	r3, #49432	; 0xc118
50003454:	e3453000 	movt	r3, #20480	; 0x5000
50003458:	e5932050 	ldr	r2, [r3, #80]	; 0x50
5000345c:	e51b3014 	ldr	r3, [fp, #-20]	; 0xffffffec
50003460:	e1520003 	cmp	r2, r3
50003464:	9a000007 	bls	50003488 <tsee_ns_main+0x2d8>
50003468:	e51b2014 	ldr	r2, [fp, #-20]	; 0xffffffec
5000346c:	e51b3018 	ldr	r3, [fp, #-24]	; 0xffffffe8
50003470:	e0822003 	add	r2, r2, r3
50003474:	e30c3118 	movw	r3, #49432	; 0xc118
50003478:	e3453000 	movt	r3, #20480	; 0x5000
5000347c:	e593304c 	ldr	r3, [r3, #76]	; 0x4c
50003480:	e1520003 	cmp	r2, r3
50003484:	8a00003d 	bhi	50003580 <tsee_ns_main+0x3d0>
/home/liwenhaosuper/data/trustkernel/tsee/tsee/tsee/tee/dispatch.c:223
50003488:	e30c3118 	movw	r3, #49432	; 0xc118
5000348c:	e3453000 	movt	r3, #20480	; 0x5000
50003490:	e5932058 	ldr	r2, [r3, #88]	; 0x58
/home/liwenhaosuper/data/trustkernel/tsee/tsee/tsee/tee/dispatch.c:222
50003494:	e51b3014 	ldr	r3, [fp, #-20]	; 0xffffffec
50003498:	e1520003 	cmp	r2, r3
5000349c:	9a000007 	bls	500034c0 <tsee_ns_main+0x310>
/home/liwenhaosuper/data/trustkernel/tsee/tsee/tsee/tee/dispatch.c:223
500034a0:	e51b2014 	ldr	r2, [fp, #-20]	; 0xffffffec
500034a4:	e51b3018 	ldr	r3, [fp, #-24]	; 0xffffffe8
500034a8:	e0822003 	add	r2, r2, r3
500034ac:	e30c3118 	movw	r3, #49432	; 0xc118
500034b0:	e3453000 	movt	r3, #20480	; 0x5000
500034b4:	e5933054 	ldr	r3, [r3, #84]	; 0x54
500034b8:	e1520003 	cmp	r2, r3
500034bc:	8a00002f 	bhi	50003580 <tsee_ns_main+0x3d0>
/home/liwenhaosuper/data/trustkernel/tsee/tsee/tsee/tee/dispatch.c:224
500034c0:	e30c3118 	movw	r3, #49432	; 0xc118
500034c4:	e3453000 	movt	r3, #20480	; 0x5000
500034c8:	e5932060 	ldr	r2, [r3, #96]	; 0x60
/home/liwenhaosuper/data/trustkernel/tsee/tsee/tsee/tee/dispatch.c:223
500034cc:	e51b3014 	ldr	r3, [fp, #-20]	; 0xffffffec
500034d0:	e1520003 	cmp	r2, r3
500034d4:	9a000007 	bls	500034f8 <tsee_ns_main+0x348>
/home/liwenhaosuper/data/trustkernel/tsee/tsee/tsee/tee/dispatch.c:224
500034d8:	e51b2014 	ldr	r2, [fp, #-20]	; 0xffffffec
500034dc:	e51b3018 	ldr	r3, [fp, #-24]	; 0xffffffe8
500034e0:	e0822003 	add	r2, r2, r3
500034e4:	e30c3118 	movw	r3, #49432	; 0xc118
500034e8:	e3453000 	movt	r3, #20480	; 0x5000
500034ec:	e593305c 	ldr	r3, [r3, #92]	; 0x5c
500034f0:	e1520003 	cmp	r2, r3
500034f4:	8a000021 	bhi	50003580 <tsee_ns_main+0x3d0>
/home/liwenhaosuper/data/trustkernel/tsee/tsee/tsee/tee/dispatch.c:225
500034f8:	e51b3014 	ldr	r3, [fp, #-20]	; 0xffffffec
500034fc:	e50b3008 	str	r3, [fp, #-8]
50003500:	ea000016 	b	50003560 <tsee_ns_main+0x3b0>
/home/liwenhaosuper/data/trustkernel/tsee/tsee/tsee/tee/dispatch.c:226
50003504:	e51b0008 	ldr	r0, [fp, #-8]
50003508:	e3033044 	movw	r3, #12356	; 0x3044
5000350c:	e3453000 	movt	r3, #20480	; 0x5000
50003510:	e12fff33 	blx	r3
50003514:	e1a03000 	mov	r3, r0
50003518:	e3530000 	cmp	r3, #0
5000351c:	0a00000c 	beq	50003554 <tsee_ns_main+0x3a4>
/home/liwenhaosuper/data/trustkernel/tsee/tsee/tsee/tee/dispatch.c:227
50003520:	e30936f8 	movw	r3, #38648	; 0x96f8
50003524:	e3453000 	movt	r3, #20480	; 0x5000
50003528:	e58d3000 	str	r3, [sp]
5000352c:	e51b3008 	ldr	r3, [fp, #-8]
50003530:	e58d3004 	str	r3, [sp, #4]
50003534:	e3090d7c 	movw	r0, #40316	; 0x9d7c
50003538:	e3450000 	movt	r0, #20480	; 0x5000
5000353c:	e3a010e3 	mov	r1, #227	; 0xe3
50003540:	e3a02001 	mov	r2, #1
50003544:	e3a03001 	mov	r3, #1
50003548:	e306cc80 	movw	ip, #27776	; 0x6c80
5000354c:	e345c000 	movt	ip, #20480	; 0x5000
50003550:	e12fff3c 	blx	ip
/home/liwenhaosuper/data/trustkernel/tsee/tsee/tsee/tee/dispatch.c:225
50003554:	e51b3008 	ldr	r3, [fp, #-8]
50003558:	e2833a01 	add	r3, r3, #4096	; 0x1000
5000355c:	e50b3008 	str	r3, [fp, #-8]
50003560:	e51b2014 	ldr	r2, [fp, #-20]	; 0xffffffec
50003564:	e51b3018 	ldr	r3, [fp, #-24]	; 0xffffffe8
50003568:	e0822003 	add	r2, r2, r3
5000356c:	e51b3008 	ldr	r3, [fp, #-8]
50003570:	e1520003 	cmp	r2, r3
50003574:	8affffe2 	bhi	50003504 <tsee_ns_main+0x354>
/home/liwenhaosuper/data/trustkernel/tsee/tsee/tsee/tee/dispatch.c:222
50003578:	e1a00000 	nop			; (mov r0, r0)
/home/liwenhaosuper/data/trustkernel/tsee/tsee/tsee/tee/dispatch.c:233
5000357c:	ea000029 	b	50003628 <tsee_ns_main+0x478>
/home/liwenhaosuper/data/trustkernel/tsee/tsee/tsee/tee/dispatch.c:231
50003580:	e51b2014 	ldr	r2, [fp, #-20]	; 0xffffffec
50003584:	e51b3018 	ldr	r3, [fp, #-24]	; 0xffffffe8
50003588:	e0822003 	add	r2, r2, r3
5000358c:	e3093710 	movw	r3, #38672	; 0x9710
50003590:	e3453000 	movt	r3, #20480	; 0x5000
50003594:	e58d3000 	str	r3, [sp]
50003598:	e51b3014 	ldr	r3, [fp, #-20]	; 0xffffffec
5000359c:	e58d3004 	str	r3, [sp, #4]
500035a0:	e58d2008 	str	r2, [sp, #8]
500035a4:	e3090d7c 	movw	r0, #40316	; 0x9d7c
500035a8:	e3450000 	movt	r0, #20480	; 0x5000
500035ac:	e3a010e7 	mov	r1, #231	; 0xe7
500035b0:	e3a02001 	mov	r2, #1
500035b4:	e3a03001 	mov	r3, #1
500035b8:	e306cc80 	movw	ip, #27776	; 0x6c80
500035bc:	e345c000 	movt	ip, #20480	; 0x5000
500035c0:	e12fff3c 	blx	ip
/home/liwenhaosuper/data/trustkernel/tsee/tsee/tsee/tee/dispatch.c:233
500035c4:	ea000017 	b	50003628 <tsee_ns_main+0x478>
/home/liwenhaosuper/data/trustkernel/tsee/tsee/tsee/tee/dispatch.c:235
500035c8:	e3093748 	movw	r3, #38728	; 0x9748
500035cc:	e3453000 	movt	r3, #20480	; 0x5000
500035d0:	e58d3000 	str	r3, [sp]
500035d4:	e51b3010 	ldr	r3, [fp, #-16]
500035d8:	e58d3004 	str	r3, [sp, #4]
500035dc:	e51b3014 	ldr	r3, [fp, #-20]	; 0xffffffec
500035e0:	e58d3008 	str	r3, [sp, #8]
500035e4:	e51b3018 	ldr	r3, [fp, #-24]	; 0xffffffe8
500035e8:	e58d300c 	str	r3, [sp, #12]
500035ec:	e51b301c 	ldr	r3, [fp, #-28]	; 0xffffffe4
500035f0:	e58d3010 	str	r3, [sp, #16]
500035f4:	e59b3004 	ldr	r3, [fp, #4]
500035f8:	e58d3014 	str	r3, [sp, #20]
500035fc:	e59b3008 	ldr	r3, [fp, #8]
50003600:	e58d3018 	str	r3, [sp, #24]
50003604:	e3090d7c 	movw	r0, #40316	; 0x9d7c
50003608:	e3450000 	movt	r0, #20480	; 0x5000
5000360c:	e3a010eb 	mov	r1, #235	; 0xeb
50003610:	e3a02003 	mov	r2, #3
50003614:	e3a03001 	mov	r3, #1
50003618:	e306cc80 	movw	ip, #27776	; 0x6c80
5000361c:	e345c000 	movt	ip, #20480	; 0x5000
50003620:	e12fff3c 	blx	ip
/home/liwenhaosuper/data/trustkernel/tsee/tsee/tsee/tee/dispatch.c:236
50003624:	e1a00000 	nop			; (mov r0, r0)
/home/liwenhaosuper/data/trustkernel/tsee/tsee/tsee/tee/dispatch.c:238
50003628:	e3a03000 	mov	r3, #0
/home/liwenhaosuper/data/trustkernel/tsee/tsee/tsee/tee/dispatch.c:239
5000362c:	e1a00003 	mov	r0, r3
50003630:	e24bd004 	sub	sp, fp, #4
50003634:	e8bd8800 	pop	{fp, pc}

50003638 <tsee_main>:
tsee_main():
/home/liwenhaosuper/data/trustkernel/tsee/tsee/tsee/tee/dispatch.c:242
50003638:	e92d4800 	push	{fp, lr}
5000363c:	e28db004 	add	fp, sp, #4
50003640:	e24dd030 	sub	sp, sp, #48	; 0x30
50003644:	e50b0010 	str	r0, [fp, #-16]
50003648:	e50b1014 	str	r1, [fp, #-20]	; 0xffffffec
5000364c:	e50b2018 	str	r2, [fp, #-24]	; 0xffffffe8
50003650:	e50b301c 	str	r3, [fp, #-28]	; 0xffffffe4
/home/liwenhaosuper/data/trustkernel/tsee/tsee/tsee/tee/dispatch.c:247
50003654:	e3053208 	movw	r3, #21000	; 0x5208
50003658:	e3453000 	movt	r3, #20480	; 0x5000
5000365c:	e12fff33 	blx	r3
50003660:	e1a03000 	mov	r3, r0
50003664:	e3530000 	cmp	r3, #0
50003668:	0a000046 	beq	50003788 <tsee_main+0x150>
/home/liwenhaosuper/data/trustkernel/tsee/tsee/tsee/tee/dispatch.c:249
5000366c:	e30b3018 	movw	r3, #45080	; 0xb018
50003670:	e3453000 	movt	r3, #20480	; 0x5000
50003674:	e5933000 	ldr	r3, [r3]
50003678:	e3530000 	cmp	r3, #0
5000367c:	1a000007 	bne	500036a0 <tsee_main+0x68>
50003680:	e30b3018 	movw	r3, #45080	; 0xb018
50003684:	e3453000 	movt	r3, #20480	; 0x5000
50003688:	e5932004 	ldr	r2, [r3, #4]
5000368c:	e30c3118 	movw	r3, #49432	; 0xc118
50003690:	e3453000 	movt	r3, #20480	; 0x5000
50003694:	e5933028 	ldr	r3, [r3, #40]	; 0x28
50003698:	e1520003 	cmp	r2, r3
5000369c:	0a00000c 	beq	500036d4 <tsee_main+0x9c>
/home/liwenhaosuper/data/trustkernel/tsee/tsee/tsee/tee/dispatch.c:250
500036a0:	e30b3018 	movw	r3, #45080	; 0xb018
500036a4:	e3453000 	movt	r3, #20480	; 0x5000
500036a8:	e5933000 	ldr	r3, [r3]
/home/liwenhaosuper/data/trustkernel/tsee/tsee/tsee/tee/dispatch.c:249
500036ac:	e3530000 	cmp	r3, #0
500036b0:	0a000013 	beq	50003704 <tsee_main+0xcc>
/home/liwenhaosuper/data/trustkernel/tsee/tsee/tsee/tee/dispatch.c:250
500036b4:	e30b3018 	movw	r3, #45080	; 0xb018
500036b8:	e3453000 	movt	r3, #20480	; 0x5000
500036bc:	e5932008 	ldr	r2, [r3, #8]
500036c0:	e30c3118 	movw	r3, #49432	; 0xc118
500036c4:	e3453000 	movt	r3, #20480	; 0x5000
500036c8:	e5933028 	ldr	r3, [r3, #40]	; 0x28
500036cc:	e1520003 	cmp	r2, r3
500036d0:	1a00000b 	bne	50003704 <tsee_main+0xcc>
/home/liwenhaosuper/data/trustkernel/tsee/tsee/tsee/tee/dispatch.c:251
500036d4:	e30b3018 	movw	r3, #45080	; 0xb018
500036d8:	e3453000 	movt	r3, #20480	; 0x5000
500036dc:	e5933010 	ldr	r3, [r3, #16]
/home/liwenhaosuper/data/trustkernel/tsee/tsee/tsee/tee/dispatch.c:250
500036e0:	e373021b 	cmn	r3, #-1342177279	; 0xb0000001
500036e4:	9a000027 	bls	50003788 <tsee_main+0x150>
/home/liwenhaosuper/data/trustkernel/tsee/tsee/tsee/tee/dispatch.c:251
500036e8:	e30b3018 	movw	r3, #45080	; 0xb018
500036ec:	e3453000 	movt	r3, #20480	; 0x5000
500036f0:	e5932010 	ldr	r2, [r3, #16]
500036f4:	e3a03000 	mov	r3, #0
500036f8:	e3453010 	movt	r3, #20496	; 0x5010
500036fc:	e1520003 	cmp	r2, r3
50003700:	8a000020 	bhi	50003788 <tsee_main+0x150>
/home/liwenhaosuper/data/trustkernel/tsee/tsee/tsee/tee/dispatch.c:252
50003704:	e30b3018 	movw	r3, #45080	; 0xb018
50003708:	e3453000 	movt	r3, #20480	; 0x5000
5000370c:	e593e000 	ldr	lr, [r3]
50003710:	e30b3018 	movw	r3, #45080	; 0xb018
50003714:	e3453000 	movt	r3, #20480	; 0x5000
50003718:	e593c008 	ldr	ip, [r3, #8]
5000371c:	e30b3018 	movw	r3, #45080	; 0xb018
50003720:	e3453000 	movt	r3, #20480	; 0x5000
50003724:	e5930004 	ldr	r0, [r3, #4]
50003728:	e30b3018 	movw	r3, #45080	; 0xb018
5000372c:	e3453000 	movt	r3, #20480	; 0x5000
50003730:	e593100c 	ldr	r1, [r3, #12]
50003734:	e30b3018 	movw	r3, #45080	; 0xb018
50003738:	e3453000 	movt	r3, #20480	; 0x5000
5000373c:	e5932010 	ldr	r2, [r3, #16]
50003740:	e309378c 	movw	r3, #38796	; 0x978c
50003744:	e3453000 	movt	r3, #20480	; 0x5000
50003748:	e58d3000 	str	r3, [sp]
5000374c:	e58de004 	str	lr, [sp, #4]
50003750:	e58dc008 	str	ip, [sp, #8]
50003754:	e58d000c 	str	r0, [sp, #12]
50003758:	e58d1010 	str	r1, [sp, #16]
5000375c:	e58d2014 	str	r2, [sp, #20]
50003760:	e3090d70 	movw	r0, #40304	; 0x9d70
50003764:	e3450000 	movt	r0, #20480	; 0x5000
50003768:	e3a010fd 	mov	r1, #253	; 0xfd
5000376c:	e3a02001 	mov	r2, #1
50003770:	e3a03001 	mov	r3, #1
50003774:	e306cc80 	movw	ip, #27776	; 0x6c80
50003778:	e345c000 	movt	ip, #20480	; 0x5000
5000377c:	e12fff3c 	blx	ip
/home/liwenhaosuper/data/trustkernel/tsee/tsee/tsee/tee/dispatch.c:254
50003780:	e3a03001 	mov	r3, #1
50003784:	ea0005d2 	b	50004ed4 <tsee_main+0x189c>
/home/liwenhaosuper/data/trustkernel/tsee/tsee/tsee/tee/dispatch.c:257
50003788:	e51b2010 	ldr	r2, [fp, #-16]
5000378c:	e3a03c42 	mov	r3, #16896	; 0x4200
50003790:	e3423152 	movt	r3, #8530	; 0x2152
50003794:	e0823003 	add	r3, r2, r3
50003798:	e3530041 	cmp	r3, #65	; 0x41
5000379c:	979ff103 	ldrls	pc, [pc, r3, lsl #2]
500037a0:	ea0005b3 	b	50004e74 <tsee_main+0x183c>
500037a4:	500038ac 	.word	0x500038ac
500037a8:	500038dc 	.word	0x500038dc
500037ac:	50004e74 	.word	0x50004e74
500037b0:	50004e74 	.word	0x50004e74
500037b4:	50004e74 	.word	0x50004e74
500037b8:	50004e74 	.word	0x50004e74
500037bc:	50004e74 	.word	0x50004e74
500037c0:	50004e74 	.word	0x50004e74
500037c4:	50004e74 	.word	0x50004e74
500037c8:	50004e74 	.word	0x50004e74
500037cc:	50004e74 	.word	0x50004e74
500037d0:	50004e74 	.word	0x50004e74
500037d4:	50004e74 	.word	0x50004e74
500037d8:	50004e74 	.word	0x50004e74
500037dc:	50004e74 	.word	0x50004e74
500037e0:	50004e74 	.word	0x50004e74
500037e4:	50004e74 	.word	0x50004e74
500037e8:	50004e74 	.word	0x50004e74
500037ec:	50004e74 	.word	0x50004e74
500037f0:	50004e74 	.word	0x50004e74
500037f4:	50004e74 	.word	0x50004e74
500037f8:	50004e74 	.word	0x50004e74
500037fc:	50004e74 	.word	0x50004e74
50003800:	50004e74 	.word	0x50004e74
50003804:	50004e74 	.word	0x50004e74
50003808:	50004e74 	.word	0x50004e74
5000380c:	50004e74 	.word	0x50004e74
50003810:	50004e74 	.word	0x50004e74
50003814:	50004e74 	.word	0x50004e74
50003818:	50004e74 	.word	0x50004e74
5000381c:	50004e74 	.word	0x50004e74
50003820:	50004e74 	.word	0x50004e74
50003824:	50004e74 	.word	0x50004e74
50003828:	50003918 	.word	0x50003918
5000382c:	500039c4 	.word	0x500039c4
50003830:	50003ac8 	.word	0x50003ac8
50003834:	50004ebc 	.word	0x50004ebc
50003838:	50003e48 	.word	0x50003e48
5000383c:	5000495c 	.word	0x5000495c
50003840:	50004998 	.word	0x50004998
50003844:	50004e74 	.word	0x50004e74
50003848:	500049e4 	.word	0x500049e4
5000384c:	50004a24 	.word	0x50004a24
50003850:	50004a84 	.word	0x50004a84
50003854:	50004ae4 	.word	0x50004ae4
50003858:	50004b04 	.word	0x50004b04
5000385c:	50004e74 	.word	0x50004e74
50003860:	50004e74 	.word	0x50004e74
50003864:	50003f1c 	.word	0x50003f1c
50003868:	500041a0 	.word	0x500041a0
5000386c:	50004008 	.word	0x50004008
50003870:	50004338 	.word	0x50004338
50003874:	50004508 	.word	0x50004508
50003878:	500045f4 	.word	0x500045f4
5000387c:	50004790 	.word	0x50004790
50003880:	500047c0 	.word	0x500047c0
50003884:	50004e74 	.word	0x50004e74
50003888:	5000441c 	.word	0x5000441c
5000388c:	50004e74 	.word	0x50004e74
50003890:	50004e74 	.word	0x50004e74
50003894:	50004e74 	.word	0x50004e74
50003898:	50004e74 	.word	0x50004e74
5000389c:	50004e74 	.word	0x50004e74
500038a0:	50004e74 	.word	0x50004e74
500038a4:	50004b8c 	.word	0x50004b8c
500038a8:	50004d00 	.word	0x50004d00
/home/liwenhaosuper/data/trustkernel/tsee/tsee/tsee/tee/dispatch.c:259
500038ac:	e30937d4 	movw	r3, #38868	; 0x97d4
500038b0:	e3453000 	movt	r3, #20480	; 0x5000
500038b4:	e58d3000 	str	r3, [sp]
500038b8:	e3090d70 	movw	r0, #40304	; 0x9d70
500038bc:	e3450000 	movt	r0, #20480	; 0x5000
500038c0:	e3001103 	movw	r1, #259	; 0x103
500038c4:	e3a02003 	mov	r2, #3
500038c8:	e3a03001 	mov	r3, #1
500038cc:	e306cc80 	movw	ip, #27776	; 0x6c80
500038d0:	e345c000 	movt	ip, #20480	; 0x5000
500038d4:	e12fff3c 	blx	ip
/home/liwenhaosuper/data/trustkernel/tsee/tsee/tsee/tee/dispatch.c:260
500038d8:	ea00057c 	b	50004ed0 <tsee_main+0x1898>
/home/liwenhaosuper/data/trustkernel/tsee/tsee/tsee/tee/dispatch.c:262
500038dc:	e30937f0 	movw	r3, #38896	; 0x97f0
500038e0:	e3453000 	movt	r3, #20480	; 0x5000
500038e4:	e58d3000 	str	r3, [sp]
500038e8:	e3090d70 	movw	r0, #40304	; 0x9d70
500038ec:	e3450000 	movt	r0, #20480	; 0x5000
500038f0:	e3001106 	movw	r1, #262	; 0x106
500038f4:	e3a02003 	mov	r2, #3
500038f8:	e3a03001 	mov	r3, #1
500038fc:	e306cc80 	movw	ip, #27776	; 0x6c80
50003900:	e345c000 	movt	ip, #20480	; 0x5000
50003904:	e12fff3c 	blx	ip
/home/liwenhaosuper/data/trustkernel/tsee/tsee/tsee/tee/dispatch.c:263
50003908:	e30630b0 	movw	r3, #24752	; 0x60b0
5000390c:	e3453000 	movt	r3, #20480	; 0x5000
50003910:	e12fff33 	blx	r3
/home/liwenhaosuper/data/trustkernel/tsee/tsee/tsee/tee/dispatch.c:264
50003914:	ea00056d 	b	50004ed0 <tsee_main+0x1898>
/home/liwenhaosuper/data/trustkernel/tsee/tsee/tsee/tee/dispatch.c:270
50003918:	e3093808 	movw	r3, #38920	; 0x9808
5000391c:	e3453000 	movt	r3, #20480	; 0x5000
50003920:	e58d3000 	str	r3, [sp]
50003924:	e3090d70 	movw	r0, #40304	; 0x9d70
50003928:	e3450000 	movt	r0, #20480	; 0x5000
5000392c:	e300110e 	movw	r1, #270	; 0x10e
50003930:	e3a02003 	mov	r2, #3
50003934:	e3a03001 	mov	r3, #1
50003938:	e306cc80 	movw	ip, #27776	; 0x6c80
5000393c:	e345c000 	movt	ip, #20480	; 0x5000
50003940:	e12fff3c 	blx	ip
/home/liwenhaosuper/data/trustkernel/tsee/tsee/tsee/tee/dispatch.c:271
50003944:	e51b0014 	ldr	r0, [fp, #-20]	; 0xffffffec
50003948:	e3023b5c 	movw	r3, #11100	; 0x2b5c
5000394c:	e3453000 	movt	r3, #20480	; 0x5000
50003950:	e12fff33 	blx	r3
50003954:	e1a03000 	mov	r3, r0
50003958:	e3530000 	cmp	r3, #0
5000395c:	1a000012 	bne	500039ac <tsee_main+0x374>
50003960:	e51b0014 	ldr	r0, [fp, #-20]	; 0xffffffec
50003964:	e3023a74 	movw	r3, #10868	; 0x2a74
50003968:	e3453000 	movt	r3, #20480	; 0x5000
5000396c:	e12fff33 	blx	r3
50003970:	e1a03000 	mov	r3, r0
50003974:	e3530000 	cmp	r3, #0
50003978:	1a00000b 	bne	500039ac <tsee_main+0x374>
/home/liwenhaosuper/data/trustkernel/tsee/tsee/tsee/tee/dispatch.c:272
5000397c:	e309381c 	movw	r3, #38940	; 0x981c
50003980:	e3453000 	movt	r3, #20480	; 0x5000
50003984:	e58d3000 	str	r3, [sp]
50003988:	e3090d70 	movw	r0, #40304	; 0x9d70
5000398c:	e3450000 	movt	r0, #20480	; 0x5000
50003990:	e3a01e11 	mov	r1, #272	; 0x110
50003994:	e3a02001 	mov	r2, #1
50003998:	e3a03001 	mov	r3, #1
5000399c:	e306cc80 	movw	ip, #27776	; 0x6c80
500039a0:	e345c000 	movt	ip, #20480	; 0x5000
500039a4:	e12fff3c 	blx	ip
/home/liwenhaosuper/data/trustkernel/tsee/tsee/tsee/tee/dispatch.c:273
500039a8:	ea000548 	b	50004ed0 <tsee_main+0x1898>
/home/liwenhaosuper/data/trustkernel/tsee/tsee/tsee/tee/dispatch.c:275
500039ac:	e51b3014 	ldr	r3, [fp, #-20]	; 0xffffffec
500039b0:	e51b2018 	ldr	r2, [fp, #-24]	; 0xffffffe8
500039b4:	e5832000 	str	r2, [r3]
/home/liwenhaosuper/data/trustkernel/tsee/tsee/tsee/tee/dispatch.c:276
500039b8:	f57ff04a 	dsb	ishst
/home/liwenhaosuper/data/trustkernel/tsee/tsee/tsee/tee/dispatch.c:277
500039bc:	f57ff06f 	isb	sy
/home/liwenhaosuper/data/trustkernel/tsee/tsee/tsee/tee/dispatch.c:278
500039c0:	ea000542 	b	50004ed0 <tsee_main+0x1898>
/home/liwenhaosuper/data/trustkernel/tsee/tsee/tsee/tee/dispatch.c:282
500039c4:	e51b0014 	ldr	r0, [fp, #-20]	; 0xffffffec
500039c8:	e3023b5c 	movw	r3, #11100	; 0x2b5c
500039cc:	e3453000 	movt	r3, #20480	; 0x5000
500039d0:	e12fff33 	blx	r3
500039d4:	e1a03000 	mov	r3, r0
500039d8:	e3530000 	cmp	r3, #0
500039dc:	1a000012 	bne	50003a2c <tsee_main+0x3f4>
500039e0:	e51b0014 	ldr	r0, [fp, #-20]	; 0xffffffec
500039e4:	e3023a74 	movw	r3, #10868	; 0x2a74
500039e8:	e3453000 	movt	r3, #20480	; 0x5000
500039ec:	e12fff33 	blx	r3
500039f0:	e1a03000 	mov	r3, r0
500039f4:	e3530000 	cmp	r3, #0
500039f8:	1a00000b 	bne	50003a2c <tsee_main+0x3f4>
/home/liwenhaosuper/data/trustkernel/tsee/tsee/tsee/tee/dispatch.c:283
500039fc:	e309381c 	movw	r3, #38940	; 0x981c
50003a00:	e3453000 	movt	r3, #20480	; 0x5000
50003a04:	e58d3000 	str	r3, [sp]
50003a08:	e3090d70 	movw	r0, #40304	; 0x9d70
50003a0c:	e3450000 	movt	r0, #20480	; 0x5000
50003a10:	e300111b 	movw	r1, #283	; 0x11b
50003a14:	e3a02001 	mov	r2, #1
50003a18:	e3a03001 	mov	r3, #1
50003a1c:	e306cc80 	movw	ip, #27776	; 0x6c80
50003a20:	e345c000 	movt	ip, #20480	; 0x5000
50003a24:	e12fff3c 	blx	ip
/home/liwenhaosuper/data/trustkernel/tsee/tsee/tsee/tee/dispatch.c:284
50003a28:	ea000528 	b	50004ed0 <tsee_main+0x1898>
/home/liwenhaosuper/data/trustkernel/tsee/tsee/tsee/tee/dispatch.c:287
50003a2c:	e51b3018 	ldr	r3, [fp, #-24]	; 0xffffffe8
50003a30:	e3c33b01 	bic	r3, r3, #1024	; 0x400
50003a34:	e50b3008 	str	r3, [fp, #-8]
/home/liwenhaosuper/data/trustkernel/tsee/tsee/tsee/tee/dispatch.c:288
50003a38:	e51b0008 	ldr	r0, [fp, #-8]
50003a3c:	e3023a74 	movw	r3, #10868	; 0x2a74
50003a40:	e3453000 	movt	r3, #20480	; 0x5000
50003a44:	e12fff33 	blx	r3
50003a48:	e1a03000 	mov	r3, r0
50003a4c:	e3530000 	cmp	r3, #0
50003a50:	1a00000b 	bne	50003a84 <tsee_main+0x44c>
/home/liwenhaosuper/data/trustkernel/tsee/tsee/tsee/tee/dispatch.c:289
50003a54:	e3093840 	movw	r3, #38976	; 0x9840
50003a58:	e3453000 	movt	r3, #20480	; 0x5000
50003a5c:	e58d3000 	str	r3, [sp]
50003a60:	e3090d70 	movw	r0, #40304	; 0x9d70
50003a64:	e3450000 	movt	r0, #20480	; 0x5000
50003a68:	e3001121 	movw	r1, #289	; 0x121
50003a6c:	e3a02001 	mov	r2, #1
50003a70:	e3a03001 	mov	r3, #1
50003a74:	e306cc80 	movw	ip, #27776	; 0x6c80
50003a78:	e345c000 	movt	ip, #20480	; 0x5000
50003a7c:	e12fff3c 	blx	ip
/home/liwenhaosuper/data/trustkernel/tsee/tsee/tsee/tee/dispatch.c:290
50003a80:	ea000512 	b	50004ed0 <tsee_main+0x1898>
/home/liwenhaosuper/data/trustkernel/tsee/tsee/tsee/tee/dispatch.c:292
50003a84:	e51b0014 	ldr	r0, [fp, #-20]	; 0xffffffec
50003a88:	e3023b5c 	movw	r3, #11100	; 0x2b5c
50003a8c:	e3453000 	movt	r3, #20480	; 0x5000
50003a90:	e12fff33 	blx	r3
50003a94:	e1a03000 	mov	r3, r0
50003a98:	e3530000 	cmp	r3, #0
50003a9c:	0a000003 	beq	50003ab0 <tsee_main+0x478>
/home/liwenhaosuper/data/trustkernel/tsee/tsee/tsee/tee/dispatch.c:293
50003aa0:	e51b3014 	ldr	r3, [fp, #-20]	; 0xffffffec
50003aa4:	e51b2018 	ldr	r2, [fp, #-24]	; 0xffffffe8
50003aa8:	e5832000 	str	r2, [r3]
50003aac:	ea000002 	b	50003abc <tsee_main+0x484>
/home/liwenhaosuper/data/trustkernel/tsee/tsee/tsee/tee/dispatch.c:295
50003ab0:	e51b3014 	ldr	r3, [fp, #-20]	; 0xffffffec
50003ab4:	e51b2018 	ldr	r2, [fp, #-24]	; 0xffffffe8
50003ab8:	e5832000 	str	r2, [r3]
/home/liwenhaosuper/data/trustkernel/tsee/tsee/tsee/tee/dispatch.c:297
50003abc:	f57ff04a 	dsb	ishst
/home/liwenhaosuper/data/trustkernel/tsee/tsee/tsee/tee/dispatch.c:298
50003ac0:	f57ff06f 	isb	sy
/home/liwenhaosuper/data/trustkernel/tsee/tsee/tsee/tee/dispatch.c:299
50003ac4:	ea000501 	b	50004ed0 <tsee_main+0x1898>
/home/liwenhaosuper/data/trustkernel/tsee/tsee/tsee/tee/dispatch.c:303
50003ac8:	e51b0014 	ldr	r0, [fp, #-20]	; 0xffffffec
50003acc:	e3023a18 	movw	r3, #10776	; 0x2a18
50003ad0:	e3453000 	movt	r3, #20480	; 0x5000
50003ad4:	e12fff33 	blx	r3
50003ad8:	e1a03000 	mov	r3, r0
50003adc:	e3530000 	cmp	r3, #0
50003ae0:	1a000016 	bne	50003b40 <tsee_main+0x508>
50003ae4:	e51b0014 	ldr	r0, [fp, #-20]	; 0xffffffec
50003ae8:	e3023a74 	movw	r3, #10868	; 0x2a74
50003aec:	e3453000 	movt	r3, #20480	; 0x5000
50003af0:	e12fff33 	blx	r3
50003af4:	e1a03000 	mov	r3, r0
50003af8:	e3530000 	cmp	r3, #0
50003afc:	1a00000f 	bne	50003b40 <tsee_main+0x508>
/home/liwenhaosuper/data/trustkernel/tsee/tsee/tsee/tee/dispatch.c:304
50003b00:	e3093864 	movw	r3, #39012	; 0x9864
50003b04:	e3453000 	movt	r3, #20480	; 0x5000
50003b08:	e58d3000 	str	r3, [sp]
50003b0c:	e51b3014 	ldr	r3, [fp, #-20]	; 0xffffffec
50003b10:	e58d3004 	str	r3, [sp, #4]
50003b14:	e51b3018 	ldr	r3, [fp, #-24]	; 0xffffffe8
50003b18:	e58d3008 	str	r3, [sp, #8]
50003b1c:	e3090d70 	movw	r0, #40304	; 0x9d70
50003b20:	e3450000 	movt	r0, #20480	; 0x5000
50003b24:	e3a01e13 	mov	r1, #304	; 0x130
50003b28:	e3a02001 	mov	r2, #1
50003b2c:	e3a03001 	mov	r3, #1
50003b30:	e306cc80 	movw	ip, #27776	; 0x6c80
50003b34:	e345c000 	movt	ip, #20480	; 0x5000
50003b38:	e12fff3c 	blx	ip
/home/liwenhaosuper/data/trustkernel/tsee/tsee/tsee/tee/dispatch.c:305
50003b3c:	ea0004e3 	b	50004ed0 <tsee_main+0x1898>
/home/liwenhaosuper/data/trustkernel/tsee/tsee/tsee/tee/dispatch.c:308
50003b40:	e51b3018 	ldr	r3, [fp, #-24]	; 0xffffffe8
50003b44:	e3c33a01 	bic	r3, r3, #4096	; 0x1000
50003b48:	e50b3008 	str	r3, [fp, #-8]
/home/liwenhaosuper/data/trustkernel/tsee/tsee/tsee/tee/dispatch.c:311
50003b4c:	e51b0008 	ldr	r0, [fp, #-8]
50003b50:	e30330f8 	movw	r3, #12536	; 0x30f8
50003b54:	e3453000 	movt	r3, #20480	; 0x5000
50003b58:	e12fff33 	blx	r3
50003b5c:	e1a03000 	mov	r3, r0
50003b60:	e3530000 	cmp	r3, #0
50003b64:	0a00000d 	beq	50003ba0 <tsee_main+0x568>
/home/liwenhaosuper/data/trustkernel/tsee/tsee/tsee/tee/dispatch.c:312
50003b68:	e3093894 	movw	r3, #39060	; 0x9894
50003b6c:	e3453000 	movt	r3, #20480	; 0x5000
50003b70:	e58d3000 	str	r3, [sp]
50003b74:	e51b3018 	ldr	r3, [fp, #-24]	; 0xffffffe8
50003b78:	e58d3004 	str	r3, [sp, #4]
50003b7c:	e3090d70 	movw	r0, #40304	; 0x9d70
50003b80:	e3450000 	movt	r0, #20480	; 0x5000
50003b84:	e3a01f4e 	mov	r1, #312	; 0x138
50003b88:	e3a02001 	mov	r2, #1
50003b8c:	e3a03001 	mov	r3, #1
50003b90:	e306cc80 	movw	ip, #27776	; 0x6c80
50003b94:	e345c000 	movt	ip, #20480	; 0x5000
50003b98:	e12fff3c 	blx	ip
/home/liwenhaosuper/data/trustkernel/tsee/tsee/tsee/tee/dispatch.c:313
50003b9c:	ea0004cb 	b	50004ed0 <tsee_main+0x1898>
/home/liwenhaosuper/data/trustkernel/tsee/tsee/tsee/tee/dispatch.c:315
50003ba0:	e51b0008 	ldr	r0, [fp, #-8]
50003ba4:	e302398c 	movw	r3, #10636	; 0x298c
50003ba8:	e3453000 	movt	r3, #20480	; 0x5000
50003bac:	e12fff33 	blx	r3
50003bb0:	e1a03000 	mov	r3, r0
50003bb4:	e3530000 	cmp	r3, #0
50003bb8:	0a000061 	beq	50003d44 <tsee_main+0x70c>
/home/liwenhaosuper/data/trustkernel/tsee/tsee/tsee/tee/dispatch.c:316
50003bbc:	e51b0008 	ldr	r0, [fp, #-8]
50003bc0:	e3023a74 	movw	r3, #10868	; 0x2a74
50003bc4:	e3453000 	movt	r3, #20480	; 0x5000
50003bc8:	e12fff33 	blx	r3
50003bcc:	e1a03000 	mov	r3, r0
50003bd0:	e3530000 	cmp	r3, #0
50003bd4:	0a00000d 	beq	50003c10 <tsee_main+0x5d8>
/home/liwenhaosuper/data/trustkernel/tsee/tsee/tsee/tee/dispatch.c:317
50003bd8:	e30938b4 	movw	r3, #39092	; 0x98b4
50003bdc:	e3453000 	movt	r3, #20480	; 0x5000
50003be0:	e58d3000 	str	r3, [sp]
50003be4:	e51b3008 	ldr	r3, [fp, #-8]
50003be8:	e58d3004 	str	r3, [sp, #4]
50003bec:	e3090d70 	movw	r0, #40304	; 0x9d70
50003bf0:	e3450000 	movt	r0, #20480	; 0x5000
50003bf4:	e300113d 	movw	r1, #317	; 0x13d
50003bf8:	e3a02001 	mov	r2, #1
50003bfc:	e3a03001 	mov	r3, #1
50003c00:	e306cc80 	movw	ip, #27776	; 0x6c80
50003c04:	e345c000 	movt	ip, #20480	; 0x5000
50003c08:	e12fff3c 	blx	ip
/home/liwenhaosuper/data/trustkernel/tsee/tsee/tsee/tee/dispatch.c:318
50003c0c:	ea0004af 	b	50004ed0 <tsee_main+0x1898>
/home/liwenhaosuper/data/trustkernel/tsee/tsee/tsee/tee/dispatch.c:320
50003c10:	e51b0008 	ldr	r0, [fp, #-8]
50003c14:	e3023b5c 	movw	r3, #11100	; 0x2b5c
50003c18:	e3453000 	movt	r3, #20480	; 0x5000
50003c1c:	e12fff33 	blx	r3
50003c20:	e1a03000 	mov	r3, r0
50003c24:	e3530000 	cmp	r3, #0
50003c28:	0a00000d 	beq	50003c64 <tsee_main+0x62c>
/home/liwenhaosuper/data/trustkernel/tsee/tsee/tsee/tee/dispatch.c:321
50003c2c:	e30938d8 	movw	r3, #39128	; 0x98d8
50003c30:	e3453000 	movt	r3, #20480	; 0x5000
50003c34:	e58d3000 	str	r3, [sp]
50003c38:	e51b3008 	ldr	r3, [fp, #-8]
50003c3c:	e58d3004 	str	r3, [sp, #4]
50003c40:	e3090d70 	movw	r0, #40304	; 0x9d70
50003c44:	e3450000 	movt	r0, #20480	; 0x5000
50003c48:	e3001141 	movw	r1, #321	; 0x141
50003c4c:	e3a02001 	mov	r2, #1
50003c50:	e3a03001 	mov	r3, #1
50003c54:	e306cc80 	movw	ip, #27776	; 0x6c80
50003c58:	e345c000 	movt	ip, #20480	; 0x5000
50003c5c:	e12fff3c 	blx	ip
/home/liwenhaosuper/data/trustkernel/tsee/tsee/tsee/tee/dispatch.c:322
50003c60:	ea00049a 	b	50004ed0 <tsee_main+0x1898>
/home/liwenhaosuper/data/trustkernel/tsee/tsee/tsee/tee/dispatch.c:324
50003c64:	e51b0008 	ldr	r0, [fp, #-8]
50003c68:	e3023a18 	movw	r3, #10776	; 0x2a18
50003c6c:	e3453000 	movt	r3, #20480	; 0x5000
50003c70:	e12fff33 	blx	r3
50003c74:	e1a03000 	mov	r3, r0
50003c78:	e3530000 	cmp	r3, #0
50003c7c:	0a00000d 	beq	50003cb8 <tsee_main+0x680>
/home/liwenhaosuper/data/trustkernel/tsee/tsee/tsee/tee/dispatch.c:325
50003c80:	e3093900 	movw	r3, #39168	; 0x9900
50003c84:	e3453000 	movt	r3, #20480	; 0x5000
50003c88:	e58d3000 	str	r3, [sp]
50003c8c:	e51b3008 	ldr	r3, [fp, #-8]
50003c90:	e58d3004 	str	r3, [sp, #4]
50003c94:	e3090d70 	movw	r0, #40304	; 0x9d70
50003c98:	e3450000 	movt	r0, #20480	; 0x5000
50003c9c:	e3001145 	movw	r1, #325	; 0x145
50003ca0:	e3a02001 	mov	r2, #1
50003ca4:	e3a03001 	mov	r3, #1
50003ca8:	e306cc80 	movw	ip, #27776	; 0x6c80
50003cac:	e345c000 	movt	ip, #20480	; 0x5000
50003cb0:	e12fff3c 	blx	ip
/home/liwenhaosuper/data/trustkernel/tsee/tsee/tsee/tee/dispatch.c:326
50003cb4:	ea000485 	b	50004ed0 <tsee_main+0x1898>
/home/liwenhaosuper/data/trustkernel/tsee/tsee/tsee/tee/dispatch.c:328
50003cb8:	e51b0008 	ldr	r0, [fp, #-8]
50003cbc:	e3023bc8 	movw	r3, #11208	; 0x2bc8
50003cc0:	e3453000 	movt	r3, #20480	; 0x5000
50003cc4:	e12fff33 	blx	r3
50003cc8:	e1a03000 	mov	r3, r0
50003ccc:	e3530000 	cmp	r3, #0
50003cd0:	1a00000d 	bne	50003d0c <tsee_main+0x6d4>
50003cd4:	e51b0008 	ldr	r0, [fp, #-8]
50003cd8:	e3023c54 	movw	r3, #11348	; 0x2c54
50003cdc:	e3453000 	movt	r3, #20480	; 0x5000
50003ce0:	e12fff33 	blx	r3
50003ce4:	e1a03000 	mov	r3, r0
50003ce8:	e3530000 	cmp	r3, #0
50003cec:	1a000006 	bne	50003d0c <tsee_main+0x6d4>
50003cf0:	e51b0008 	ldr	r0, [fp, #-8]
50003cf4:	e3023cb0 	movw	r3, #11440	; 0x2cb0
50003cf8:	e3453000 	movt	r3, #20480	; 0x5000
50003cfc:	e12fff33 	blx	r3
50003d00:	e1a03000 	mov	r3, r0
50003d04:	e3530000 	cmp	r3, #0
50003d08:	0a00003d 	beq	50003e04 <tsee_main+0x7cc>
/home/liwenhaosuper/data/trustkernel/tsee/tsee/tsee/tee/dispatch.c:329
50003d0c:	e3093928 	movw	r3, #39208	; 0x9928
50003d10:	e3453000 	movt	r3, #20480	; 0x5000
50003d14:	e58d3000 	str	r3, [sp]
50003d18:	e51b3008 	ldr	r3, [fp, #-8]
50003d1c:	e58d3004 	str	r3, [sp, #4]
50003d20:	e3090d70 	movw	r0, #40304	; 0x9d70
50003d24:	e3450000 	movt	r0, #20480	; 0x5000
50003d28:	e3001149 	movw	r1, #329	; 0x149
50003d2c:	e3a02001 	mov	r2, #1
50003d30:	e3a03001 	mov	r3, #1
50003d34:	e306cc80 	movw	ip, #27776	; 0x6c80
50003d38:	e345c000 	movt	ip, #20480	; 0x5000
50003d3c:	e12fff3c 	blx	ip
/home/liwenhaosuper/data/trustkernel/tsee/tsee/tsee/tee/dispatch.c:330
50003d40:	ea000462 	b	50004ed0 <tsee_main+0x1898>
/home/liwenhaosuper/data/trustkernel/tsee/tsee/tsee/tee/dispatch.c:334
50003d44:	e51b0008 	ldr	r0, [fp, #-8]
50003d48:	e3023b00 	movw	r3, #11008	; 0x2b00
50003d4c:	e3453000 	movt	r3, #20480	; 0x5000
50003d50:	e12fff33 	blx	r3
50003d54:	e1a03000 	mov	r3, r0
50003d58:	e3530000 	cmp	r3, #0
50003d5c:	1a000028 	bne	50003e04 <tsee_main+0x7cc>
/home/liwenhaosuper/data/trustkernel/tsee/tsee/tsee/tee/dispatch.c:337
50003d60:	e51b0008 	ldr	r0, [fp, #-8]
50003d64:	e3023940 	movw	r3, #10560	; 0x2940
50003d68:	e3453000 	movt	r3, #20480	; 0x5000
50003d6c:	e12fff33 	blx	r3
50003d70:	e1a03000 	mov	r3, r0
50003d74:	e3530000 	cmp	r3, #0
50003d78:	0a00000d 	beq	50003db4 <tsee_main+0x77c>
/home/liwenhaosuper/data/trustkernel/tsee/tsee/tsee/tee/dispatch.c:338
50003d7c:	e309395c 	movw	r3, #39260	; 0x995c
50003d80:	e3453000 	movt	r3, #20480	; 0x5000
50003d84:	e58d3000 	str	r3, [sp]
50003d88:	e51b3008 	ldr	r3, [fp, #-8]
50003d8c:	e58d3004 	str	r3, [sp, #4]
50003d90:	e3090d70 	movw	r0, #40304	; 0x9d70
50003d94:	e3450000 	movt	r0, #20480	; 0x5000
50003d98:	e3001152 	movw	r1, #338	; 0x152
50003d9c:	e3a02001 	mov	r2, #1
50003da0:	e3a03001 	mov	r3, #1
50003da4:	e306cc80 	movw	ip, #27776	; 0x6c80
50003da8:	e345c000 	movt	ip, #20480	; 0x5000
50003dac:	e12fff3c 	blx	ip
/home/liwenhaosuper/data/trustkernel/tsee/tsee/tsee/tee/dispatch.c:339
50003db0:	ea000446 	b	50004ed0 <tsee_main+0x1898>
/home/liwenhaosuper/data/trustkernel/tsee/tsee/tsee/tee/dispatch.c:340
50003db4:	e51b0008 	ldr	r0, [fp, #-8]
50003db8:	e3023d3c 	movw	r3, #11580	; 0x2d3c
50003dbc:	e3453000 	movt	r3, #20480	; 0x5000
50003dc0:	e12fff33 	blx	r3
50003dc4:	e1a03000 	mov	r3, r0
50003dc8:	e3530000 	cmp	r3, #0
50003dcc:	0a00000c 	beq	50003e04 <tsee_main+0x7cc>
/home/liwenhaosuper/data/trustkernel/tsee/tsee/tsee/tee/dispatch.c:341
50003dd0:	e3093980 	movw	r3, #39296	; 0x9980
50003dd4:	e3453000 	movt	r3, #20480	; 0x5000
50003dd8:	e58d3000 	str	r3, [sp]
50003ddc:	e51b3008 	ldr	r3, [fp, #-8]
50003de0:	e58d3004 	str	r3, [sp, #4]
50003de4:	e3090d70 	movw	r0, #40304	; 0x9d70
50003de8:	e3450000 	movt	r0, #20480	; 0x5000
50003dec:	e3001155 	movw	r1, #341	; 0x155
50003df0:	e3a02003 	mov	r2, #3
50003df4:	e3a03001 	mov	r3, #1
50003df8:	e306cc80 	movw	ip, #27776	; 0x6c80
50003dfc:	e345c000 	movt	ip, #20480	; 0x5000
50003e00:	e12fff3c 	blx	ip
/home/liwenhaosuper/data/trustkernel/tsee/tsee/tsee/tee/dispatch.c:347
50003e04:	e51b0014 	ldr	r0, [fp, #-20]	; 0xffffffec
50003e08:	e3023a18 	movw	r3, #10776	; 0x2a18
50003e0c:	e3453000 	movt	r3, #20480	; 0x5000
50003e10:	e12fff33 	blx	r3
50003e14:	e1a03000 	mov	r3, r0
50003e18:	e3530000 	cmp	r3, #0
50003e1c:	0a000003 	beq	50003e30 <tsee_main+0x7f8>
/home/liwenhaosuper/data/trustkernel/tsee/tsee/tsee/tee/dispatch.c:348
50003e20:	e51b3014 	ldr	r3, [fp, #-20]	; 0xffffffec
50003e24:	e51b2018 	ldr	r2, [fp, #-24]	; 0xffffffe8
50003e28:	e5832000 	str	r2, [r3]
50003e2c:	ea000002 	b	50003e3c <tsee_main+0x804>
/home/liwenhaosuper/data/trustkernel/tsee/tsee/tsee/tee/dispatch.c:350
50003e30:	e51b3014 	ldr	r3, [fp, #-20]	; 0xffffffec
50003e34:	e51b2018 	ldr	r2, [fp, #-24]	; 0xffffffe8
50003e38:	e5832000 	str	r2, [r3]
/home/liwenhaosuper/data/trustkernel/tsee/tsee/tsee/tee/dispatch.c:352
50003e3c:	f57ff04a 	dsb	ishst
/home/liwenhaosuper/data/trustkernel/tsee/tsee/tsee/tee/dispatch.c:353
50003e40:	f57ff06f 	isb	sy
/home/liwenhaosuper/data/trustkernel/tsee/tsee/tsee/tee/dispatch.c:354
50003e44:	ea000421 	b	50004ed0 <tsee_main+0x1898>
/home/liwenhaosuper/data/trustkernel/tsee/tsee/tsee/tee/dispatch.c:360
50003e48:	e30c3118 	movw	r3, #49432	; 0xc118
50003e4c:	e3453000 	movt	r3, #20480	; 0x5000
50003e50:	e5932038 	ldr	r2, [r3, #56]	; 0x38
50003e54:	e51b3014 	ldr	r3, [fp, #-20]	; 0xffffffec
50003e58:	e1520003 	cmp	r2, r3
50003e5c:	8a00000d 	bhi	50003e98 <tsee_main+0x860>
/home/liwenhaosuper/data/trustkernel/tsee/tsee/tsee/tee/dispatch.c:361
50003e60:	e30c3118 	movw	r3, #49432	; 0xc118
50003e64:	e3453000 	movt	r3, #20480	; 0x5000
50003e68:	e593203c 	ldr	r2, [r3, #60]	; 0x3c
/home/liwenhaosuper/data/trustkernel/tsee/tsee/tsee/tee/dispatch.c:360
50003e6c:	e51b3014 	ldr	r3, [fp, #-20]	; 0xffffffec
50003e70:	e1520003 	cmp	r2, r3
50003e74:	9a000007 	bls	50003e98 <tsee_main+0x860>
/home/liwenhaosuper/data/trustkernel/tsee/tsee/tsee/tee/dispatch.c:362
50003e78:	e51b3014 	ldr	r3, [fp, #-20]	; 0xffffffec
50003e7c:	e1a00003 	mov	r0, r3
50003e80:	e3a01000 	mov	r1, #0
50003e84:	e3a02b01 	mov	r2, #1024	; 0x400
50003e88:	e306395c 	movw	r3, #26972	; 0x695c
50003e8c:	e3453000 	movt	r3, #20480	; 0x5000
50003e90:	e12fff33 	blx	r3
50003e94:	ea00001f 	b	50003f18 <tsee_main+0x8e0>
/home/liwenhaosuper/data/trustkernel/tsee/tsee/tsee/tee/dispatch.c:363
50003e98:	e30c3118 	movw	r3, #49432	; 0xc118
50003e9c:	e3453000 	movt	r3, #20480	; 0x5000
50003ea0:	e5932040 	ldr	r2, [r3, #64]	; 0x40
50003ea4:	e51b3014 	ldr	r3, [fp, #-20]	; 0xffffffec
50003ea8:	e1520003 	cmp	r2, r3
50003eac:	8a00000d 	bhi	50003ee8 <tsee_main+0x8b0>
/home/liwenhaosuper/data/trustkernel/tsee/tsee/tsee/tee/dispatch.c:364
50003eb0:	e30c3118 	movw	r3, #49432	; 0xc118
50003eb4:	e3453000 	movt	r3, #20480	; 0x5000
50003eb8:	e5932044 	ldr	r2, [r3, #68]	; 0x44
/home/liwenhaosuper/data/trustkernel/tsee/tsee/tsee/tee/dispatch.c:363
50003ebc:	e51b3014 	ldr	r3, [fp, #-20]	; 0xffffffec
50003ec0:	e1520003 	cmp	r2, r3
50003ec4:	9a000007 	bls	50003ee8 <tsee_main+0x8b0>
/home/liwenhaosuper/data/trustkernel/tsee/tsee/tsee/tee/dispatch.c:365
50003ec8:	e51b3014 	ldr	r3, [fp, #-20]	; 0xffffffec
50003ecc:	e1a00003 	mov	r0, r3
50003ed0:	e3a01000 	mov	r1, #0
50003ed4:	e3a02b01 	mov	r2, #1024	; 0x400
50003ed8:	e306395c 	movw	r3, #26972	; 0x695c
50003edc:	e3453000 	movt	r3, #20480	; 0x5000
50003ee0:	e12fff33 	blx	r3
50003ee4:	ea00000b 	b	50003f18 <tsee_main+0x8e0>
/home/liwenhaosuper/data/trustkernel/tsee/tsee/tsee/tee/dispatch.c:367
50003ee8:	e30939a4 	movw	r3, #39332	; 0x99a4
50003eec:	e3453000 	movt	r3, #20480	; 0x5000
50003ef0:	e58d3000 	str	r3, [sp]
50003ef4:	e3090d70 	movw	r0, #40304	; 0x9d70
50003ef8:	e3450000 	movt	r0, #20480	; 0x5000
50003efc:	e300116f 	movw	r1, #367	; 0x16f
50003f00:	e3a02001 	mov	r2, #1
50003f04:	e3a03001 	mov	r3, #1
50003f08:	e306cc80 	movw	ip, #27776	; 0x6c80
50003f0c:	e345c000 	movt	ip, #20480	; 0x5000
50003f10:	e12fff3c 	blx	ip
/home/liwenhaosuper/data/trustkernel/tsee/tsee/tsee/tee/dispatch.c:368
50003f14:	ea0003ed 	b	50004ed0 <tsee_main+0x1898>
/home/liwenhaosuper/data/trustkernel/tsee/tsee/tsee/tee/dispatch.c:370
50003f18:	ea0003ec 	b	50004ed0 <tsee_main+0x1898>
/home/liwenhaosuper/data/trustkernel/tsee/tsee/tsee/tee/dispatch.c:372
50003f1c:	e3053208 	movw	r3, #21000	; 0x5208
50003f20:	e3453000 	movt	r3, #20480	; 0x5000
50003f24:	e12fff33 	blx	r3
50003f28:	e1a03000 	mov	r3, r0
50003f2c:	e3530000 	cmp	r3, #0
50003f30:	0a000001 	beq	50003f3c <tsee_main+0x904>
/home/liwenhaosuper/data/trustkernel/tsee/tsee/tsee/tee/dispatch.c:373
50003f34:	e3a03001 	mov	r3, #1
50003f38:	ea0003e5 	b	50004ed4 <tsee_main+0x189c>
/home/liwenhaosuper/data/trustkernel/tsee/tsee/tsee/tee/dispatch.c:375
50003f3c:	e51b2014 	ldr	r2, [fp, #-20]	; 0xffffffec
50003f40:	e51b3018 	ldr	r3, [fp, #-24]	; 0xffffffe8
50003f44:	e0823003 	add	r3, r2, r3
50003f48:	e3530205 	cmp	r3, #1342177280	; 0x50000000
50003f4c:	9a000011 	bls	50003f98 <tsee_main+0x960>
50003f50:	e51b2014 	ldr	r2, [fp, #-20]	; 0xffffffec
50003f54:	e30f3fff 	movw	r3, #65535	; 0xffff
50003f58:	e345300f 	movt	r3, #20495	; 0x500f
50003f5c:	e1520003 	cmp	r2, r3
50003f60:	8a00000c 	bhi	50003f98 <tsee_main+0x960>
/home/liwenhaosuper/data/trustkernel/tsee/tsee/tsee/tee/dispatch.c:377
50003f64:	e30939b8 	movw	r3, #39352	; 0x99b8
50003f68:	e3453000 	movt	r3, #20480	; 0x5000
50003f6c:	e58d3000 	str	r3, [sp]
50003f70:	e3090d70 	movw	r0, #40304	; 0x9d70
50003f74:	e3450000 	movt	r0, #20480	; 0x5000
50003f78:	e3001179 	movw	r1, #377	; 0x179
50003f7c:	e3a02001 	mov	r2, #1
50003f80:	e3a03001 	mov	r3, #1
50003f84:	e306cc80 	movw	ip, #27776	; 0x6c80
50003f88:	e345c000 	movt	ip, #20480	; 0x5000
50003f8c:	e12fff3c 	blx	ip
/home/liwenhaosuper/data/trustkernel/tsee/tsee/tsee/tee/dispatch.c:378
50003f90:	e3a03001 	mov	r3, #1
50003f94:	ea0003ce 	b	50004ed4 <tsee_main+0x189c>
/home/liwenhaosuper/data/trustkernel/tsee/tsee/tsee/tee/dispatch.c:380
50003f98:	e51b2014 	ldr	r2, [fp, #-20]	; 0xffffffec
50003f9c:	e51b3018 	ldr	r3, [fp, #-24]	; 0xffffffe8
50003fa0:	e0822003 	add	r2, r2, r3
50003fa4:	e30939d0 	movw	r3, #39376	; 0x99d0
50003fa8:	e3453000 	movt	r3, #20480	; 0x5000
50003fac:	e58d3000 	str	r3, [sp]
50003fb0:	e51b3014 	ldr	r3, [fp, #-20]	; 0xffffffec
50003fb4:	e58d3004 	str	r3, [sp, #4]
50003fb8:	e58d2008 	str	r2, [sp, #8]
50003fbc:	e3090d70 	movw	r0, #40304	; 0x9d70
50003fc0:	e3450000 	movt	r0, #20480	; 0x5000
50003fc4:	e3a01f5f 	mov	r1, #380	; 0x17c
50003fc8:	e3a02003 	mov	r2, #3
50003fcc:	e3a03001 	mov	r3, #1
50003fd0:	e306cc80 	movw	ip, #27776	; 0x6c80
50003fd4:	e345c000 	movt	ip, #20480	; 0x5000
50003fd8:	e12fff3c 	blx	ip
/home/liwenhaosuper/data/trustkernel/tsee/tsee/tsee/tee/dispatch.c:381
50003fdc:	e30c3118 	movw	r3, #49432	; 0xc118
50003fe0:	e3453000 	movt	r3, #20480	; 0x5000
50003fe4:	e51b2014 	ldr	r2, [fp, #-20]	; 0xffffffec
50003fe8:	e5832000 	str	r2, [r3]
/home/liwenhaosuper/data/trustkernel/tsee/tsee/tsee/tee/dispatch.c:382
50003fec:	e51b2014 	ldr	r2, [fp, #-20]	; 0xffffffec
50003ff0:	e51b3018 	ldr	r3, [fp, #-24]	; 0xffffffe8
50003ff4:	e0822003 	add	r2, r2, r3
50003ff8:	e30c3118 	movw	r3, #49432	; 0xc118
50003ffc:	e3453000 	movt	r3, #20480	; 0x5000
50004000:	e5832004 	str	r2, [r3, #4]
/home/liwenhaosuper/data/trustkernel/tsee/tsee/tsee/tee/dispatch.c:383
50004004:	ea0003b1 	b	50004ed0 <tsee_main+0x1898>
/home/liwenhaosuper/data/trustkernel/tsee/tsee/tsee/tee/dispatch.c:385
50004008:	e3053208 	movw	r3, #21000	; 0x5208
5000400c:	e3453000 	movt	r3, #20480	; 0x5000
50004010:	e12fff33 	blx	r3
50004014:	e1a03000 	mov	r3, r0
50004018:	e3530000 	cmp	r3, #0
5000401c:	0a000001 	beq	50004028 <tsee_main+0x9f0>
/home/liwenhaosuper/data/trustkernel/tsee/tsee/tsee/tee/dispatch.c:386
50004020:	e3a03001 	mov	r3, #1
50004024:	ea0003aa 	b	50004ed4 <tsee_main+0x189c>
/home/liwenhaosuper/data/trustkernel/tsee/tsee/tsee/tee/dispatch.c:388
50004028:	e51b2014 	ldr	r2, [fp, #-20]	; 0xffffffec
5000402c:	e51b3018 	ldr	r3, [fp, #-24]	; 0xffffffe8
50004030:	e0823003 	add	r3, r2, r3
50004034:	e3530205 	cmp	r3, #1342177280	; 0x50000000
50004038:	9a000011 	bls	50004084 <tsee_main+0xa4c>
5000403c:	e51b2014 	ldr	r2, [fp, #-20]	; 0xffffffec
50004040:	e30f3fff 	movw	r3, #65535	; 0xffff
50004044:	e345300f 	movt	r3, #20495	; 0x500f
50004048:	e1520003 	cmp	r2, r3
5000404c:	8a00000c 	bhi	50004084 <tsee_main+0xa4c>
/home/liwenhaosuper/data/trustkernel/tsee/tsee/tsee/tee/dispatch.c:390
50004050:	e30939f4 	movw	r3, #39412	; 0x99f4
50004054:	e3453000 	movt	r3, #20480	; 0x5000
50004058:	e58d3000 	str	r3, [sp]
5000405c:	e3090d70 	movw	r0, #40304	; 0x9d70
50004060:	e3450000 	movt	r0, #20480	; 0x5000
50004064:	e3001186 	movw	r1, #390	; 0x186
50004068:	e3a02001 	mov	r2, #1
5000406c:	e3a03001 	mov	r3, #1
50004070:	e306cc80 	movw	ip, #27776	; 0x6c80
50004074:	e345c000 	movt	ip, #20480	; 0x5000
50004078:	e12fff3c 	blx	ip
/home/liwenhaosuper/data/trustkernel/tsee/tsee/tsee/tee/dispatch.c:391
5000407c:	e3a03001 	mov	r3, #1
50004080:	ea000393 	b	50004ed4 <tsee_main+0x189c>
/home/liwenhaosuper/data/trustkernel/tsee/tsee/tsee/tee/dispatch.c:393
50004084:	e30c3118 	movw	r3, #49432	; 0xc118
50004088:	e3453000 	movt	r3, #20480	; 0x5000
5000408c:	e5933008 	ldr	r3, [r3, #8]
50004090:	e3530000 	cmp	r3, #0
50004094:	1a00000f 	bne	500040d8 <tsee_main+0xaa0>
50004098:	e30c3118 	movw	r3, #49432	; 0xc118
5000409c:	e3453000 	movt	r3, #20480	; 0x5000
500040a0:	e593300c 	ldr	r3, [r3, #12]
500040a4:	e3530000 	cmp	r3, #0
500040a8:	1a00000a 	bne	500040d8 <tsee_main+0xaa0>
/home/liwenhaosuper/data/trustkernel/tsee/tsee/tsee/tee/dispatch.c:394
500040ac:	e30c3118 	movw	r3, #49432	; 0xc118
500040b0:	e3453000 	movt	r3, #20480	; 0x5000
500040b4:	e51b2014 	ldr	r2, [fp, #-20]	; 0xffffffec
500040b8:	e5832008 	str	r2, [r3, #8]
/home/liwenhaosuper/data/trustkernel/tsee/tsee/tsee/tee/dispatch.c:395
500040bc:	e51b2014 	ldr	r2, [fp, #-20]	; 0xffffffec
500040c0:	e51b3018 	ldr	r3, [fp, #-24]	; 0xffffffe8
500040c4:	e0822003 	add	r2, r2, r3
500040c8:	e30c3118 	movw	r3, #49432	; 0xc118
500040cc:	e3453000 	movt	r3, #20480	; 0x5000
500040d0:	e583200c 	str	r2, [r3, #12]
500040d4:	ea00001f 	b	50004158 <tsee_main+0xb20>
/home/liwenhaosuper/data/trustkernel/tsee/tsee/tsee/tee/dispatch.c:396
500040d8:	e30c3118 	movw	r3, #49432	; 0xc118
500040dc:	e3453000 	movt	r3, #20480	; 0x5000
500040e0:	e5933010 	ldr	r3, [r3, #16]
500040e4:	e3530000 	cmp	r3, #0
500040e8:	1a00000f 	bne	5000412c <tsee_main+0xaf4>
500040ec:	e30c3118 	movw	r3, #49432	; 0xc118
500040f0:	e3453000 	movt	r3, #20480	; 0x5000
500040f4:	e5933014 	ldr	r3, [r3, #20]
500040f8:	e3530000 	cmp	r3, #0
500040fc:	1a00000a 	bne	5000412c <tsee_main+0xaf4>
/home/liwenhaosuper/data/trustkernel/tsee/tsee/tsee/tee/dispatch.c:397
50004100:	e30c3118 	movw	r3, #49432	; 0xc118
50004104:	e3453000 	movt	r3, #20480	; 0x5000
50004108:	e51b2014 	ldr	r2, [fp, #-20]	; 0xffffffec
5000410c:	e5832010 	str	r2, [r3, #16]
/home/liwenhaosuper/data/trustkernel/tsee/tsee/tsee/tee/dispatch.c:398
50004110:	e51b2014 	ldr	r2, [fp, #-20]	; 0xffffffec
50004114:	e51b3018 	ldr	r3, [fp, #-24]	; 0xffffffe8
50004118:	e0822003 	add	r2, r2, r3
5000411c:	e30c3118 	movw	r3, #49432	; 0xc118
50004120:	e3453000 	movt	r3, #20480	; 0x5000
50004124:	e5832014 	str	r2, [r3, #20]
50004128:	ea00000a 	b	50004158 <tsee_main+0xb20>
/home/liwenhaosuper/data/trustkernel/tsee/tsee/tsee/tee/dispatch.c:400
5000412c:	e3093a0c 	movw	r3, #39436	; 0x9a0c
50004130:	e3453000 	movt	r3, #20480	; 0x5000
50004134:	e58d3000 	str	r3, [sp]
50004138:	e3090d70 	movw	r0, #40304	; 0x9d70
5000413c:	e3450000 	movt	r0, #20480	; 0x5000
50004140:	e3a01e19 	mov	r1, #400	; 0x190
50004144:	e3a02001 	mov	r2, #1
50004148:	e3a03001 	mov	r3, #1
5000414c:	e306cc80 	movw	ip, #27776	; 0x6c80
50004150:	e345c000 	movt	ip, #20480	; 0x5000
50004154:	e12fff3c 	blx	ip
/home/liwenhaosuper/data/trustkernel/tsee/tsee/tsee/tee/dispatch.c:402
50004158:	e51b2014 	ldr	r2, [fp, #-20]	; 0xffffffec
5000415c:	e51b3018 	ldr	r3, [fp, #-24]	; 0xffffffe8
50004160:	e0822003 	add	r2, r2, r3
50004164:	e3093a20 	movw	r3, #39456	; 0x9a20
50004168:	e3453000 	movt	r3, #20480	; 0x5000
5000416c:	e58d3000 	str	r3, [sp]
50004170:	e51b3014 	ldr	r3, [fp, #-20]	; 0xffffffec
50004174:	e58d3004 	str	r3, [sp, #4]
50004178:	e58d2008 	str	r2, [sp, #8]
5000417c:	e3090d70 	movw	r0, #40304	; 0x9d70
50004180:	e3450000 	movt	r0, #20480	; 0x5000
50004184:	e3001192 	movw	r1, #402	; 0x192
50004188:	e3a02003 	mov	r2, #3
5000418c:	e3a03001 	mov	r3, #1
50004190:	e306cc80 	movw	ip, #27776	; 0x6c80
50004194:	e345c000 	movt	ip, #20480	; 0x5000
50004198:	e12fff3c 	blx	ip
/home/liwenhaosuper/data/trustkernel/tsee/tsee/tsee/tee/dispatch.c:403
5000419c:	ea00034b 	b	50004ed0 <tsee_main+0x1898>
/home/liwenhaosuper/data/trustkernel/tsee/tsee/tsee/tee/dispatch.c:405
500041a0:	e3053208 	movw	r3, #21000	; 0x5208
500041a4:	e3453000 	movt	r3, #20480	; 0x5000
500041a8:	e12fff33 	blx	r3
500041ac:	e1a03000 	mov	r3, r0
500041b0:	e3530000 	cmp	r3, #0
500041b4:	0a000001 	beq	500041c0 <tsee_main+0xb88>
/home/liwenhaosuper/data/trustkernel/tsee/tsee/tsee/tee/dispatch.c:406
500041b8:	e3a03001 	mov	r3, #1
500041bc:	ea000344 	b	50004ed4 <tsee_main+0x189c>
/home/liwenhaosuper/data/trustkernel/tsee/tsee/tsee/tee/dispatch.c:408
500041c0:	e51b2014 	ldr	r2, [fp, #-20]	; 0xffffffec
500041c4:	e51b3018 	ldr	r3, [fp, #-24]	; 0xffffffe8
500041c8:	e0823003 	add	r3, r2, r3
500041cc:	e3530205 	cmp	r3, #1342177280	; 0x50000000
500041d0:	9a000011 	bls	5000421c <tsee_main+0xbe4>
500041d4:	e51b2014 	ldr	r2, [fp, #-20]	; 0xffffffec
500041d8:	e30f3fff 	movw	r3, #65535	; 0xffff
500041dc:	e345300f 	movt	r3, #20495	; 0x500f
500041e0:	e1520003 	cmp	r2, r3
500041e4:	8a00000c 	bhi	5000421c <tsee_main+0xbe4>
/home/liwenhaosuper/data/trustkernel/tsee/tsee/tsee/tee/dispatch.c:410
500041e8:	e3093a40 	movw	r3, #39488	; 0x9a40
500041ec:	e3453000 	movt	r3, #20480	; 0x5000
500041f0:	e58d3000 	str	r3, [sp]
500041f4:	e3090d70 	movw	r0, #40304	; 0x9d70
500041f8:	e3450000 	movt	r0, #20480	; 0x5000
500041fc:	e300119a 	movw	r1, #410	; 0x19a
50004200:	e3a02001 	mov	r2, #1
50004204:	e3a03001 	mov	r3, #1
50004208:	e306cc80 	movw	ip, #27776	; 0x6c80
5000420c:	e345c000 	movt	ip, #20480	; 0x5000
50004210:	e12fff3c 	blx	ip
/home/liwenhaosuper/data/trustkernel/tsee/tsee/tsee/tee/dispatch.c:411
50004214:	e3a03001 	mov	r3, #1
50004218:	ea00032d 	b	50004ed4 <tsee_main+0x189c>
/home/liwenhaosuper/data/trustkernel/tsee/tsee/tsee/tee/dispatch.c:413
5000421c:	e30c3118 	movw	r3, #49432	; 0xc118
50004220:	e3453000 	movt	r3, #20480	; 0x5000
50004224:	e5933018 	ldr	r3, [r3, #24]
50004228:	e3530000 	cmp	r3, #0
5000422c:	1a00000f 	bne	50004270 <tsee_main+0xc38>
50004230:	e30c3118 	movw	r3, #49432	; 0xc118
50004234:	e3453000 	movt	r3, #20480	; 0x5000
50004238:	e593301c 	ldr	r3, [r3, #28]
5000423c:	e3530000 	cmp	r3, #0
50004240:	1a00000a 	bne	50004270 <tsee_main+0xc38>
/home/liwenhaosuper/data/trustkernel/tsee/tsee/tsee/tee/dispatch.c:414
50004244:	e30c3118 	movw	r3, #49432	; 0xc118
50004248:	e3453000 	movt	r3, #20480	; 0x5000
5000424c:	e51b2014 	ldr	r2, [fp, #-20]	; 0xffffffec
50004250:	e5832018 	str	r2, [r3, #24]
/home/liwenhaosuper/data/trustkernel/tsee/tsee/tsee/tee/dispatch.c:415
50004254:	e51b2014 	ldr	r2, [fp, #-20]	; 0xffffffec
50004258:	e51b3018 	ldr	r3, [fp, #-24]	; 0xffffffe8
5000425c:	e0822003 	add	r2, r2, r3
50004260:	e30c3118 	movw	r3, #49432	; 0xc118
50004264:	e3453000 	movt	r3, #20480	; 0x5000
50004268:	e583201c 	str	r2, [r3, #28]
5000426c:	ea00001f 	b	500042f0 <tsee_main+0xcb8>
/home/liwenhaosuper/data/trustkernel/tsee/tsee/tsee/tee/dispatch.c:416
50004270:	e30c3118 	movw	r3, #49432	; 0xc118
50004274:	e3453000 	movt	r3, #20480	; 0x5000
50004278:	e5933020 	ldr	r3, [r3, #32]
5000427c:	e3530000 	cmp	r3, #0
50004280:	1a00000f 	bne	500042c4 <tsee_main+0xc8c>
50004284:	e30c3118 	movw	r3, #49432	; 0xc118
50004288:	e3453000 	movt	r3, #20480	; 0x5000
5000428c:	e5933024 	ldr	r3, [r3, #36]	; 0x24
50004290:	e3530000 	cmp	r3, #0
50004294:	1a00000a 	bne	500042c4 <tsee_main+0xc8c>
/home/liwenhaosuper/data/trustkernel/tsee/tsee/tsee/tee/dispatch.c:417
50004298:	e30c3118 	movw	r3, #49432	; 0xc118
5000429c:	e3453000 	movt	r3, #20480	; 0x5000
500042a0:	e51b2014 	ldr	r2, [fp, #-20]	; 0xffffffec
500042a4:	e5832020 	str	r2, [r3, #32]
/home/liwenhaosuper/data/trustkernel/tsee/tsee/tsee/tee/dispatch.c:418
500042a8:	e51b2014 	ldr	r2, [fp, #-20]	; 0xffffffec
500042ac:	e51b3018 	ldr	r3, [fp, #-24]	; 0xffffffe8
500042b0:	e0822003 	add	r2, r2, r3
500042b4:	e30c3118 	movw	r3, #49432	; 0xc118
500042b8:	e3453000 	movt	r3, #20480	; 0x5000
500042bc:	e5832024 	str	r2, [r3, #36]	; 0x24
500042c0:	ea00000a 	b	500042f0 <tsee_main+0xcb8>
/home/liwenhaosuper/data/trustkernel/tsee/tsee/tsee/tee/dispatch.c:420
500042c4:	e3093a58 	movw	r3, #39512	; 0x9a58
500042c8:	e3453000 	movt	r3, #20480	; 0x5000
500042cc:	e58d3000 	str	r3, [sp]
500042d0:	e3090d70 	movw	r0, #40304	; 0x9d70
500042d4:	e3450000 	movt	r0, #20480	; 0x5000
500042d8:	e3a01f69 	mov	r1, #420	; 0x1a4
500042dc:	e3a02001 	mov	r2, #1
500042e0:	e3a03001 	mov	r3, #1
500042e4:	e306cc80 	movw	ip, #27776	; 0x6c80
500042e8:	e345c000 	movt	ip, #20480	; 0x5000
500042ec:	e12fff3c 	blx	ip
/home/liwenhaosuper/data/trustkernel/tsee/tsee/tsee/tee/dispatch.c:422
500042f0:	e51b2014 	ldr	r2, [fp, #-20]	; 0xffffffec
500042f4:	e51b3018 	ldr	r3, [fp, #-24]	; 0xffffffe8
500042f8:	e0822003 	add	r2, r2, r3
500042fc:	e3093a6c 	movw	r3, #39532	; 0x9a6c
50004300:	e3453000 	movt	r3, #20480	; 0x5000
50004304:	e58d3000 	str	r3, [sp]
50004308:	e51b3014 	ldr	r3, [fp, #-20]	; 0xffffffec
5000430c:	e58d3004 	str	r3, [sp, #4]
50004310:	e58d2008 	str	r2, [sp, #8]
50004314:	e3090d70 	movw	r0, #40304	; 0x9d70
50004318:	e3450000 	movt	r0, #20480	; 0x5000
5000431c:	e30011a6 	movw	r1, #422	; 0x1a6
50004320:	e3a02003 	mov	r2, #3
50004324:	e3a03001 	mov	r3, #1
50004328:	e306cc80 	movw	ip, #27776	; 0x6c80
5000432c:	e345c000 	movt	ip, #20480	; 0x5000
50004330:	e12fff3c 	blx	ip
/home/liwenhaosuper/data/trustkernel/tsee/tsee/tsee/tee/dispatch.c:423
50004334:	ea0002e5 	b	50004ed0 <tsee_main+0x1898>
/home/liwenhaosuper/data/trustkernel/tsee/tsee/tsee/tee/dispatch.c:425
50004338:	e3053208 	movw	r3, #21000	; 0x5208
5000433c:	e3453000 	movt	r3, #20480	; 0x5000
50004340:	e12fff33 	blx	r3
50004344:	e1a03000 	mov	r3, r0
50004348:	e3530000 	cmp	r3, #0
5000434c:	0a000001 	beq	50004358 <tsee_main+0xd20>
/home/liwenhaosuper/data/trustkernel/tsee/tsee/tsee/tee/dispatch.c:426
50004350:	e3a03001 	mov	r3, #1
50004354:	ea0002de 	b	50004ed4 <tsee_main+0x189c>
/home/liwenhaosuper/data/trustkernel/tsee/tsee/tsee/tee/dispatch.c:428
50004358:	e51b2014 	ldr	r2, [fp, #-20]	; 0xffffffec
5000435c:	e51b3018 	ldr	r3, [fp, #-24]	; 0xffffffe8
50004360:	e0823003 	add	r3, r2, r3
50004364:	e3530205 	cmp	r3, #1342177280	; 0x50000000
50004368:	9a000011 	bls	500043b4 <tsee_main+0xd7c>
5000436c:	e51b2014 	ldr	r2, [fp, #-20]	; 0xffffffec
50004370:	e30f3fff 	movw	r3, #65535	; 0xffff
50004374:	e345300f 	movt	r3, #20495	; 0x500f
50004378:	e1520003 	cmp	r2, r3
5000437c:	8a00000c 	bhi	500043b4 <tsee_main+0xd7c>
/home/liwenhaosuper/data/trustkernel/tsee/tsee/tsee/tee/dispatch.c:430
50004380:	e3093a8c 	movw	r3, #39564	; 0x9a8c
50004384:	e3453000 	movt	r3, #20480	; 0x5000
50004388:	e58d3000 	str	r3, [sp]
5000438c:	e3090d70 	movw	r0, #40304	; 0x9d70
50004390:	e3450000 	movt	r0, #20480	; 0x5000
50004394:	e30011ae 	movw	r1, #430	; 0x1ae
50004398:	e3a02001 	mov	r2, #1
5000439c:	e3a03001 	mov	r3, #1
500043a0:	e306cc80 	movw	ip, #27776	; 0x6c80
500043a4:	e345c000 	movt	ip, #20480	; 0x5000
500043a8:	e12fff3c 	blx	ip
/home/liwenhaosuper/data/trustkernel/tsee/tsee/tsee/tee/dispatch.c:431
500043ac:	e3a03001 	mov	r3, #1
500043b0:	ea0002c7 	b	50004ed4 <tsee_main+0x189c>
/home/liwenhaosuper/data/trustkernel/tsee/tsee/tsee/tee/dispatch.c:433
500043b4:	e51b2014 	ldr	r2, [fp, #-20]	; 0xffffffec
500043b8:	e51b3018 	ldr	r3, [fp, #-24]	; 0xffffffe8
500043bc:	e0822003 	add	r2, r2, r3
500043c0:	e3093aa4 	movw	r3, #39588	; 0x9aa4
500043c4:	e3453000 	movt	r3, #20480	; 0x5000
500043c8:	e58d3000 	str	r3, [sp]
500043cc:	e51b3014 	ldr	r3, [fp, #-20]	; 0xffffffec
500043d0:	e58d3004 	str	r3, [sp, #4]
500043d4:	e58d2008 	str	r2, [sp, #8]
500043d8:	e3090d70 	movw	r0, #40304	; 0x9d70
500043dc:	e3450000 	movt	r0, #20480	; 0x5000
500043e0:	e30011b1 	movw	r1, #433	; 0x1b1
500043e4:	e3a02003 	mov	r2, #3
500043e8:	e3a03001 	mov	r3, #1
500043ec:	e306cc80 	movw	ip, #27776	; 0x6c80
500043f0:	e345c000 	movt	ip, #20480	; 0x5000
500043f4:	e12fff3c 	blx	ip
/home/liwenhaosuper/data/trustkernel/tsee/tsee/tsee/tee/dispatch.c:434
500043f8:	e30c3118 	movw	r3, #49432	; 0xc118
500043fc:	e3453000 	movt	r3, #20480	; 0x5000
50004400:	e51b2014 	ldr	r2, [fp, #-20]	; 0xffffffec
50004404:	e5832028 	str	r2, [r3, #40]	; 0x28
/home/liwenhaosuper/data/trustkernel/tsee/tsee/tsee/tee/dispatch.c:435
50004408:	e30c3118 	movw	r3, #49432	; 0xc118
5000440c:	e3453000 	movt	r3, #20480	; 0x5000
50004410:	e51b2018 	ldr	r2, [fp, #-24]	; 0xffffffe8
50004414:	e583202c 	str	r2, [r3, #44]	; 0x2c
/home/liwenhaosuper/data/trustkernel/tsee/tsee/tsee/tee/dispatch.c:436
50004418:	ea0002ac 	b	50004ed0 <tsee_main+0x1898>
/home/liwenhaosuper/data/trustkernel/tsee/tsee/tsee/tee/dispatch.c:438
5000441c:	e3053208 	movw	r3, #21000	; 0x5208
50004420:	e3453000 	movt	r3, #20480	; 0x5000
50004424:	e12fff33 	blx	r3
50004428:	e1a03000 	mov	r3, r0
5000442c:	e3530000 	cmp	r3, #0
50004430:	0a000001 	beq	5000443c <tsee_main+0xe04>
/home/liwenhaosuper/data/trustkernel/tsee/tsee/tsee/tee/dispatch.c:439
50004434:	e3a03001 	mov	r3, #1
50004438:	ea0002a5 	b	50004ed4 <tsee_main+0x189c>
/home/liwenhaosuper/data/trustkernel/tsee/tsee/tsee/tee/dispatch.c:441
5000443c:	e51b2014 	ldr	r2, [fp, #-20]	; 0xffffffec
50004440:	e51b3018 	ldr	r3, [fp, #-24]	; 0xffffffe8
50004444:	e0823003 	add	r3, r2, r3
50004448:	e3530205 	cmp	r3, #1342177280	; 0x50000000
5000444c:	9a000011 	bls	50004498 <tsee_main+0xe60>
50004450:	e51b2014 	ldr	r2, [fp, #-20]	; 0xffffffec
50004454:	e30f3fff 	movw	r3, #65535	; 0xffff
50004458:	e345300f 	movt	r3, #20495	; 0x500f
5000445c:	e1520003 	cmp	r2, r3
50004460:	8a00000c 	bhi	50004498 <tsee_main+0xe60>
/home/liwenhaosuper/data/trustkernel/tsee/tsee/tsee/tee/dispatch.c:443
50004464:	e3093ac8 	movw	r3, #39624	; 0x9ac8
50004468:	e3453000 	movt	r3, #20480	; 0x5000
5000446c:	e58d3000 	str	r3, [sp]
50004470:	e3090d70 	movw	r0, #40304	; 0x9d70
50004474:	e3450000 	movt	r0, #20480	; 0x5000
50004478:	e30011bb 	movw	r1, #443	; 0x1bb
5000447c:	e3a02001 	mov	r2, #1
50004480:	e3a03001 	mov	r3, #1
50004484:	e306cc80 	movw	ip, #27776	; 0x6c80
50004488:	e345c000 	movt	ip, #20480	; 0x5000
5000448c:	e12fff3c 	blx	ip
/home/liwenhaosuper/data/trustkernel/tsee/tsee/tsee/tee/dispatch.c:444
50004490:	e3a03001 	mov	r3, #1
50004494:	ea00028e 	b	50004ed4 <tsee_main+0x189c>
/home/liwenhaosuper/data/trustkernel/tsee/tsee/tsee/tee/dispatch.c:446
50004498:	e51b2014 	ldr	r2, [fp, #-20]	; 0xffffffec
5000449c:	e51b3018 	ldr	r3, [fp, #-24]	; 0xffffffe8
500044a0:	e0822003 	add	r2, r2, r3
500044a4:	e3093ae0 	movw	r3, #39648	; 0x9ae0
500044a8:	e3453000 	movt	r3, #20480	; 0x5000
500044ac:	e58d3000 	str	r3, [sp]
500044b0:	e51b3014 	ldr	r3, [fp, #-20]	; 0xffffffec
500044b4:	e58d3004 	str	r3, [sp, #4]
500044b8:	e58d2008 	str	r2, [sp, #8]
500044bc:	e3090d70 	movw	r0, #40304	; 0x9d70
500044c0:	e3450000 	movt	r0, #20480	; 0x5000
500044c4:	e30011be 	movw	r1, #446	; 0x1be
500044c8:	e3a02003 	mov	r2, #3
500044cc:	e3a03001 	mov	r3, #1
500044d0:	e306cc80 	movw	ip, #27776	; 0x6c80
500044d4:	e345c000 	movt	ip, #20480	; 0x5000
500044d8:	e12fff3c 	blx	ip
/home/liwenhaosuper/data/trustkernel/tsee/tsee/tsee/tee/dispatch.c:447
500044dc:	e30c3118 	movw	r3, #49432	; 0xc118
500044e0:	e3453000 	movt	r3, #20480	; 0x5000
500044e4:	e51b2014 	ldr	r2, [fp, #-20]	; 0xffffffec
500044e8:	e5832030 	str	r2, [r3, #48]	; 0x30
/home/liwenhaosuper/data/trustkernel/tsee/tsee/tsee/tee/dispatch.c:448
500044ec:	e51b2014 	ldr	r2, [fp, #-20]	; 0xffffffec
500044f0:	e51b3018 	ldr	r3, [fp, #-24]	; 0xffffffe8
500044f4:	e0822003 	add	r2, r2, r3
500044f8:	e30c3118 	movw	r3, #49432	; 0xc118
500044fc:	e3453000 	movt	r3, #20480	; 0x5000
50004500:	e5832034 	str	r2, [r3, #52]	; 0x34
/home/liwenhaosuper/data/trustkernel/tsee/tsee/tsee/tee/dispatch.c:449
50004504:	ea000271 	b	50004ed0 <tsee_main+0x1898>
/home/liwenhaosuper/data/trustkernel/tsee/tsee/tsee/tee/dispatch.c:451
50004508:	e3053208 	movw	r3, #21000	; 0x5208
5000450c:	e3453000 	movt	r3, #20480	; 0x5000
50004510:	e12fff33 	blx	r3
50004514:	e1a03000 	mov	r3, r0
50004518:	e3530000 	cmp	r3, #0
5000451c:	0a000001 	beq	50004528 <tsee_main+0xef0>
/home/liwenhaosuper/data/trustkernel/tsee/tsee/tsee/tee/dispatch.c:452
50004520:	e3a03001 	mov	r3, #1
50004524:	ea00026a 	b	50004ed4 <tsee_main+0x189c>
/home/liwenhaosuper/data/trustkernel/tsee/tsee/tsee/tee/dispatch.c:454
50004528:	e51b2014 	ldr	r2, [fp, #-20]	; 0xffffffec
5000452c:	e51b3018 	ldr	r3, [fp, #-24]	; 0xffffffe8
50004530:	e0823003 	add	r3, r2, r3
50004534:	e3530205 	cmp	r3, #1342177280	; 0x50000000
50004538:	9a000011 	bls	50004584 <tsee_main+0xf4c>
5000453c:	e51b2014 	ldr	r2, [fp, #-20]	; 0xffffffec
50004540:	e30f3fff 	movw	r3, #65535	; 0xffff
50004544:	e345300f 	movt	r3, #20495	; 0x500f
50004548:	e1520003 	cmp	r2, r3
5000454c:	8a00000c 	bhi	50004584 <tsee_main+0xf4c>
/home/liwenhaosuper/data/trustkernel/tsee/tsee/tsee/tee/dispatch.c:456
50004550:	e3093b04 	movw	r3, #39684	; 0x9b04
50004554:	e3453000 	movt	r3, #20480	; 0x5000
50004558:	e58d3000 	str	r3, [sp]
5000455c:	e3090d70 	movw	r0, #40304	; 0x9d70
50004560:	e3450000 	movt	r0, #20480	; 0x5000
50004564:	e3a01f72 	mov	r1, #456	; 0x1c8
50004568:	e3a02001 	mov	r2, #1
5000456c:	e3a03001 	mov	r3, #1
50004570:	e306cc80 	movw	ip, #27776	; 0x6c80
50004574:	e345c000 	movt	ip, #20480	; 0x5000
50004578:	e12fff3c 	blx	ip
/home/liwenhaosuper/data/trustkernel/tsee/tsee/tsee/tee/dispatch.c:457
5000457c:	e3a03001 	mov	r3, #1
50004580:	ea000253 	b	50004ed4 <tsee_main+0x189c>
/home/liwenhaosuper/data/trustkernel/tsee/tsee/tsee/tee/dispatch.c:459
50004584:	e51b2018 	ldr	r2, [fp, #-24]	; 0xffffffe8
50004588:	e51b3014 	ldr	r3, [fp, #-20]	; 0xffffffec
5000458c:	e0822003 	add	r2, r2, r3
50004590:	e3093b20 	movw	r3, #39712	; 0x9b20
50004594:	e3453000 	movt	r3, #20480	; 0x5000
50004598:	e58d3000 	str	r3, [sp]
5000459c:	e51b3014 	ldr	r3, [fp, #-20]	; 0xffffffec
500045a0:	e58d3004 	str	r3, [sp, #4]
500045a4:	e58d2008 	str	r2, [sp, #8]
500045a8:	e3090d70 	movw	r0, #40304	; 0x9d70
500045ac:	e3450000 	movt	r0, #20480	; 0x5000
500045b0:	e30011cb 	movw	r1, #459	; 0x1cb
500045b4:	e3a02003 	mov	r2, #3
500045b8:	e3a03001 	mov	r3, #1
500045bc:	e306cc80 	movw	ip, #27776	; 0x6c80
500045c0:	e345c000 	movt	ip, #20480	; 0x5000
500045c4:	e12fff3c 	blx	ip
/home/liwenhaosuper/data/trustkernel/tsee/tsee/tsee/tee/dispatch.c:460
500045c8:	e30c3118 	movw	r3, #49432	; 0xc118
500045cc:	e3453000 	movt	r3, #20480	; 0x5000
500045d0:	e51b2014 	ldr	r2, [fp, #-20]	; 0xffffffec
500045d4:	e583205c 	str	r2, [r3, #92]	; 0x5c
/home/liwenhaosuper/data/trustkernel/tsee/tsee/tsee/tee/dispatch.c:461
500045d8:	e51b2014 	ldr	r2, [fp, #-20]	; 0xffffffec
500045dc:	e51b3018 	ldr	r3, [fp, #-24]	; 0xffffffe8
500045e0:	e0822003 	add	r2, r2, r3
500045e4:	e30c3118 	movw	r3, #49432	; 0xc118
500045e8:	e3453000 	movt	r3, #20480	; 0x5000
500045ec:	e5832060 	str	r2, [r3, #96]	; 0x60
/home/liwenhaosuper/data/trustkernel/tsee/tsee/tsee/tee/dispatch.c:462
500045f0:	ea000236 	b	50004ed0 <tsee_main+0x1898>
/home/liwenhaosuper/data/trustkernel/tsee/tsee/tsee/tee/dispatch.c:464
500045f4:	e3053208 	movw	r3, #21000	; 0x5208
500045f8:	e3453000 	movt	r3, #20480	; 0x5000
500045fc:	e12fff33 	blx	r3
50004600:	e1a03000 	mov	r3, r0
50004604:	e3530000 	cmp	r3, #0
50004608:	0a000001 	beq	50004614 <tsee_main+0xfdc>
/home/liwenhaosuper/data/trustkernel/tsee/tsee/tsee/tee/dispatch.c:465
5000460c:	e3a03001 	mov	r3, #1
50004610:	ea00022f 	b	50004ed4 <tsee_main+0x189c>
/home/liwenhaosuper/data/trustkernel/tsee/tsee/tsee/tee/dispatch.c:467
50004614:	e51b2014 	ldr	r2, [fp, #-20]	; 0xffffffec
50004618:	e51b3018 	ldr	r3, [fp, #-24]	; 0xffffffe8
5000461c:	e0823003 	add	r3, r2, r3
50004620:	e3530205 	cmp	r3, #1342177280	; 0x50000000
50004624:	9a000011 	bls	50004670 <tsee_main+0x1038>
50004628:	e51b2014 	ldr	r2, [fp, #-20]	; 0xffffffec
5000462c:	e30f3fff 	movw	r3, #65535	; 0xffff
50004630:	e345300f 	movt	r3, #20495	; 0x500f
50004634:	e1520003 	cmp	r2, r3
50004638:	8a00000c 	bhi	50004670 <tsee_main+0x1038>
/home/liwenhaosuper/data/trustkernel/tsee/tsee/tsee/tee/dispatch.c:469
5000463c:	e3093b4c 	movw	r3, #39756	; 0x9b4c
50004640:	e3453000 	movt	r3, #20480	; 0x5000
50004644:	e58d3000 	str	r3, [sp]
50004648:	e3090d70 	movw	r0, #40304	; 0x9d70
5000464c:	e3450000 	movt	r0, #20480	; 0x5000
50004650:	e30011d5 	movw	r1, #469	; 0x1d5
50004654:	e3a02001 	mov	r2, #1
50004658:	e3a03001 	mov	r3, #1
5000465c:	e306cc80 	movw	ip, #27776	; 0x6c80
50004660:	e345c000 	movt	ip, #20480	; 0x5000
50004664:	e12fff3c 	blx	ip
/home/liwenhaosuper/data/trustkernel/tsee/tsee/tsee/tee/dispatch.c:470
50004668:	e3a03001 	mov	r3, #1
5000466c:	ea000218 	b	50004ed4 <tsee_main+0x189c>
/home/liwenhaosuper/data/trustkernel/tsee/tsee/tsee/tee/dispatch.c:472
50004670:	e51b2014 	ldr	r2, [fp, #-20]	; 0xffffffec
50004674:	e51b3018 	ldr	r3, [fp, #-24]	; 0xffffffe8
50004678:	e0822003 	add	r2, r2, r3
5000467c:	e3093b60 	movw	r3, #39776	; 0x9b60
50004680:	e3453000 	movt	r3, #20480	; 0x5000
50004684:	e58d3000 	str	r3, [sp]
50004688:	e51b3014 	ldr	r3, [fp, #-20]	; 0xffffffec
5000468c:	e58d3004 	str	r3, [sp, #4]
50004690:	e58d2008 	str	r2, [sp, #8]
50004694:	e3090d70 	movw	r0, #40304	; 0x9d70
50004698:	e3450000 	movt	r0, #20480	; 0x5000
5000469c:	e3a01f76 	mov	r1, #472	; 0x1d8
500046a0:	e3a02003 	mov	r2, #3
500046a4:	e3a03001 	mov	r3, #1
500046a8:	e306cc80 	movw	ip, #27776	; 0x6c80
500046ac:	e345c000 	movt	ip, #20480	; 0x5000
500046b0:	e12fff3c 	blx	ip
/home/liwenhaosuper/data/trustkernel/tsee/tsee/tsee/tee/dispatch.c:473
500046b4:	e30c3118 	movw	r3, #49432	; 0xc118
500046b8:	e3453000 	movt	r3, #20480	; 0x5000
500046bc:	e5933038 	ldr	r3, [r3, #56]	; 0x38
500046c0:	e3530000 	cmp	r3, #0
500046c4:	1a00000f 	bne	50004708 <tsee_main+0x10d0>
500046c8:	e30c3118 	movw	r3, #49432	; 0xc118
500046cc:	e3453000 	movt	r3, #20480	; 0x5000
500046d0:	e593303c 	ldr	r3, [r3, #60]	; 0x3c
500046d4:	e3530000 	cmp	r3, #0
500046d8:	1a00000a 	bne	50004708 <tsee_main+0x10d0>
/home/liwenhaosuper/data/trustkernel/tsee/tsee/tsee/tee/dispatch.c:474
500046dc:	e30c3118 	movw	r3, #49432	; 0xc118
500046e0:	e3453000 	movt	r3, #20480	; 0x5000
500046e4:	e51b2014 	ldr	r2, [fp, #-20]	; 0xffffffec
500046e8:	e5832038 	str	r2, [r3, #56]	; 0x38
/home/liwenhaosuper/data/trustkernel/tsee/tsee/tsee/tee/dispatch.c:475
500046ec:	e51b2014 	ldr	r2, [fp, #-20]	; 0xffffffec
500046f0:	e51b3018 	ldr	r3, [fp, #-24]	; 0xffffffe8
500046f4:	e0822003 	add	r2, r2, r3
500046f8:	e30c3118 	movw	r3, #49432	; 0xc118
500046fc:	e3453000 	movt	r3, #20480	; 0x5000
50004700:	e583203c 	str	r2, [r3, #60]	; 0x3c
50004704:	ea000020 	b	5000478c <tsee_main+0x1154>
/home/liwenhaosuper/data/trustkernel/tsee/tsee/tsee/tee/dispatch.c:476
50004708:	e30c3118 	movw	r3, #49432	; 0xc118
5000470c:	e3453000 	movt	r3, #20480	; 0x5000
50004710:	e5933040 	ldr	r3, [r3, #64]	; 0x40
50004714:	e3530000 	cmp	r3, #0
50004718:	1a00000f 	bne	5000475c <tsee_main+0x1124>
5000471c:	e30c3118 	movw	r3, #49432	; 0xc118
50004720:	e3453000 	movt	r3, #20480	; 0x5000
50004724:	e5933044 	ldr	r3, [r3, #68]	; 0x44
50004728:	e3530000 	cmp	r3, #0
5000472c:	1a00000a 	bne	5000475c <tsee_main+0x1124>
/home/liwenhaosuper/data/trustkernel/tsee/tsee/tsee/tee/dispatch.c:477
50004730:	e30c3118 	movw	r3, #49432	; 0xc118
50004734:	e3453000 	movt	r3, #20480	; 0x5000
50004738:	e51b2014 	ldr	r2, [fp, #-20]	; 0xffffffec
5000473c:	e5832040 	str	r2, [r3, #64]	; 0x40
/home/liwenhaosuper/data/trustkernel/tsee/tsee/tsee/tee/dispatch.c:478
50004740:	e51b2014 	ldr	r2, [fp, #-20]	; 0xffffffec
50004744:	e51b3018 	ldr	r3, [fp, #-24]	; 0xffffffe8
50004748:	e0822003 	add	r2, r2, r3
5000474c:	e30c3118 	movw	r3, #49432	; 0xc118
50004750:	e3453000 	movt	r3, #20480	; 0x5000
50004754:	e5832044 	str	r2, [r3, #68]	; 0x44
50004758:	ea00000b 	b	5000478c <tsee_main+0x1154>
/home/liwenhaosuper/data/trustkernel/tsee/tsee/tsee/tee/dispatch.c:480
5000475c:	e3093b80 	movw	r3, #39808	; 0x9b80
50004760:	e3453000 	movt	r3, #20480	; 0x5000
50004764:	e58d3000 	str	r3, [sp]
50004768:	e3090d70 	movw	r0, #40304	; 0x9d70
5000476c:	e3450000 	movt	r0, #20480	; 0x5000
50004770:	e3a01e1e 	mov	r1, #480	; 0x1e0
50004774:	e3a02001 	mov	r2, #1
50004778:	e3a03001 	mov	r3, #1
5000477c:	e306cc80 	movw	ip, #27776	; 0x6c80
50004780:	e345c000 	movt	ip, #20480	; 0x5000
50004784:	e12fff3c 	blx	ip
/home/liwenhaosuper/data/trustkernel/tsee/tsee/tsee/tee/dispatch.c:482
50004788:	ea0001d0 	b	50004ed0 <tsee_main+0x1898>
5000478c:	ea0001cf 	b	50004ed0 <tsee_main+0x1898>
/home/liwenhaosuper/data/trustkernel/tsee/tsee/tsee/tee/dispatch.c:484
50004790:	e3093b94 	movw	r3, #39828	; 0x9b94
50004794:	e3453000 	movt	r3, #20480	; 0x5000
50004798:	e58d3000 	str	r3, [sp]
5000479c:	e3090d70 	movw	r0, #40304	; 0x9d70
500047a0:	e3450000 	movt	r0, #20480	; 0x5000
500047a4:	e3a01f79 	mov	r1, #484	; 0x1e4
500047a8:	e3a02003 	mov	r2, #3
500047ac:	e3a03001 	mov	r3, #1
500047b0:	e306cc80 	movw	ip, #27776	; 0x6c80
500047b4:	e345c000 	movt	ip, #20480	; 0x5000
500047b8:	e12fff3c 	blx	ip
/home/liwenhaosuper/data/trustkernel/tsee/tsee/tsee/tee/dispatch.c:485
500047bc:	ea0001c3 	b	50004ed0 <tsee_main+0x1898>
/home/liwenhaosuper/data/trustkernel/tsee/tsee/tsee/tee/dispatch.c:487
500047c0:	e3053208 	movw	r3, #21000	; 0x5208
500047c4:	e3453000 	movt	r3, #20480	; 0x5000
500047c8:	e12fff33 	blx	r3
500047cc:	e1a03000 	mov	r3, r0
500047d0:	e3530000 	cmp	r3, #0
500047d4:	0a000001 	beq	500047e0 <tsee_main+0x11a8>
/home/liwenhaosuper/data/trustkernel/tsee/tsee/tsee/tee/dispatch.c:488
500047d8:	e3a03001 	mov	r3, #1
500047dc:	ea0001bc 	b	50004ed4 <tsee_main+0x189c>
/home/liwenhaosuper/data/trustkernel/tsee/tsee/tsee/tee/dispatch.c:490
500047e0:	e51b2014 	ldr	r2, [fp, #-20]	; 0xffffffec
500047e4:	e51b3018 	ldr	r3, [fp, #-24]	; 0xffffffe8
500047e8:	e0823003 	add	r3, r2, r3
500047ec:	e3530205 	cmp	r3, #1342177280	; 0x50000000
500047f0:	9a000011 	bls	5000483c <tsee_main+0x1204>
500047f4:	e51b2014 	ldr	r2, [fp, #-20]	; 0xffffffec
500047f8:	e30f3fff 	movw	r3, #65535	; 0xffff
500047fc:	e345300f 	movt	r3, #20495	; 0x500f
50004800:	e1520003 	cmp	r2, r3
50004804:	8a00000c 	bhi	5000483c <tsee_main+0x1204>
/home/liwenhaosuper/data/trustkernel/tsee/tsee/tsee/tee/dispatch.c:492
50004808:	e3093ba8 	movw	r3, #39848	; 0x9ba8
5000480c:	e3453000 	movt	r3, #20480	; 0x5000
50004810:	e58d3000 	str	r3, [sp]
50004814:	e3090d70 	movw	r0, #40304	; 0x9d70
50004818:	e3450000 	movt	r0, #20480	; 0x5000
5000481c:	e3a01f7b 	mov	r1, #492	; 0x1ec
50004820:	e3a02001 	mov	r2, #1
50004824:	e3a03001 	mov	r3, #1
50004828:	e306cc80 	movw	ip, #27776	; 0x6c80
5000482c:	e345c000 	movt	ip, #20480	; 0x5000
50004830:	e12fff3c 	blx	ip
/home/liwenhaosuper/data/trustkernel/tsee/tsee/tsee/tee/dispatch.c:493
50004834:	e3a03001 	mov	r3, #1
50004838:	ea0001a5 	b	50004ed4 <tsee_main+0x189c>
/home/liwenhaosuper/data/trustkernel/tsee/tsee/tsee/tee/dispatch.c:495
5000483c:	e51b2018 	ldr	r2, [fp, #-24]	; 0xffffffe8
50004840:	e51b3014 	ldr	r3, [fp, #-20]	; 0xffffffec
50004844:	e0822003 	add	r2, r2, r3
50004848:	e3093bc0 	movw	r3, #39872	; 0x9bc0
5000484c:	e3453000 	movt	r3, #20480	; 0x5000
50004850:	e58d3000 	str	r3, [sp]
50004854:	e51b3014 	ldr	r3, [fp, #-20]	; 0xffffffec
50004858:	e58d3004 	str	r3, [sp, #4]
5000485c:	e58d2008 	str	r2, [sp, #8]
50004860:	e3090d70 	movw	r0, #40304	; 0x9d70
50004864:	e3450000 	movt	r0, #20480	; 0x5000
50004868:	e30011ef 	movw	r1, #495	; 0x1ef
5000486c:	e3a02003 	mov	r2, #3
50004870:	e3a03001 	mov	r3, #1
50004874:	e306cc80 	movw	ip, #27776	; 0x6c80
50004878:	e345c000 	movt	ip, #20480	; 0x5000
5000487c:	e12fff3c 	blx	ip
/home/liwenhaosuper/data/trustkernel/tsee/tsee/tsee/tee/dispatch.c:496
50004880:	e30c3118 	movw	r3, #49432	; 0xc118
50004884:	e3453000 	movt	r3, #20480	; 0x5000
50004888:	e593304c 	ldr	r3, [r3, #76]	; 0x4c
5000488c:	e3530000 	cmp	r3, #0
50004890:	1a00000f 	bne	500048d4 <tsee_main+0x129c>
50004894:	e30c3118 	movw	r3, #49432	; 0xc118
50004898:	e3453000 	movt	r3, #20480	; 0x5000
5000489c:	e5933050 	ldr	r3, [r3, #80]	; 0x50
500048a0:	e3530000 	cmp	r3, #0
500048a4:	1a00000a 	bne	500048d4 <tsee_main+0x129c>
/home/liwenhaosuper/data/trustkernel/tsee/tsee/tsee/tee/dispatch.c:497
500048a8:	e30c3118 	movw	r3, #49432	; 0xc118
500048ac:	e3453000 	movt	r3, #20480	; 0x5000
500048b0:	e51b2014 	ldr	r2, [fp, #-20]	; 0xffffffec
500048b4:	e583204c 	str	r2, [r3, #76]	; 0x4c
/home/liwenhaosuper/data/trustkernel/tsee/tsee/tsee/tee/dispatch.c:498
500048b8:	e51b2014 	ldr	r2, [fp, #-20]	; 0xffffffec
500048bc:	e51b3018 	ldr	r3, [fp, #-24]	; 0xffffffe8
500048c0:	e0822003 	add	r2, r2, r3
500048c4:	e30c3118 	movw	r3, #49432	; 0xc118
500048c8:	e3453000 	movt	r3, #20480	; 0x5000
500048cc:	e5832050 	str	r2, [r3, #80]	; 0x50
500048d0:	ea000020 	b	50004958 <tsee_main+0x1320>
/home/liwenhaosuper/data/trustkernel/tsee/tsee/tsee/tee/dispatch.c:499
500048d4:	e30c3118 	movw	r3, #49432	; 0xc118
500048d8:	e3453000 	movt	r3, #20480	; 0x5000
500048dc:	e5933054 	ldr	r3, [r3, #84]	; 0x54
500048e0:	e3530000 	cmp	r3, #0
500048e4:	1a00000f 	bne	50004928 <tsee_main+0x12f0>
500048e8:	e30c3118 	movw	r3, #49432	; 0xc118
500048ec:	e3453000 	movt	r3, #20480	; 0x5000
500048f0:	e5933058 	ldr	r3, [r3, #88]	; 0x58
500048f4:	e3530000 	cmp	r3, #0
500048f8:	1a00000a 	bne	50004928 <tsee_main+0x12f0>
/home/liwenhaosuper/data/trustkernel/tsee/tsee/tsee/tee/dispatch.c:500
500048fc:	e30c3118 	movw	r3, #49432	; 0xc118
50004900:	e3453000 	movt	r3, #20480	; 0x5000
50004904:	e51b2014 	ldr	r2, [fp, #-20]	; 0xffffffec
50004908:	e5832054 	str	r2, [r3, #84]	; 0x54
/home/liwenhaosuper/data/trustkernel/tsee/tsee/tsee/tee/dispatch.c:501
5000490c:	e51b2014 	ldr	r2, [fp, #-20]	; 0xffffffec
50004910:	e51b3018 	ldr	r3, [fp, #-24]	; 0xffffffe8
50004914:	e0822003 	add	r2, r2, r3
50004918:	e30c3118 	movw	r3, #49432	; 0xc118
5000491c:	e3453000 	movt	r3, #20480	; 0x5000
50004920:	e5832058 	str	r2, [r3, #88]	; 0x58
50004924:	ea00000b 	b	50004958 <tsee_main+0x1320>
/home/liwenhaosuper/data/trustkernel/tsee/tsee/tsee/tee/dispatch.c:503
50004928:	e3093be4 	movw	r3, #39908	; 0x9be4
5000492c:	e3453000 	movt	r3, #20480	; 0x5000
50004930:	e58d3000 	str	r3, [sp]
50004934:	e3090d70 	movw	r0, #40304	; 0x9d70
50004938:	e3450000 	movt	r0, #20480	; 0x5000
5000493c:	e30011f7 	movw	r1, #503	; 0x1f7
50004940:	e3a02001 	mov	r2, #1
50004944:	e3a03001 	mov	r3, #1
50004948:	e306cc80 	movw	ip, #27776	; 0x6c80
5000494c:	e345c000 	movt	ip, #20480	; 0x5000
50004950:	e12fff3c 	blx	ip
/home/liwenhaosuper/data/trustkernel/tsee/tsee/tsee/tee/dispatch.c:505
50004954:	ea00015d 	b	50004ed0 <tsee_main+0x1898>
50004958:	ea00015c 	b	50004ed0 <tsee_main+0x1898>
/home/liwenhaosuper/data/trustkernel/tsee/tsee/tsee/tee/dispatch.c:510
5000495c:	e3093bf8 	movw	r3, #39928	; 0x9bf8
50004960:	e3453000 	movt	r3, #20480	; 0x5000
50004964:	e58d3000 	str	r3, [sp]
50004968:	e3090d70 	movw	r0, #40304	; 0x9d70
5000496c:	e3450000 	movt	r0, #20480	; 0x5000
50004970:	e30011fe 	movw	r1, #510	; 0x1fe
50004974:	e3a02003 	mov	r2, #3
50004978:	e3a03001 	mov	r3, #1
5000497c:	e306cc80 	movw	ip, #27776	; 0x6c80
50004980:	e345c000 	movt	ip, #20480	; 0x5000
50004984:	e12fff3c 	blx	ip
/home/liwenhaosuper/data/trustkernel/tsee/tsee/tsee/tee/dispatch.c:511
50004988:	e305322c 	movw	r3, #21036	; 0x522c
5000498c:	e3453000 	movt	r3, #20480	; 0x5000
50004990:	e12fff33 	blx	r3
/home/liwenhaosuper/data/trustkernel/tsee/tsee/tsee/tee/dispatch.c:512
50004994:	ea00014d 	b	50004ed0 <tsee_main+0x1898>
/home/liwenhaosuper/data/trustkernel/tsee/tsee/tsee/tee/dispatch.c:514
50004998:	e3093c10 	movw	r3, #39952	; 0x9c10
5000499c:	e3453000 	movt	r3, #20480	; 0x5000
500049a0:	e58d3000 	str	r3, [sp]
500049a4:	e51b3014 	ldr	r3, [fp, #-20]	; 0xffffffec
500049a8:	e58d3004 	str	r3, [sp, #4]
500049ac:	e3090d70 	movw	r0, #40304	; 0x9d70
500049b0:	e3450000 	movt	r0, #20480	; 0x5000
500049b4:	e3001202 	movw	r1, #514	; 0x202
500049b8:	e3a02003 	mov	r2, #3
500049bc:	e3a03001 	mov	r3, #1
500049c0:	e306cc80 	movw	ip, #27776	; 0x6c80
500049c4:	e345c000 	movt	ip, #20480	; 0x5000
500049c8:	e12fff3c 	blx	ip
/home/liwenhaosuper/data/trustkernel/tsee/tsee/tsee/tee/dispatch.c:515
500049cc:	e51b3014 	ldr	r3, [fp, #-20]	; 0xffffffec
500049d0:	e1a00003 	mov	r0, r3
500049d4:	e30630d4 	movw	r3, #24788	; 0x60d4
500049d8:	e3453000 	movt	r3, #20480	; 0x5000
500049dc:	e12fff33 	blx	r3
/home/liwenhaosuper/data/trustkernel/tsee/tsee/tsee/tee/dispatch.c:516
500049e0:	ea00013a 	b	50004ed0 <tsee_main+0x1898>
/home/liwenhaosuper/data/trustkernel/tsee/tsee/tsee/tee/dispatch.c:518
500049e4:	e3093c2c 	movw	r3, #39980	; 0x9c2c
500049e8:	e3453000 	movt	r3, #20480	; 0x5000
500049ec:	e58d3000 	str	r3, [sp]
500049f0:	e3090d70 	movw	r0, #40304	; 0x9d70
500049f4:	e3450000 	movt	r0, #20480	; 0x5000
500049f8:	e3001206 	movw	r1, #518	; 0x206
500049fc:	e3a02003 	mov	r2, #3
50004a00:	e3a03001 	mov	r3, #1
50004a04:	e306cc80 	movw	ip, #27776	; 0x6c80
50004a08:	e345c000 	movt	ip, #20480	; 0x5000
50004a0c:	e12fff3c 	blx	ip
/home/liwenhaosuper/data/trustkernel/tsee/tsee/tsee/tee/dispatch.c:520
50004a10:	e30b3018 	movw	r3, #45080	; 0xb018
50004a14:	e3453000 	movt	r3, #20480	; 0x5000
50004a18:	e51b2014 	ldr	r2, [fp, #-20]	; 0xffffffec
50004a1c:	e5832000 	str	r2, [r3]
/home/liwenhaosuper/data/trustkernel/tsee/tsee/tsee/tee/dispatch.c:521
50004a20:	ea00012a 	b	50004ed0 <tsee_main+0x1898>
/home/liwenhaosuper/data/trustkernel/tsee/tsee/tsee/tee/dispatch.c:524
50004a24:	e51b3014 	ldr	r3, [fp, #-20]	; 0xffffffec
50004a28:	e373021b 	cmn	r3, #-1342177279	; 0xb0000001
50004a2c:	9a00000f 	bls	50004a70 <tsee_main+0x1438>
50004a30:	e51b2014 	ldr	r2, [fp, #-20]	; 0xffffffec
50004a34:	e30f3fff 	movw	r3, #65535	; 0xffff
50004a38:	e345300f 	movt	r3, #20495	; 0x500f
50004a3c:	e1520003 	cmp	r2, r3
50004a40:	8a00000a 	bhi	50004a70 <tsee_main+0x1438>
/home/liwenhaosuper/data/trustkernel/tsee/tsee/tsee/tee/dispatch.c:525
50004a44:	e3093c44 	movw	r3, #40004	; 0x9c44
50004a48:	e3453000 	movt	r3, #20480	; 0x5000
50004a4c:	e58d3000 	str	r3, [sp]
50004a50:	e3090d70 	movw	r0, #40304	; 0x9d70
50004a54:	e3450000 	movt	r0, #20480	; 0x5000
50004a58:	e300120d 	movw	r1, #525	; 0x20d
50004a5c:	e3a02001 	mov	r2, #1
50004a60:	e3a03001 	mov	r3, #1
50004a64:	e306cc80 	movw	ip, #27776	; 0x6c80
50004a68:	e345c000 	movt	ip, #20480	; 0x5000
50004a6c:	e12fff3c 	blx	ip
/home/liwenhaosuper/data/trustkernel/tsee/tsee/tsee/tee/dispatch.c:528
50004a70:	e30b3018 	movw	r3, #45080	; 0xb018
50004a74:	e3453000 	movt	r3, #20480	; 0x5000
50004a78:	e51b2014 	ldr	r2, [fp, #-20]	; 0xffffffec
50004a7c:	e5832004 	str	r2, [r3, #4]
/home/liwenhaosuper/data/trustkernel/tsee/tsee/tsee/tee/dispatch.c:529
50004a80:	ea000112 	b	50004ed0 <tsee_main+0x1898>
/home/liwenhaosuper/data/trustkernel/tsee/tsee/tsee/tee/dispatch.c:532
50004a84:	e51b3014 	ldr	r3, [fp, #-20]	; 0xffffffec
50004a88:	e373021b 	cmn	r3, #-1342177279	; 0xb0000001
50004a8c:	9a00000f 	bls	50004ad0 <tsee_main+0x1498>
50004a90:	e51b2014 	ldr	r2, [fp, #-20]	; 0xffffffec
50004a94:	e30f3fff 	movw	r3, #65535	; 0xffff
50004a98:	e345300f 	movt	r3, #20495	; 0x500f
50004a9c:	e1520003 	cmp	r2, r3
50004aa0:	8a00000a 	bhi	50004ad0 <tsee_main+0x1498>
/home/liwenhaosuper/data/trustkernel/tsee/tsee/tsee/tee/dispatch.c:533
50004aa4:	e3093c5c 	movw	r3, #40028	; 0x9c5c
50004aa8:	e3453000 	movt	r3, #20480	; 0x5000
50004aac:	e58d3000 	str	r3, [sp]
50004ab0:	e3090d70 	movw	r0, #40304	; 0x9d70
50004ab4:	e3450000 	movt	r0, #20480	; 0x5000
50004ab8:	e3001215 	movw	r1, #533	; 0x215
50004abc:	e3a02001 	mov	r2, #1
50004ac0:	e3a03001 	mov	r3, #1
50004ac4:	e306cc80 	movw	ip, #27776	; 0x6c80
50004ac8:	e345c000 	movt	ip, #20480	; 0x5000
50004acc:	e12fff3c 	blx	ip
/home/liwenhaosuper/data/trustkernel/tsee/tsee/tsee/tee/dispatch.c:536
50004ad0:	e30b3018 	movw	r3, #45080	; 0xb018
50004ad4:	e3453000 	movt	r3, #20480	; 0x5000
50004ad8:	e51b2014 	ldr	r2, [fp, #-20]	; 0xffffffec
50004adc:	e5832008 	str	r2, [r3, #8]
/home/liwenhaosuper/data/trustkernel/tsee/tsee/tsee/tee/dispatch.c:537
50004ae0:	ea0000fa 	b	50004ed0 <tsee_main+0x1898>
/home/liwenhaosuper/data/trustkernel/tsee/tsee/tsee/tee/dispatch.c:540
50004ae4:	e3053208 	movw	r3, #21000	; 0x5208
50004ae8:	e3453000 	movt	r3, #20480	; 0x5000
50004aec:	e12fff33 	blx	r3
/home/liwenhaosuper/data/trustkernel/tsee/tsee/tsee/tee/dispatch.c:544
50004af0:	e30b3018 	movw	r3, #45080	; 0xb018
50004af4:	e3453000 	movt	r3, #20480	; 0x5000
50004af8:	e51b2014 	ldr	r2, [fp, #-20]	; 0xffffffec
50004afc:	e583200c 	str	r2, [r3, #12]
/home/liwenhaosuper/data/trustkernel/tsee/tsee/tsee/tee/dispatch.c:545
50004b00:	ea0000f2 	b	50004ed0 <tsee_main+0x1898>
/home/liwenhaosuper/data/trustkernel/tsee/tsee/tsee/tee/dispatch.c:547
50004b04:	e3093c74 	movw	r3, #40052	; 0x9c74
50004b08:	e3453000 	movt	r3, #20480	; 0x5000
50004b0c:	e58d3000 	str	r3, [sp]
50004b10:	e3090d70 	movw	r0, #40304	; 0x9d70
50004b14:	e3450000 	movt	r0, #20480	; 0x5000
50004b18:	e3001223 	movw	r1, #547	; 0x223
50004b1c:	e3a02003 	mov	r2, #3
50004b20:	e3a03001 	mov	r3, #1
50004b24:	e306cc80 	movw	ip, #27776	; 0x6c80
50004b28:	e345c000 	movt	ip, #20480	; 0x5000
50004b2c:	e12fff3c 	blx	ip
/home/liwenhaosuper/data/trustkernel/tsee/tsee/tsee/tee/dispatch.c:548
50004b30:	e3053208 	movw	r3, #21000	; 0x5208
50004b34:	e3453000 	movt	r3, #20480	; 0x5000
50004b38:	e12fff33 	blx	r3
50004b3c:	e1a03000 	mov	r3, r0
50004b40:	e3530000 	cmp	r3, #0
50004b44:	0a0000de 	beq	50004ec4 <tsee_main+0x188c>
50004b48:	e51b2014 	ldr	r2, [fp, #-20]	; 0xffffffec
50004b4c:	e3053555 	movw	r3, #21845	; 0x5555
50004b50:	e3453555 	movt	r3, #21845	; 0x5555
50004b54:	e1520003 	cmp	r2, r3
50004b58:	0a0000db 	beq	50004ecc <tsee_main+0x1894>
/home/liwenhaosuper/data/trustkernel/tsee/tsee/tsee/tee/dispatch.c:549
50004b5c:	e3093c9c 	movw	r3, #40092	; 0x9c9c
50004b60:	e3453000 	movt	r3, #20480	; 0x5000
50004b64:	e58d3000 	str	r3, [sp]
50004b68:	e3090d70 	movw	r0, #40304	; 0x9d70
50004b6c:	e3450000 	movt	r0, #20480	; 0x5000
50004b70:	e3001225 	movw	r1, #549	; 0x225
50004b74:	e3a02001 	mov	r2, #1
50004b78:	e3a03001 	mov	r3, #1
50004b7c:	e306cc80 	movw	ip, #27776	; 0x6c80
50004b80:	e345c000 	movt	ip, #20480	; 0x5000
50004b84:	e12fff3c 	blx	ip
/home/liwenhaosuper/data/trustkernel/tsee/tsee/tsee/tee/dispatch.c:551
50004b88:	ea0000d0 	b	50004ed0 <tsee_main+0x1898>
/home/liwenhaosuper/data/trustkernel/tsee/tsee/tsee/tee/dispatch.c:556
50004b8c:	e30c3118 	movw	r3, #49432	; 0xc118
50004b90:	e3453000 	movt	r3, #20480	; 0x5000
50004b94:	e5932050 	ldr	r2, [r3, #80]	; 0x50
50004b98:	e51b3014 	ldr	r3, [fp, #-20]	; 0xffffffec
50004b9c:	e1520003 	cmp	r2, r3
50004ba0:	9a000007 	bls	50004bc4 <tsee_main+0x158c>
50004ba4:	e51b2014 	ldr	r2, [fp, #-20]	; 0xffffffec
50004ba8:	e51b3018 	ldr	r3, [fp, #-24]	; 0xffffffe8
50004bac:	e0822003 	add	r2, r2, r3
50004bb0:	e30c3118 	movw	r3, #49432	; 0xc118
50004bb4:	e3453000 	movt	r3, #20480	; 0x5000
50004bb8:	e593304c 	ldr	r3, [r3, #76]	; 0x4c
50004bbc:	e1520003 	cmp	r2, r3
50004bc0:	8a00002d 	bhi	50004c7c <tsee_main+0x1644>
/home/liwenhaosuper/data/trustkernel/tsee/tsee/tsee/tee/dispatch.c:557
50004bc4:	e30c3118 	movw	r3, #49432	; 0xc118
50004bc8:	e3453000 	movt	r3, #20480	; 0x5000
50004bcc:	e5932058 	ldr	r2, [r3, #88]	; 0x58
/home/liwenhaosuper/data/trustkernel/tsee/tsee/tsee/tee/dispatch.c:556
50004bd0:	e51b3014 	ldr	r3, [fp, #-20]	; 0xffffffec
50004bd4:	e1520003 	cmp	r2, r3
50004bd8:	9a000007 	bls	50004bfc <tsee_main+0x15c4>
/home/liwenhaosuper/data/trustkernel/tsee/tsee/tsee/tee/dispatch.c:557
50004bdc:	e51b2014 	ldr	r2, [fp, #-20]	; 0xffffffec
50004be0:	e51b3018 	ldr	r3, [fp, #-24]	; 0xffffffe8
50004be4:	e0822003 	add	r2, r2, r3
50004be8:	e30c3118 	movw	r3, #49432	; 0xc118
50004bec:	e3453000 	movt	r3, #20480	; 0x5000
50004bf0:	e5933054 	ldr	r3, [r3, #84]	; 0x54
50004bf4:	e1520003 	cmp	r2, r3
50004bf8:	8a00001f 	bhi	50004c7c <tsee_main+0x1644>
/home/liwenhaosuper/data/trustkernel/tsee/tsee/tsee/tee/dispatch.c:558
50004bfc:	e30c3118 	movw	r3, #49432	; 0xc118
50004c00:	e3453000 	movt	r3, #20480	; 0x5000
50004c04:	e5932060 	ldr	r2, [r3, #96]	; 0x60
/home/liwenhaosuper/data/trustkernel/tsee/tsee/tsee/tee/dispatch.c:557
50004c08:	e51b3014 	ldr	r3, [fp, #-20]	; 0xffffffec
50004c0c:	e1520003 	cmp	r2, r3
50004c10:	9a000007 	bls	50004c34 <tsee_main+0x15fc>
/home/liwenhaosuper/data/trustkernel/tsee/tsee/tsee/tee/dispatch.c:558
50004c14:	e51b2014 	ldr	r2, [fp, #-20]	; 0xffffffec
50004c18:	e51b3018 	ldr	r3, [fp, #-24]	; 0xffffffe8
50004c1c:	e0822003 	add	r2, r2, r3
50004c20:	e30c3118 	movw	r3, #49432	; 0xc118
50004c24:	e3453000 	movt	r3, #20480	; 0x5000
50004c28:	e593305c 	ldr	r3, [r3, #92]	; 0x5c
50004c2c:	e1520003 	cmp	r2, r3
50004c30:	8a000011 	bhi	50004c7c <tsee_main+0x1644>
/home/liwenhaosuper/data/trustkernel/tsee/tsee/tsee/tee/dispatch.c:559
50004c34:	e51b2014 	ldr	r2, [fp, #-20]	; 0xffffffec
50004c38:	e51b3018 	ldr	r3, [fp, #-24]	; 0xffffffe8
50004c3c:	e0822003 	add	r2, r2, r3
50004c40:	e3093cc8 	movw	r3, #40136	; 0x9cc8
50004c44:	e3453000 	movt	r3, #20480	; 0x5000
50004c48:	e58d3000 	str	r3, [sp]
50004c4c:	e51b3014 	ldr	r3, [fp, #-20]	; 0xffffffec
50004c50:	e58d3004 	str	r3, [sp, #4]
50004c54:	e58d2008 	str	r2, [sp, #8]
50004c58:	e3090d70 	movw	r0, #40304	; 0x9d70
50004c5c:	e3450000 	movt	r0, #20480	; 0x5000
50004c60:	e300122f 	movw	r1, #559	; 0x22f
50004c64:	e3a02001 	mov	r2, #1
50004c68:	e3a03001 	mov	r3, #1
50004c6c:	e306cc80 	movw	ip, #27776	; 0x6c80
50004c70:	e345c000 	movt	ip, #20480	; 0x5000
50004c74:	e12fff3c 	blx	ip
/home/liwenhaosuper/data/trustkernel/tsee/tsee/tsee/tee/dispatch.c:560
50004c78:	ea000094 	b	50004ed0 <tsee_main+0x1898>
/home/liwenhaosuper/data/trustkernel/tsee/tsee/tsee/tee/dispatch.c:562
50004c7c:	e51b3014 	ldr	r3, [fp, #-20]	; 0xffffffec
50004c80:	e50b3008 	str	r3, [fp, #-8]
50004c84:	ea000016 	b	50004ce4 <tsee_main+0x16ac>
/home/liwenhaosuper/data/trustkernel/tsee/tsee/tsee/tee/dispatch.c:563
50004c88:	e51b0008 	ldr	r0, [fp, #-8]
50004c8c:	e3023f94 	movw	r3, #12180	; 0x2f94
50004c90:	e3453000 	movt	r3, #20480	; 0x5000
50004c94:	e12fff33 	blx	r3
50004c98:	e1a03000 	mov	r3, r0
50004c9c:	e3530000 	cmp	r3, #0
50004ca0:	0a00000c 	beq	50004cd8 <tsee_main+0x16a0>
/home/liwenhaosuper/data/trustkernel/tsee/tsee/tsee/tee/dispatch.c:564
50004ca4:	e3093678 	movw	r3, #38520	; 0x9678
50004ca8:	e3453000 	movt	r3, #20480	; 0x5000
50004cac:	e58d3000 	str	r3, [sp]
50004cb0:	e51b3008 	ldr	r3, [fp, #-8]
50004cb4:	e58d3004 	str	r3, [sp, #4]
50004cb8:	e3090d70 	movw	r0, #40304	; 0x9d70
50004cbc:	e3450000 	movt	r0, #20480	; 0x5000
50004cc0:	e3a01f8d 	mov	r1, #564	; 0x234
50004cc4:	e3a02001 	mov	r2, #1
50004cc8:	e3a03001 	mov	r3, #1
50004ccc:	e306cc80 	movw	ip, #27776	; 0x6c80
50004cd0:	e345c000 	movt	ip, #20480	; 0x5000
50004cd4:	e12fff3c 	blx	ip
/home/liwenhaosuper/data/trustkernel/tsee/tsee/tsee/tee/dispatch.c:562
50004cd8:	e51b3008 	ldr	r3, [fp, #-8]
50004cdc:	e2833a01 	add	r3, r3, #4096	; 0x1000
50004ce0:	e50b3008 	str	r3, [fp, #-8]
50004ce4:	e51b2014 	ldr	r2, [fp, #-20]	; 0xffffffec
50004ce8:	e51b3018 	ldr	r3, [fp, #-24]	; 0xffffffe8
50004cec:	e0822003 	add	r2, r2, r3
50004cf0:	e51b3008 	ldr	r3, [fp, #-8]
50004cf4:	e1520003 	cmp	r2, r3
50004cf8:	8affffe2 	bhi	50004c88 <tsee_main+0x1650>
/home/liwenhaosuper/data/trustkernel/tsee/tsee/tsee/tee/dispatch.c:567
50004cfc:	ea000073 	b	50004ed0 <tsee_main+0x1898>
/home/liwenhaosuper/data/trustkernel/tsee/tsee/tsee/tee/dispatch.c:571
50004d00:	e30c3118 	movw	r3, #49432	; 0xc118
50004d04:	e3453000 	movt	r3, #20480	; 0x5000
50004d08:	e5932050 	ldr	r2, [r3, #80]	; 0x50
50004d0c:	e51b3014 	ldr	r3, [fp, #-20]	; 0xffffffec
50004d10:	e1520003 	cmp	r2, r3
50004d14:	9a000007 	bls	50004d38 <tsee_main+0x1700>
50004d18:	e51b2014 	ldr	r2, [fp, #-20]	; 0xffffffec
50004d1c:	e51b3018 	ldr	r3, [fp, #-24]	; 0xffffffe8
50004d20:	e0822003 	add	r2, r2, r3
50004d24:	e30c3118 	movw	r3, #49432	; 0xc118
50004d28:	e3453000 	movt	r3, #20480	; 0x5000
50004d2c:	e593304c 	ldr	r3, [r3, #76]	; 0x4c
50004d30:	e1520003 	cmp	r2, r3
50004d34:	8a00002d 	bhi	50004df0 <tsee_main+0x17b8>
/home/liwenhaosuper/data/trustkernel/tsee/tsee/tsee/tee/dispatch.c:572
50004d38:	e30c3118 	movw	r3, #49432	; 0xc118
50004d3c:	e3453000 	movt	r3, #20480	; 0x5000
50004d40:	e5932058 	ldr	r2, [r3, #88]	; 0x58
/home/liwenhaosuper/data/trustkernel/tsee/tsee/tsee/tee/dispatch.c:571
50004d44:	e51b3014 	ldr	r3, [fp, #-20]	; 0xffffffec
50004d48:	e1520003 	cmp	r2, r3
50004d4c:	9a000007 	bls	50004d70 <tsee_main+0x1738>
/home/liwenhaosuper/data/trustkernel/tsee/tsee/tsee/tee/dispatch.c:572
50004d50:	e51b2014 	ldr	r2, [fp, #-20]	; 0xffffffec
50004d54:	e51b3018 	ldr	r3, [fp, #-24]	; 0xffffffe8
50004d58:	e0822003 	add	r2, r2, r3
50004d5c:	e30c3118 	movw	r3, #49432	; 0xc118
50004d60:	e3453000 	movt	r3, #20480	; 0x5000
50004d64:	e5933054 	ldr	r3, [r3, #84]	; 0x54
50004d68:	e1520003 	cmp	r2, r3
50004d6c:	8a00001f 	bhi	50004df0 <tsee_main+0x17b8>
/home/liwenhaosuper/data/trustkernel/tsee/tsee/tsee/tee/dispatch.c:573
50004d70:	e30c3118 	movw	r3, #49432	; 0xc118
50004d74:	e3453000 	movt	r3, #20480	; 0x5000
50004d78:	e5932060 	ldr	r2, [r3, #96]	; 0x60
/home/liwenhaosuper/data/trustkernel/tsee/tsee/tsee/tee/dispatch.c:572
50004d7c:	e51b3014 	ldr	r3, [fp, #-20]	; 0xffffffec
50004d80:	e1520003 	cmp	r2, r3
50004d84:	9a000007 	bls	50004da8 <tsee_main+0x1770>
/home/liwenhaosuper/data/trustkernel/tsee/tsee/tsee/tee/dispatch.c:573
50004d88:	e51b2014 	ldr	r2, [fp, #-20]	; 0xffffffec
50004d8c:	e51b3018 	ldr	r3, [fp, #-24]	; 0xffffffe8
50004d90:	e0822003 	add	r2, r2, r3
50004d94:	e30c3118 	movw	r3, #49432	; 0xc118
50004d98:	e3453000 	movt	r3, #20480	; 0x5000
50004d9c:	e593305c 	ldr	r3, [r3, #92]	; 0x5c
50004da0:	e1520003 	cmp	r2, r3
50004da4:	8a000011 	bhi	50004df0 <tsee_main+0x17b8>
/home/liwenhaosuper/data/trustkernel/tsee/tsee/tsee/tee/dispatch.c:574
50004da8:	e51b2014 	ldr	r2, [fp, #-20]	; 0xffffffec
50004dac:	e51b3018 	ldr	r3, [fp, #-24]	; 0xffffffe8
50004db0:	e0822003 	add	r2, r2, r3
50004db4:	e3093d00 	movw	r3, #40192	; 0x9d00
50004db8:	e3453000 	movt	r3, #20480	; 0x5000
50004dbc:	e58d3000 	str	r3, [sp]
50004dc0:	e51b3014 	ldr	r3, [fp, #-20]	; 0xffffffec
50004dc4:	e58d3004 	str	r3, [sp, #4]
50004dc8:	e58d2008 	str	r2, [sp, #8]
50004dcc:	e3090d70 	movw	r0, #40304	; 0x9d70
50004dd0:	e3450000 	movt	r0, #20480	; 0x5000
50004dd4:	e300123e 	movw	r1, #574	; 0x23e
50004dd8:	e3a02001 	mov	r2, #1
50004ddc:	e3a03001 	mov	r3, #1
50004de0:	e306cc80 	movw	ip, #27776	; 0x6c80
50004de4:	e345c000 	movt	ip, #20480	; 0x5000
50004de8:	e12fff3c 	blx	ip
/home/liwenhaosuper/data/trustkernel/tsee/tsee/tsee/tee/dispatch.c:575
50004dec:	ea000037 	b	50004ed0 <tsee_main+0x1898>
/home/liwenhaosuper/data/trustkernel/tsee/tsee/tsee/tee/dispatch.c:577
50004df0:	e51b3014 	ldr	r3, [fp, #-20]	; 0xffffffec
50004df4:	e50b3008 	str	r3, [fp, #-8]
50004df8:	ea000016 	b	50004e58 <tsee_main+0x1820>
/home/liwenhaosuper/data/trustkernel/tsee/tsee/tsee/tee/dispatch.c:578
50004dfc:	e51b0008 	ldr	r0, [fp, #-8]
50004e00:	e3033044 	movw	r3, #12356	; 0x3044
50004e04:	e3453000 	movt	r3, #20480	; 0x5000
50004e08:	e12fff33 	blx	r3
50004e0c:	e1a03000 	mov	r3, r0
50004e10:	e3530000 	cmp	r3, #0
50004e14:	0a00000c 	beq	50004e4c <tsee_main+0x1814>
/home/liwenhaosuper/data/trustkernel/tsee/tsee/tsee/tee/dispatch.c:579
50004e18:	e30936f8 	movw	r3, #38648	; 0x96f8
50004e1c:	e3453000 	movt	r3, #20480	; 0x5000
50004e20:	e58d3000 	str	r3, [sp]
50004e24:	e51b3008 	ldr	r3, [fp, #-8]
50004e28:	e58d3004 	str	r3, [sp, #4]
50004e2c:	e3090d70 	movw	r0, #40304	; 0x9d70
50004e30:	e3450000 	movt	r0, #20480	; 0x5000
50004e34:	e3001243 	movw	r1, #579	; 0x243
50004e38:	e3a02001 	mov	r2, #1
50004e3c:	e3a03001 	mov	r3, #1
50004e40:	e306cc80 	movw	ip, #27776	; 0x6c80
50004e44:	e345c000 	movt	ip, #20480	; 0x5000
50004e48:	e12fff3c 	blx	ip
/home/liwenhaosuper/data/trustkernel/tsee/tsee/tsee/tee/dispatch.c:577
50004e4c:	e51b3008 	ldr	r3, [fp, #-8]
50004e50:	e2833a01 	add	r3, r3, #4096	; 0x1000
50004e54:	e50b3008 	str	r3, [fp, #-8]
50004e58:	e51b2014 	ldr	r2, [fp, #-20]	; 0xffffffec
50004e5c:	e51b3018 	ldr	r3, [fp, #-24]	; 0xffffffe8
50004e60:	e0822003 	add	r2, r2, r3
50004e64:	e51b3008 	ldr	r3, [fp, #-8]
50004e68:	e1520003 	cmp	r2, r3
50004e6c:	8affffe2 	bhi	50004dfc <tsee_main+0x17c4>
/home/liwenhaosuper/data/trustkernel/tsee/tsee/tsee/tee/dispatch.c:582
50004e70:	ea000016 	b	50004ed0 <tsee_main+0x1898>
/home/liwenhaosuper/data/trustkernel/tsee/tsee/tsee/tee/dispatch.c:584
50004e74:	e3093d3c 	movw	r3, #40252	; 0x9d3c
50004e78:	e3453000 	movt	r3, #20480	; 0x5000
50004e7c:	e58d3000 	str	r3, [sp]
50004e80:	e51b3010 	ldr	r3, [fp, #-16]
50004e84:	e58d3004 	str	r3, [sp, #4]
50004e88:	e51b3014 	ldr	r3, [fp, #-20]	; 0xffffffec
50004e8c:	e58d3008 	str	r3, [sp, #8]
50004e90:	e51b3018 	ldr	r3, [fp, #-24]	; 0xffffffe8
50004e94:	e58d300c 	str	r3, [sp, #12]
50004e98:	e3090d70 	movw	r0, #40304	; 0x9d70
50004e9c:	e3450000 	movt	r0, #20480	; 0x5000
50004ea0:	e3a01f92 	mov	r1, #584	; 0x248
50004ea4:	e3a02003 	mov	r2, #3
50004ea8:	e3a03001 	mov	r3, #1
50004eac:	e306cc80 	movw	ip, #27776	; 0x6c80
50004eb0:	e345c000 	movt	ip, #20480	; 0x5000
50004eb4:	e12fff3c 	blx	ip
/home/liwenhaosuper/data/trustkernel/tsee/tsee/tsee/tee/dispatch.c:585
50004eb8:	ea000004 	b	50004ed0 <tsee_main+0x1898>
/home/liwenhaosuper/data/trustkernel/tsee/tsee/tsee/tee/dispatch.c:357
50004ebc:	e1a00000 	nop			; (mov r0, r0)
50004ec0:	ea000002 	b	50004ed0 <tsee_main+0x1898>
/home/liwenhaosuper/data/trustkernel/tsee/tsee/tsee/tee/dispatch.c:551
50004ec4:	e1a00000 	nop			; (mov r0, r0)
50004ec8:	ea000000 	b	50004ed0 <tsee_main+0x1898>
50004ecc:	e1a00000 	nop			; (mov r0, r0)
/home/liwenhaosuper/data/trustkernel/tsee/tsee/tsee/tee/dispatch.c:587
50004ed0:	e3a03000 	mov	r3, #0
/home/liwenhaosuper/data/trustkernel/tsee/tsee/tsee/tee/dispatch.c:588
50004ed4:	e1a00003 	mov	r0, r3
50004ed8:	e24bd004 	sub	sp, fp, #4
50004edc:	e8bd8800 	pop	{fp, pc}

50004ee0 <tee_phys_to_virt>:
tee_phys_to_virt():
/home/liwenhaosuper/data/trustkernel/tsee/tsee/include/tee/tsee/tsee_mm.h:30
50004ee0:	e52db004 	push	{fp}		; (str fp, [sp, #-4]!)
50004ee4:	e28db000 	add	fp, sp, #0
50004ee8:	e24dd00c 	sub	sp, sp, #12
50004eec:	e50b0008 	str	r0, [fp, #-8]
/home/liwenhaosuper/data/trustkernel/tsee/tsee/include/tee/tsee/tsee_mm.h:31
50004ef0:	e51b3008 	ldr	r3, [fp, #-8]
50004ef4:	e28335bf 	add	r3, r3, #801112064	; 0x2fc00000
50004ef8:	e2833603 	add	r3, r3, #3145728	; 0x300000
/home/liwenhaosuper/data/trustkernel/tsee/tsee/include/tee/tsee/tsee_mm.h:32
50004efc:	e1a00003 	mov	r0, r3
50004f00:	e28bd000 	add	sp, fp, #0
50004f04:	e49db004 	pop	{fp}		; (ldr fp, [sp], #4)
50004f08:	e12fff1e 	bx	lr

50004f0c <set_jump_addr>:
set_jump_addr():
/home/liwenhaosuper/data/trustkernel/tsee/tsee/tsee/tee/tsee_sm.c:38
50004f0c:	e52db004 	push	{fp}		; (str fp, [sp, #-4]!)
50004f10:	e28db000 	add	fp, sp, #0
50004f14:	e24dd014 	sub	sp, sp, #20
50004f18:	e50b0010 	str	r0, [fp, #-16]
50004f1c:	e50b1014 	str	r1, [fp, #-20]	; 0xffffffec
/home/liwenhaosuper/data/trustkernel/tsee/tsee/tsee/tee/tsee_sm.c:39
50004f20:	e51b3010 	ldr	r3, [fp, #-16]
50004f24:	e50b3008 	str	r3, [fp, #-8]
/home/liwenhaosuper/data/trustkernel/tsee/tsee/tsee/tee/tsee_sm.c:40
50004f28:	e51b2014 	ldr	r2, [fp, #-20]	; 0xffffffec
50004f2c:	e51b3008 	ldr	r3, [fp, #-8]
50004f30:	e0633002 	rsb	r3, r3, r2
50004f34:	e2433008 	sub	r3, r3, #8
50004f38:	e1a03143 	asr	r3, r3, #2
50004f3c:	e3c334ff 	bic	r3, r3, #-16777216	; 0xff000000
50004f40:	e50b300c 	str	r3, [fp, #-12]
/home/liwenhaosuper/data/trustkernel/tsee/tsee/tsee/tee/tsee_sm.c:41
50004f44:	e51b300c 	ldr	r3, [fp, #-12]
50004f48:	e38324ea 	orr	r2, r3, #-369098752	; 0xea000000
50004f4c:	e51b3010 	ldr	r3, [fp, #-16]
50004f50:	e5832000 	str	r2, [r3]
/home/liwenhaosuper/data/trustkernel/tsee/tsee/tsee/tee/tsee_sm.c:42
50004f54:	e28bd000 	add	sp, fp, #0
50004f58:	e49db004 	pop	{fp}		; (ldr fp, [sp], #4)
50004f5c:	e12fff1e 	bx	lr

50004f60 <mem_enforce_perm>:
mem_enforce_perm():
/home/liwenhaosuper/data/trustkernel/tsee/tsee/tsee/tee/tsee_sm.c:47
50004f60:	e92d4800 	push	{fp, lr}
50004f64:	e28db004 	add	fp, sp, #4
50004f68:	e24dd030 	sub	sp, sp, #48	; 0x30
50004f6c:	e50b0018 	str	r0, [fp, #-24]	; 0xffffffe8
50004f70:	e50b101c 	str	r1, [fp, #-28]	; 0xffffffe4
50004f74:	e50b2020 	str	r2, [fp, #-32]	; 0xffffffe0
50004f78:	e50b3024 	str	r3, [fp, #-36]	; 0xffffffdc
/home/liwenhaosuper/data/trustkernel/tsee/tsee/tsee/tee/tsee_sm.c:48
50004f7c:	e3a03000 	mov	r3, #0
50004f80:	e50b3008 	str	r3, [fp, #-8]
/home/liwenhaosuper/data/trustkernel/tsee/tsee/tsee/tee/tsee_sm.c:54
50004f84:	e51b201c 	ldr	r2, [fp, #-28]	; 0xffffffe4
50004f88:	e51b3018 	ldr	r3, [fp, #-24]	; 0xffffffe8
50004f8c:	e1520003 	cmp	r2, r3
50004f90:	9a000099 	bls	500051fc <mem_enforce_perm+0x29c>
/home/liwenhaosuper/data/trustkernel/tsee/tsee/tsee/tee/tsee_sm.c:59
50004f94:	e51b3018 	ldr	r3, [fp, #-24]	; 0xffffffe8
50004f98:	e50b3008 	str	r3, [fp, #-8]
50004f9c:	ea000091 	b	500051e8 <mem_enforce_perm+0x288>
/home/liwenhaosuper/data/trustkernel/tsee/tsee/tsee/tee/tsee_sm.c:61
50004fa0:	e51b3008 	ldr	r3, [fp, #-8]
50004fa4:	e1a03a23 	lsr	r3, r3, #20
50004fa8:	e1a02103 	lsl	r2, r3, #2
50004fac:	e30c3118 	movw	r3, #49432	; 0xc118
50004fb0:	e3453000 	movt	r3, #20480	; 0x5000
50004fb4:	e5d31028 	ldrb	r1, [r3, #40]	; 0x28
50004fb8:	e5d30029 	ldrb	r0, [r3, #41]	; 0x29
50004fbc:	e1a00400 	lsl	r0, r0, #8
50004fc0:	e1801001 	orr	r1, r0, r1
50004fc4:	e5d3002a 	ldrb	r0, [r3, #42]	; 0x2a
50004fc8:	e1a00800 	lsl	r0, r0, #16
50004fcc:	e1801001 	orr	r1, r0, r1
50004fd0:	e5d3302b 	ldrb	r3, [r3, #43]	; 0x2b
50004fd4:	e1a03c03 	lsl	r3, r3, #24
50004fd8:	e1833001 	orr	r3, r3, r1
50004fdc:	e0823003 	add	r3, r2, r3
50004fe0:	e50b300c 	str	r3, [fp, #-12]
/home/liwenhaosuper/data/trustkernel/tsee/tsee/tsee/tee/tsee_sm.c:62
50004fe4:	e51b300c 	ldr	r3, [fp, #-12]
50004fe8:	e5933000 	ldr	r3, [r3]
50004fec:	e2033003 	and	r3, r3, #3
50004ff0:	e3530000 	cmp	r3, #0
50004ff4:	1a000010 	bne	5000503c <mem_enforce_perm+0xdc>
/home/liwenhaosuper/data/trustkernel/tsee/tsee/tsee/tee/tsee_sm.c:63
50004ff8:	e51b300c 	ldr	r3, [fp, #-12]
50004ffc:	e5932000 	ldr	r2, [r3]
50005000:	e3093d8c 	movw	r3, #40332	; 0x9d8c
50005004:	e3453000 	movt	r3, #20480	; 0x5000
50005008:	e58d3000 	str	r3, [sp]
5000500c:	e51b3008 	ldr	r3, [fp, #-8]
50005010:	e58d3004 	str	r3, [sp, #4]
50005014:	e58d2008 	str	r2, [sp, #8]
50005018:	e3090f64 	movw	r0, #40804	; 0x9f64
5000501c:	e3450000 	movt	r0, #20480	; 0x5000
50005020:	e3a0103f 	mov	r1, #63	; 0x3f
50005024:	e3a02001 	mov	r2, #1
50005028:	e3a03001 	mov	r3, #1
5000502c:	e306cc80 	movw	ip, #27776	; 0x6c80
50005030:	e345c000 	movt	ip, #20480	; 0x5000
50005034:	e12fff3c 	blx	ip
/home/liwenhaosuper/data/trustkernel/tsee/tsee/tsee/tee/tsee_sm.c:64
50005038:	ea000070 	b	50005200 <mem_enforce_perm+0x2a0>
/home/liwenhaosuper/data/trustkernel/tsee/tsee/tsee/tee/tsee_sm.c:66
5000503c:	e51b300c 	ldr	r3, [fp, #-12]
50005040:	e5933000 	ldr	r3, [r3]
50005044:	e2033001 	and	r3, r3, #1
50005048:	e6ef3073 	uxtb	r3, r3
5000504c:	e3530000 	cmp	r3, #0
50005050:	0a00003a 	beq	50005140 <mem_enforce_perm+0x1e0>
/home/liwenhaosuper/data/trustkernel/tsee/tsee/tsee/tee/tsee_sm.c:67
50005054:	e51b300c 	ldr	r3, [fp, #-12]
50005058:	e5933000 	ldr	r3, [r3]
5000505c:	e3c33fff 	bic	r3, r3, #1020	; 0x3fc
50005060:	e3c33003 	bic	r3, r3, #3
50005064:	e50b3010 	str	r3, [fp, #-16]
/home/liwenhaosuper/data/trustkernel/tsee/tsee/tsee/tee/tsee_sm.c:68
50005068:	e51b3008 	ldr	r3, [fp, #-8]
5000506c:	e1a03623 	lsr	r3, r3, #12
50005070:	e20330ff 	and	r3, r3, #255	; 0xff
50005074:	e1a03103 	lsl	r3, r3, #2
50005078:	e51b2010 	ldr	r2, [fp, #-16]
5000507c:	e0823003 	add	r3, r2, r3
50005080:	e50b3014 	str	r3, [fp, #-20]	; 0xffffffec
/home/liwenhaosuper/data/trustkernel/tsee/tsee/tsee/tee/tsee_sm.c:69
50005084:	e51b3014 	ldr	r3, [fp, #-20]	; 0xffffffec
50005088:	e5933000 	ldr	r3, [r3]
5000508c:	e2033003 	and	r3, r3, #3
50005090:	e3530000 	cmp	r3, #0
50005094:	1a000013 	bne	500050e8 <mem_enforce_perm+0x188>
/home/liwenhaosuper/data/trustkernel/tsee/tsee/tsee/tee/tsee_sm.c:70
50005098:	e51b3014 	ldr	r3, [fp, #-20]	; 0xffffffec
5000509c:	e5931000 	ldr	r1, [r3]
500050a0:	e51b300c 	ldr	r3, [fp, #-12]
500050a4:	e5932000 	ldr	r2, [r3]
500050a8:	e3093dbc 	movw	r3, #40380	; 0x9dbc
500050ac:	e3453000 	movt	r3, #20480	; 0x5000
500050b0:	e58d3000 	str	r3, [sp]
500050b4:	e51b3008 	ldr	r3, [fp, #-8]
500050b8:	e58d3004 	str	r3, [sp, #4]
500050bc:	e58d1008 	str	r1, [sp, #8]
500050c0:	e58d200c 	str	r2, [sp, #12]
500050c4:	e3090f64 	movw	r0, #40804	; 0x9f64
500050c8:	e3450000 	movt	r0, #20480	; 0x5000
500050cc:	e3a01046 	mov	r1, #70	; 0x46
500050d0:	e3a02001 	mov	r2, #1
500050d4:	e3a03001 	mov	r3, #1
500050d8:	e306cc80 	movw	ip, #27776	; 0x6c80
500050dc:	e345c000 	movt	ip, #20480	; 0x5000
500050e0:	e12fff3c 	blx	ip
/home/liwenhaosuper/data/trustkernel/tsee/tsee/tsee/tee/tsee_sm.c:71
500050e4:	ea000045 	b	50005200 <mem_enforce_perm+0x2a0>
/home/liwenhaosuper/data/trustkernel/tsee/tsee/tsee/tee/tsee_sm.c:74
500050e8:	e51b3014 	ldr	r3, [fp, #-20]	; 0xffffffec
500050ec:	e5933000 	ldr	r3, [r3]
500050f0:	e3c33e23 	bic	r3, r3, #560	; 0x230
500050f4:	e3c33001 	bic	r3, r3, #1
500050f8:	e51b2014 	ldr	r2, [fp, #-20]	; 0xffffffec
500050fc:	e5823000 	str	r3, [r2]
/home/liwenhaosuper/data/trustkernel/tsee/tsee/tsee/tee/tsee_sm.c:75
50005100:	e51b3014 	ldr	r3, [fp, #-20]	; 0xffffffec
50005104:	e5932000 	ldr	r2, [r3]
50005108:	e51b3020 	ldr	r3, [fp, #-32]	; 0xffffffe0
5000510c:	e1a01483 	lsl	r1, r3, #9
50005110:	e51b3024 	ldr	r3, [fp, #-36]	; 0xffffffdc
50005114:	e1a03203 	lsl	r3, r3, #4
50005118:	e1811003 	orr	r1, r1, r3
5000511c:	e59b3004 	ldr	r3, [fp, #4]
50005120:	e1813003 	orr	r3, r1, r3
50005124:	e1822003 	orr	r2, r2, r3
50005128:	e51b3014 	ldr	r3, [fp, #-20]	; 0xffffffec
5000512c:	e5832000 	str	r2, [r3]
/home/liwenhaosuper/data/trustkernel/tsee/tsee/tsee/tee/tsee_sm.c:76
50005130:	e51b3008 	ldr	r3, [fp, #-8]
50005134:	e2833a01 	add	r3, r3, #4096	; 0x1000
50005138:	e50b3008 	str	r3, [fp, #-8]
5000513c:	ea000029 	b	500051e8 <mem_enforce_perm+0x288>
/home/liwenhaosuper/data/trustkernel/tsee/tsee/tsee/tee/tsee_sm.c:77
50005140:	e51b300c 	ldr	r3, [fp, #-12]
50005144:	e5933000 	ldr	r3, [r3]
50005148:	e2033002 	and	r3, r3, #2
5000514c:	e3530000 	cmp	r3, #0
50005150:	0a000018 	beq	500051b8 <mem_enforce_perm+0x258>
/home/liwenhaosuper/data/trustkernel/tsee/tsee/tsee/tee/tsee_sm.c:80
50005154:	e51b300c 	ldr	r3, [fp, #-12]
50005158:	e5933000 	ldr	r3, [r3]
5000515c:	e3c33b23 	bic	r3, r3, #35840	; 0x8c00
50005160:	e3c33011 	bic	r3, r3, #17
50005164:	e51b200c 	ldr	r2, [fp, #-12]
50005168:	e5823000 	str	r3, [r2]
/home/liwenhaosuper/data/trustkernel/tsee/tsee/tsee/tee/tsee_sm.c:81
5000516c:	e51b300c 	ldr	r3, [fp, #-12]
50005170:	e5932000 	ldr	r2, [r3]
50005174:	e51b3020 	ldr	r3, [fp, #-32]	; 0xffffffe0
50005178:	e1a01783 	lsl	r1, r3, #15
5000517c:	e51b3024 	ldr	r3, [fp, #-36]	; 0xffffffdc
50005180:	e1a03503 	lsl	r3, r3, #10
50005184:	e1811003 	orr	r1, r1, r3
50005188:	e59b3008 	ldr	r3, [fp, #8]
5000518c:	e1811003 	orr	r1, r1, r3
50005190:	e59b3004 	ldr	r3, [fp, #4]
50005194:	e1a03203 	lsl	r3, r3, #4
50005198:	e1813003 	orr	r3, r1, r3
5000519c:	e1822003 	orr	r2, r2, r3
500051a0:	e51b300c 	ldr	r3, [fp, #-12]
500051a4:	e5832000 	str	r2, [r3]
/home/liwenhaosuper/data/trustkernel/tsee/tsee/tsee/tee/tsee_sm.c:82
500051a8:	e51b3008 	ldr	r3, [fp, #-8]
500051ac:	e2833601 	add	r3, r3, #1048576	; 0x100000
500051b0:	e50b3008 	str	r3, [fp, #-8]
500051b4:	ea00000b 	b	500051e8 <mem_enforce_perm+0x288>
/home/liwenhaosuper/data/trustkernel/tsee/tsee/tsee/tee/tsee_sm.c:85
500051b8:	e3093dfc 	movw	r3, #40444	; 0x9dfc
500051bc:	e3453000 	movt	r3, #20480	; 0x5000
500051c0:	e58d3000 	str	r3, [sp]
500051c4:	e3090f64 	movw	r0, #40804	; 0x9f64
500051c8:	e3450000 	movt	r0, #20480	; 0x5000
500051cc:	e3a01055 	mov	r1, #85	; 0x55
500051d0:	e3a02001 	mov	r2, #1
500051d4:	e3a03001 	mov	r3, #1
500051d8:	e306cc80 	movw	ip, #27776	; 0x6c80
500051dc:	e345c000 	movt	ip, #20480	; 0x5000
500051e0:	e12fff3c 	blx	ip
/home/liwenhaosuper/data/trustkernel/tsee/tsee/tsee/tee/tsee_sm.c:86
500051e4:	ea000005 	b	50005200 <mem_enforce_perm+0x2a0>
/home/liwenhaosuper/data/trustkernel/tsee/tsee/tsee/tee/tsee_sm.c:59
500051e8:	e51b2008 	ldr	r2, [fp, #-8]
500051ec:	e51b301c 	ldr	r3, [fp, #-28]	; 0xffffffe4
500051f0:	e1520003 	cmp	r2, r3
500051f4:	3affff69 	bcc	50004fa0 <mem_enforce_perm+0x40>
500051f8:	ea000000 	b	50005200 <mem_enforce_perm+0x2a0>
/home/liwenhaosuper/data/trustkernel/tsee/tsee/tsee/tee/tsee_sm.c:55
500051fc:	e1a00000 	nop			; (mov r0, r0)
/home/liwenhaosuper/data/trustkernel/tsee/tsee/tsee/tee/tsee_sm.c:89
50005200:	e24bd004 	sub	sp, fp, #4
50005204:	e8bd8800 	pop	{fp, pc}

50005208 <is_sm_lock_down>:
is_sm_lock_down():
/home/liwenhaosuper/data/trustkernel/tsee/tsee/tsee/tee/tsee_sm.c:98
50005208:	e52db004 	push	{fp}		; (str fp, [sp, #-4]!)
5000520c:	e28db000 	add	fp, sp, #0
/home/liwenhaosuper/data/trustkernel/tsee/tsee/tsee/tee/tsee_sm.c:99
50005210:	e30c317c 	movw	r3, #49532	; 0xc17c
50005214:	e3453000 	movt	r3, #20480	; 0x5000
50005218:	e5933000 	ldr	r3, [r3]
/home/liwenhaosuper/data/trustkernel/tsee/tsee/tsee/tee/tsee_sm.c:100
5000521c:	e1a00003 	mov	r0, r3
50005220:	e28bd000 	add	sp, fp, #0
50005224:	e49db004 	pop	{fp}		; (ldr fp, [sp], #4)
50005228:	e12fff1e 	bx	lr

5000522c <sm_lock_down>:
sm_lock_down():
/home/liwenhaosuper/data/trustkernel/tsee/tsee/tsee/tee/tsee_sm.c:102
5000522c:	e92d4810 	push	{r4, fp, lr}
50005230:	e28db008 	add	fp, sp, #8
50005234:	e24dd00c 	sub	sp, sp, #12
/home/liwenhaosuper/data/trustkernel/tsee/tsee/tsee/tee/tsee_sm.c:103
50005238:	e30c317c 	movw	r3, #49532	; 0xc17c
5000523c:	e3453000 	movt	r3, #20480	; 0x5000
50005240:	e3a02001 	mov	r2, #1
50005244:	e5832000 	str	r2, [r3]
/home/liwenhaosuper/data/trustkernel/tsee/tsee/tsee/tee/tsee_sm.c:108
50005248:	e3093e1c 	movw	r3, #40476	; 0x9e1c
5000524c:	e3453000 	movt	r3, #20480	; 0x5000
50005250:	e58d3000 	str	r3, [sp]
50005254:	e3090f54 	movw	r0, #40788	; 0x9f54
50005258:	e3450000 	movt	r0, #20480	; 0x5000
5000525c:	e3a0106c 	mov	r1, #108	; 0x6c
50005260:	e3a02003 	mov	r2, #3
50005264:	e3a03001 	mov	r3, #1
50005268:	e306cc80 	movw	ip, #27776	; 0x6c80
5000526c:	e345c000 	movt	ip, #20480	; 0x5000
50005270:	e12fff3c 	blx	ip
/home/liwenhaosuper/data/trustkernel/tsee/tsee/tsee/tee/tsee_sm.c:109
50005274:	e30c3118 	movw	r3, #49432	; 0xc118
50005278:	e3453000 	movt	r3, #20480	; 0x5000
5000527c:	e5d32000 	ldrb	r2, [r3]
50005280:	e5d31001 	ldrb	r1, [r3, #1]
50005284:	e1a01401 	lsl	r1, r1, #8
50005288:	e1812002 	orr	r2, r1, r2
5000528c:	e5d31002 	ldrb	r1, [r3, #2]
50005290:	e1a01801 	lsl	r1, r1, #16
50005294:	e1812002 	orr	r2, r1, r2
50005298:	e5d33003 	ldrb	r3, [r3, #3]
5000529c:	e1a03c03 	lsl	r3, r3, #24
500052a0:	e1833002 	orr	r3, r3, r2
500052a4:	e1a02003 	mov	r2, r3
500052a8:	e30c3118 	movw	r3, #49432	; 0xc118
500052ac:	e3453000 	movt	r3, #20480	; 0x5000
500052b0:	e5d31004 	ldrb	r1, [r3, #4]
500052b4:	e5d30005 	ldrb	r0, [r3, #5]
500052b8:	e1a00400 	lsl	r0, r0, #8
500052bc:	e1801001 	orr	r1, r0, r1
500052c0:	e5d30006 	ldrb	r0, [r3, #6]
500052c4:	e1a00800 	lsl	r0, r0, #16
500052c8:	e1801001 	orr	r1, r0, r1
500052cc:	e5d33007 	ldrb	r3, [r3, #7]
500052d0:	e1a03c03 	lsl	r3, r3, #24
500052d4:	e1833001 	orr	r3, r3, r1
500052d8:	e3a01001 	mov	r1, #1
500052dc:	e58d1000 	str	r1, [sp]
500052e0:	e3a01000 	mov	r1, #0
500052e4:	e58d1004 	str	r1, [sp, #4]
500052e8:	e1a00002 	mov	r0, r2
500052ec:	e1a01003 	mov	r1, r3
500052f0:	e3a02000 	mov	r2, #0
500052f4:	e3a03001 	mov	r3, #1
500052f8:	e304cf60 	movw	ip, #20320	; 0x4f60
500052fc:	e345c000 	movt	ip, #20480	; 0x5000
50005300:	e12fff3c 	blx	ip
/home/liwenhaosuper/data/trustkernel/tsee/tsee/tsee/tee/tsee_sm.c:110
50005304:	e30c3118 	movw	r3, #49432	; 0xc118
50005308:	e3453000 	movt	r3, #20480	; 0x5000
5000530c:	e5d32000 	ldrb	r2, [r3]
50005310:	e5d31001 	ldrb	r1, [r3, #1]
50005314:	e1a01401 	lsl	r1, r1, #8
50005318:	e1812002 	orr	r2, r1, r2
5000531c:	e5d31002 	ldrb	r1, [r3, #2]
50005320:	e1a01801 	lsl	r1, r1, #16
50005324:	e1812002 	orr	r2, r1, r2
50005328:	e5d33003 	ldrb	r3, [r3, #3]
5000532c:	e1a03c03 	lsl	r3, r3, #24
50005330:	e1833002 	orr	r3, r3, r2
50005334:	e1a00003 	mov	r0, r3
50005338:	e3043ee0 	movw	r3, #20192	; 0x4ee0
5000533c:	e3453000 	movt	r3, #20480	; 0x5000
50005340:	e12fff33 	blx	r3
50005344:	e1a04000 	mov	r4, r0
50005348:	e30c3118 	movw	r3, #49432	; 0xc118
5000534c:	e3453000 	movt	r3, #20480	; 0x5000
50005350:	e5d32004 	ldrb	r2, [r3, #4]
50005354:	e5d31005 	ldrb	r1, [r3, #5]
50005358:	e1a01401 	lsl	r1, r1, #8
5000535c:	e1812002 	orr	r2, r1, r2
50005360:	e5d31006 	ldrb	r1, [r3, #6]
50005364:	e1a01801 	lsl	r1, r1, #16
50005368:	e1812002 	orr	r2, r1, r2
5000536c:	e5d33007 	ldrb	r3, [r3, #7]
50005370:	e1a03c03 	lsl	r3, r3, #24
50005374:	e1833002 	orr	r3, r3, r2
50005378:	e1a00003 	mov	r0, r3
5000537c:	e3043ee0 	movw	r3, #20192	; 0x4ee0
50005380:	e3453000 	movt	r3, #20480	; 0x5000
50005384:	e12fff33 	blx	r3
50005388:	e1a03000 	mov	r3, r0
5000538c:	e3a02001 	mov	r2, #1
50005390:	e58d2000 	str	r2, [sp]
50005394:	e3a02000 	mov	r2, #0
50005398:	e58d2004 	str	r2, [sp, #4]
5000539c:	e1a00004 	mov	r0, r4
500053a0:	e1a01003 	mov	r1, r3
500053a4:	e3a02000 	mov	r2, #0
500053a8:	e3a03001 	mov	r3, #1
500053ac:	e304cf60 	movw	ip, #20320	; 0x4f60
500053b0:	e345c000 	movt	ip, #20480	; 0x5000
500053b4:	e12fff3c 	blx	ip
/home/liwenhaosuper/data/trustkernel/tsee/tsee/tsee/tee/tsee_sm.c:111
500053b8:	e3093e34 	movw	r3, #40500	; 0x9e34
500053bc:	e3453000 	movt	r3, #20480	; 0x5000
500053c0:	e58d3000 	str	r3, [sp]
500053c4:	e3090f54 	movw	r0, #40788	; 0x9f54
500053c8:	e3450000 	movt	r0, #20480	; 0x5000
500053cc:	e3a0106f 	mov	r1, #111	; 0x6f
500053d0:	e3a02003 	mov	r2, #3
500053d4:	e3a03001 	mov	r3, #1
500053d8:	e306cc80 	movw	ip, #27776	; 0x6c80
500053dc:	e345c000 	movt	ip, #20480	; 0x5000
500053e0:	e12fff3c 	blx	ip
/home/liwenhaosuper/data/trustkernel/tsee/tsee/tsee/tee/tsee_sm.c:112
500053e4:	e30c3118 	movw	r3, #49432	; 0xc118
500053e8:	e3453000 	movt	r3, #20480	; 0x5000
500053ec:	e5d32008 	ldrb	r2, [r3, #8]
500053f0:	e5d31009 	ldrb	r1, [r3, #9]
500053f4:	e1a01401 	lsl	r1, r1, #8
500053f8:	e1812002 	orr	r2, r1, r2
500053fc:	e5d3100a 	ldrb	r1, [r3, #10]
50005400:	e1a01801 	lsl	r1, r1, #16
50005404:	e1812002 	orr	r2, r1, r2
50005408:	e5d3300b 	ldrb	r3, [r3, #11]
5000540c:	e1a03c03 	lsl	r3, r3, #24
50005410:	e1833002 	orr	r3, r3, r2
50005414:	e1a00003 	mov	r0, r3
50005418:	e3043ee0 	movw	r3, #20192	; 0x4ee0
5000541c:	e3453000 	movt	r3, #20480	; 0x5000
50005420:	e12fff33 	blx	r3
50005424:	e1a04000 	mov	r4, r0
50005428:	e30c3118 	movw	r3, #49432	; 0xc118
5000542c:	e3453000 	movt	r3, #20480	; 0x5000
50005430:	e5d3200c 	ldrb	r2, [r3, #12]
50005434:	e5d3100d 	ldrb	r1, [r3, #13]
50005438:	e1a01401 	lsl	r1, r1, #8
5000543c:	e1812002 	orr	r2, r1, r2
50005440:	e5d3100e 	ldrb	r1, [r3, #14]
50005444:	e1a01801 	lsl	r1, r1, #16
50005448:	e1812002 	orr	r2, r1, r2
5000544c:	e5d3300f 	ldrb	r3, [r3, #15]
50005450:	e1a03c03 	lsl	r3, r3, #24
50005454:	e1833002 	orr	r3, r3, r2
50005458:	e1a00003 	mov	r0, r3
5000545c:	e3043ee0 	movw	r3, #20192	; 0x4ee0
50005460:	e3453000 	movt	r3, #20480	; 0x5000
50005464:	e12fff33 	blx	r3
50005468:	e1a03000 	mov	r3, r0
5000546c:	e3a02001 	mov	r2, #1
50005470:	e58d2000 	str	r2, [sp]
50005474:	e3a02000 	mov	r2, #0
50005478:	e58d2004 	str	r2, [sp, #4]
5000547c:	e1a00004 	mov	r0, r4
50005480:	e1a01003 	mov	r1, r3
50005484:	e3a02000 	mov	r2, #0
50005488:	e3a03001 	mov	r3, #1
5000548c:	e304cf60 	movw	ip, #20320	; 0x4f60
50005490:	e345c000 	movt	ip, #20480	; 0x5000
50005494:	e12fff3c 	blx	ip
/home/liwenhaosuper/data/trustkernel/tsee/tsee/tsee/tee/tsee_sm.c:113
50005498:	e30c3118 	movw	r3, #49432	; 0xc118
5000549c:	e3453000 	movt	r3, #20480	; 0x5000
500054a0:	e5d32008 	ldrb	r2, [r3, #8]
500054a4:	e5d31009 	ldrb	r1, [r3, #9]
500054a8:	e1a01401 	lsl	r1, r1, #8
500054ac:	e1812002 	orr	r2, r1, r2
500054b0:	e5d3100a 	ldrb	r1, [r3, #10]
500054b4:	e1a01801 	lsl	r1, r1, #16
500054b8:	e1812002 	orr	r2, r1, r2
500054bc:	e5d3300b 	ldrb	r3, [r3, #11]
500054c0:	e1a03c03 	lsl	r3, r3, #24
500054c4:	e1833002 	orr	r3, r3, r2
500054c8:	e1a02003 	mov	r2, r3
500054cc:	e30c3118 	movw	r3, #49432	; 0xc118
500054d0:	e3453000 	movt	r3, #20480	; 0x5000
500054d4:	e5d3100c 	ldrb	r1, [r3, #12]
500054d8:	e5d3000d 	ldrb	r0, [r3, #13]
500054dc:	e1a00400 	lsl	r0, r0, #8
500054e0:	e1801001 	orr	r1, r0, r1
500054e4:	e5d3000e 	ldrb	r0, [r3, #14]
500054e8:	e1a00800 	lsl	r0, r0, #16
500054ec:	e1801001 	orr	r1, r0, r1
500054f0:	e5d3300f 	ldrb	r3, [r3, #15]
500054f4:	e1a03c03 	lsl	r3, r3, #24
500054f8:	e1833001 	orr	r3, r3, r1
500054fc:	e3a01001 	mov	r1, #1
50005500:	e58d1000 	str	r1, [sp]
50005504:	e3a01000 	mov	r1, #0
50005508:	e58d1004 	str	r1, [sp, #4]
5000550c:	e1a00002 	mov	r0, r2
50005510:	e1a01003 	mov	r1, r3
50005514:	e3a02000 	mov	r2, #0
50005518:	e3a03001 	mov	r3, #1
5000551c:	e304cf60 	movw	ip, #20320	; 0x4f60
50005520:	e345c000 	movt	ip, #20480	; 0x5000
50005524:	e12fff3c 	blx	ip
/home/liwenhaosuper/data/trustkernel/tsee/tsee/tsee/tee/tsee_sm.c:114
50005528:	e30c3118 	movw	r3, #49432	; 0xc118
5000552c:	e3453000 	movt	r3, #20480	; 0x5000
50005530:	e5d32010 	ldrb	r2, [r3, #16]
50005534:	e5d31011 	ldrb	r1, [r3, #17]
50005538:	e1a01401 	lsl	r1, r1, #8
5000553c:	e1812002 	orr	r2, r1, r2
50005540:	e5d31012 	ldrb	r1, [r3, #18]
50005544:	e1a01801 	lsl	r1, r1, #16
50005548:	e1812002 	orr	r2, r1, r2
5000554c:	e5d33013 	ldrb	r3, [r3, #19]
50005550:	e1a03c03 	lsl	r3, r3, #24
50005554:	e1833002 	orr	r3, r3, r2
50005558:	e1a00003 	mov	r0, r3
5000555c:	e3043ee0 	movw	r3, #20192	; 0x4ee0
50005560:	e3453000 	movt	r3, #20480	; 0x5000
50005564:	e12fff33 	blx	r3
50005568:	e1a04000 	mov	r4, r0
5000556c:	e30c3118 	movw	r3, #49432	; 0xc118
50005570:	e3453000 	movt	r3, #20480	; 0x5000
50005574:	e5d32014 	ldrb	r2, [r3, #20]
50005578:	e5d31015 	ldrb	r1, [r3, #21]
5000557c:	e1a01401 	lsl	r1, r1, #8
50005580:	e1812002 	orr	r2, r1, r2
50005584:	e5d31016 	ldrb	r1, [r3, #22]
50005588:	e1a01801 	lsl	r1, r1, #16
5000558c:	e1812002 	orr	r2, r1, r2
50005590:	e5d33017 	ldrb	r3, [r3, #23]
50005594:	e1a03c03 	lsl	r3, r3, #24
50005598:	e1833002 	orr	r3, r3, r2
5000559c:	e1a00003 	mov	r0, r3
500055a0:	e3043ee0 	movw	r3, #20192	; 0x4ee0
500055a4:	e3453000 	movt	r3, #20480	; 0x5000
500055a8:	e12fff33 	blx	r3
500055ac:	e1a03000 	mov	r3, r0
500055b0:	e3a02001 	mov	r2, #1
500055b4:	e58d2000 	str	r2, [sp]
500055b8:	e3a02000 	mov	r2, #0
500055bc:	e58d2004 	str	r2, [sp, #4]
500055c0:	e1a00004 	mov	r0, r4
500055c4:	e1a01003 	mov	r1, r3
500055c8:	e3a02000 	mov	r2, #0
500055cc:	e3a03001 	mov	r3, #1
500055d0:	e304cf60 	movw	ip, #20320	; 0x4f60
500055d4:	e345c000 	movt	ip, #20480	; 0x5000
500055d8:	e12fff3c 	blx	ip
/home/liwenhaosuper/data/trustkernel/tsee/tsee/tsee/tee/tsee_sm.c:115
500055dc:	e30c3118 	movw	r3, #49432	; 0xc118
500055e0:	e3453000 	movt	r3, #20480	; 0x5000
500055e4:	e5d32010 	ldrb	r2, [r3, #16]
500055e8:	e5d31011 	ldrb	r1, [r3, #17]
500055ec:	e1a01401 	lsl	r1, r1, #8
500055f0:	e1812002 	orr	r2, r1, r2
500055f4:	e5d31012 	ldrb	r1, [r3, #18]
500055f8:	e1a01801 	lsl	r1, r1, #16
500055fc:	e1812002 	orr	r2, r1, r2
50005600:	e5d33013 	ldrb	r3, [r3, #19]
50005604:	e1a03c03 	lsl	r3, r3, #24
50005608:	e1833002 	orr	r3, r3, r2
5000560c:	e1a02003 	mov	r2, r3
50005610:	e30c3118 	movw	r3, #49432	; 0xc118
50005614:	e3453000 	movt	r3, #20480	; 0x5000
50005618:	e5d31014 	ldrb	r1, [r3, #20]
5000561c:	e5d30015 	ldrb	r0, [r3, #21]
50005620:	e1a00400 	lsl	r0, r0, #8
50005624:	e1801001 	orr	r1, r0, r1
50005628:	e5d30016 	ldrb	r0, [r3, #22]
5000562c:	e1a00800 	lsl	r0, r0, #16
50005630:	e1801001 	orr	r1, r0, r1
50005634:	e5d33017 	ldrb	r3, [r3, #23]
50005638:	e1a03c03 	lsl	r3, r3, #24
5000563c:	e1833001 	orr	r3, r3, r1
50005640:	e3a01001 	mov	r1, #1
50005644:	e58d1000 	str	r1, [sp]
50005648:	e3a01000 	mov	r1, #0
5000564c:	e58d1004 	str	r1, [sp, #4]
50005650:	e1a00002 	mov	r0, r2
50005654:	e1a01003 	mov	r1, r3
50005658:	e3a02000 	mov	r2, #0
5000565c:	e3a03001 	mov	r3, #1
50005660:	e304cf60 	movw	ip, #20320	; 0x4f60
50005664:	e345c000 	movt	ip, #20480	; 0x5000
50005668:	e12fff3c 	blx	ip
/home/liwenhaosuper/data/trustkernel/tsee/tsee/tsee/tee/tsee_sm.c:119
5000566c:	e3093e4c 	movw	r3, #40524	; 0x9e4c
50005670:	e3453000 	movt	r3, #20480	; 0x5000
50005674:	e58d3000 	str	r3, [sp]
50005678:	e3090f54 	movw	r0, #40788	; 0x9f54
5000567c:	e3450000 	movt	r0, #20480	; 0x5000
50005680:	e3a01077 	mov	r1, #119	; 0x77
50005684:	e3a02003 	mov	r2, #3
50005688:	e3a03001 	mov	r3, #1
5000568c:	e306cc80 	movw	ip, #27776	; 0x6c80
50005690:	e345c000 	movt	ip, #20480	; 0x5000
50005694:	e12fff3c 	blx	ip
/home/liwenhaosuper/data/trustkernel/tsee/tsee/tsee/tee/tsee_sm.c:120
50005698:	e30c3118 	movw	r3, #49432	; 0xc118
5000569c:	e3453000 	movt	r3, #20480	; 0x5000
500056a0:	e5d32018 	ldrb	r2, [r3, #24]
500056a4:	e5d31019 	ldrb	r1, [r3, #25]
500056a8:	e1a01401 	lsl	r1, r1, #8
500056ac:	e1812002 	orr	r2, r1, r2
500056b0:	e5d3101a 	ldrb	r1, [r3, #26]
500056b4:	e1a01801 	lsl	r1, r1, #16
500056b8:	e1812002 	orr	r2, r1, r2
500056bc:	e5d3301b 	ldrb	r3, [r3, #27]
500056c0:	e1a03c03 	lsl	r3, r3, #24
500056c4:	e1833002 	orr	r3, r3, r2
500056c8:	e1a02003 	mov	r2, r3
500056cc:	e30c3118 	movw	r3, #49432	; 0xc118
500056d0:	e3453000 	movt	r3, #20480	; 0x5000
500056d4:	e5d3101c 	ldrb	r1, [r3, #28]
500056d8:	e5d3001d 	ldrb	r0, [r3, #29]
500056dc:	e1a00400 	lsl	r0, r0, #8
500056e0:	e1801001 	orr	r1, r0, r1
500056e4:	e5d3001e 	ldrb	r0, [r3, #30]
500056e8:	e1a00800 	lsl	r0, r0, #16
500056ec:	e1801001 	orr	r1, r0, r1
500056f0:	e5d3301f 	ldrb	r3, [r3, #31]
500056f4:	e1a03c03 	lsl	r3, r3, #24
500056f8:	e1833001 	orr	r3, r3, r1
500056fc:	e3a01000 	mov	r1, #0
50005700:	e58d1000 	str	r1, [sp]
50005704:	e3a01000 	mov	r1, #0
50005708:	e58d1004 	str	r1, [sp, #4]
5000570c:	e1a00002 	mov	r0, r2
50005710:	e1a01003 	mov	r1, r3
50005714:	e3a02001 	mov	r2, #1
50005718:	e3a03001 	mov	r3, #1
5000571c:	e304cf60 	movw	ip, #20320	; 0x4f60
50005720:	e345c000 	movt	ip, #20480	; 0x5000
50005724:	e12fff3c 	blx	ip
/home/liwenhaosuper/data/trustkernel/tsee/tsee/tsee/tee/tsee_sm.c:121
50005728:	e30c3118 	movw	r3, #49432	; 0xc118
5000572c:	e3453000 	movt	r3, #20480	; 0x5000
50005730:	e5d32018 	ldrb	r2, [r3, #24]
50005734:	e5d31019 	ldrb	r1, [r3, #25]
50005738:	e1a01401 	lsl	r1, r1, #8
5000573c:	e1812002 	orr	r2, r1, r2
50005740:	e5d3101a 	ldrb	r1, [r3, #26]
50005744:	e1a01801 	lsl	r1, r1, #16
50005748:	e1812002 	orr	r2, r1, r2
5000574c:	e5d3301b 	ldrb	r3, [r3, #27]
50005750:	e1a03c03 	lsl	r3, r3, #24
50005754:	e1833002 	orr	r3, r3, r2
50005758:	e1a00003 	mov	r0, r3
5000575c:	e3043ee0 	movw	r3, #20192	; 0x4ee0
50005760:	e3453000 	movt	r3, #20480	; 0x5000
50005764:	e12fff33 	blx	r3
50005768:	e1a04000 	mov	r4, r0
5000576c:	e30c3118 	movw	r3, #49432	; 0xc118
50005770:	e3453000 	movt	r3, #20480	; 0x5000
50005774:	e5d3201c 	ldrb	r2, [r3, #28]
50005778:	e5d3101d 	ldrb	r1, [r3, #29]
5000577c:	e1a01401 	lsl	r1, r1, #8
50005780:	e1812002 	orr	r2, r1, r2
50005784:	e5d3101e 	ldrb	r1, [r3, #30]
50005788:	e1a01801 	lsl	r1, r1, #16
5000578c:	e1812002 	orr	r2, r1, r2
50005790:	e5d3301f 	ldrb	r3, [r3, #31]
50005794:	e1a03c03 	lsl	r3, r3, #24
50005798:	e1833002 	orr	r3, r3, r2
5000579c:	e1a00003 	mov	r0, r3
500057a0:	e3043ee0 	movw	r3, #20192	; 0x4ee0
500057a4:	e3453000 	movt	r3, #20480	; 0x5000
500057a8:	e12fff33 	blx	r3
500057ac:	e1a03000 	mov	r3, r0
500057b0:	e3a02000 	mov	r2, #0
500057b4:	e58d2000 	str	r2, [sp]
500057b8:	e3a02000 	mov	r2, #0
500057bc:	e58d2004 	str	r2, [sp, #4]
500057c0:	e1a00004 	mov	r0, r4
500057c4:	e1a01003 	mov	r1, r3
500057c8:	e3a02001 	mov	r2, #1
500057cc:	e3a03001 	mov	r3, #1
500057d0:	e304cf60 	movw	ip, #20320	; 0x4f60
500057d4:	e345c000 	movt	ip, #20480	; 0x5000
500057d8:	e12fff3c 	blx	ip
/home/liwenhaosuper/data/trustkernel/tsee/tsee/tsee/tee/tsee_sm.c:122
500057dc:	e30c3118 	movw	r3, #49432	; 0xc118
500057e0:	e3453000 	movt	r3, #20480	; 0x5000
500057e4:	e5d32020 	ldrb	r2, [r3, #32]
500057e8:	e5d31021 	ldrb	r1, [r3, #33]	; 0x21
500057ec:	e1a01401 	lsl	r1, r1, #8
500057f0:	e1812002 	orr	r2, r1, r2
500057f4:	e5d31022 	ldrb	r1, [r3, #34]	; 0x22
500057f8:	e1a01801 	lsl	r1, r1, #16
500057fc:	e1812002 	orr	r2, r1, r2
50005800:	e5d33023 	ldrb	r3, [r3, #35]	; 0x23
50005804:	e1a03c03 	lsl	r3, r3, #24
50005808:	e1833002 	orr	r3, r3, r2
5000580c:	e1a02003 	mov	r2, r3
50005810:	e30c3118 	movw	r3, #49432	; 0xc118
50005814:	e3453000 	movt	r3, #20480	; 0x5000
50005818:	e5d31024 	ldrb	r1, [r3, #36]	; 0x24
5000581c:	e5d30025 	ldrb	r0, [r3, #37]	; 0x25
50005820:	e1a00400 	lsl	r0, r0, #8
50005824:	e1801001 	orr	r1, r0, r1
50005828:	e5d30026 	ldrb	r0, [r3, #38]	; 0x26
5000582c:	e1a00800 	lsl	r0, r0, #16
50005830:	e1801001 	orr	r1, r0, r1
50005834:	e5d33027 	ldrb	r3, [r3, #39]	; 0x27
50005838:	e1a03c03 	lsl	r3, r3, #24
5000583c:	e1833001 	orr	r3, r3, r1
50005840:	e3a01000 	mov	r1, #0
50005844:	e58d1000 	str	r1, [sp]
50005848:	e3a01000 	mov	r1, #0
5000584c:	e58d1004 	str	r1, [sp, #4]
50005850:	e1a00002 	mov	r0, r2
50005854:	e1a01003 	mov	r1, r3
50005858:	e3a02001 	mov	r2, #1
5000585c:	e3a03001 	mov	r3, #1
50005860:	e304cf60 	movw	ip, #20320	; 0x4f60
50005864:	e345c000 	movt	ip, #20480	; 0x5000
50005868:	e12fff3c 	blx	ip
/home/liwenhaosuper/data/trustkernel/tsee/tsee/tsee/tee/tsee_sm.c:123
5000586c:	e30c3118 	movw	r3, #49432	; 0xc118
50005870:	e3453000 	movt	r3, #20480	; 0x5000
50005874:	e5d32020 	ldrb	r2, [r3, #32]
50005878:	e5d31021 	ldrb	r1, [r3, #33]	; 0x21
5000587c:	e1a01401 	lsl	r1, r1, #8
50005880:	e1812002 	orr	r2, r1, r2
50005884:	e5d31022 	ldrb	r1, [r3, #34]	; 0x22
50005888:	e1a01801 	lsl	r1, r1, #16
5000588c:	e1812002 	orr	r2, r1, r2
50005890:	e5d33023 	ldrb	r3, [r3, #35]	; 0x23
50005894:	e1a03c03 	lsl	r3, r3, #24
50005898:	e1833002 	orr	r3, r3, r2
5000589c:	e1a00003 	mov	r0, r3
500058a0:	e3043ee0 	movw	r3, #20192	; 0x4ee0
500058a4:	e3453000 	movt	r3, #20480	; 0x5000
500058a8:	e12fff33 	blx	r3
500058ac:	e1a04000 	mov	r4, r0
500058b0:	e30c3118 	movw	r3, #49432	; 0xc118
500058b4:	e3453000 	movt	r3, #20480	; 0x5000
500058b8:	e5d32024 	ldrb	r2, [r3, #36]	; 0x24
500058bc:	e5d31025 	ldrb	r1, [r3, #37]	; 0x25
500058c0:	e1a01401 	lsl	r1, r1, #8
500058c4:	e1812002 	orr	r2, r1, r2
500058c8:	e5d31026 	ldrb	r1, [r3, #38]	; 0x26
500058cc:	e1a01801 	lsl	r1, r1, #16
500058d0:	e1812002 	orr	r2, r1, r2
500058d4:	e5d33027 	ldrb	r3, [r3, #39]	; 0x27
500058d8:	e1a03c03 	lsl	r3, r3, #24
500058dc:	e1833002 	orr	r3, r3, r2
500058e0:	e1a00003 	mov	r0, r3
500058e4:	e3043ee0 	movw	r3, #20192	; 0x4ee0
500058e8:	e3453000 	movt	r3, #20480	; 0x5000
500058ec:	e12fff33 	blx	r3
500058f0:	e1a03000 	mov	r3, r0
500058f4:	e3a02000 	mov	r2, #0
500058f8:	e58d2000 	str	r2, [sp]
500058fc:	e3a02000 	mov	r2, #0
50005900:	e58d2004 	str	r2, [sp, #4]
50005904:	e1a00004 	mov	r0, r4
50005908:	e1a01003 	mov	r1, r3
5000590c:	e3a02001 	mov	r2, #1
50005910:	e3a03001 	mov	r3, #1
50005914:	e304cf60 	movw	ip, #20320	; 0x4f60
50005918:	e345c000 	movt	ip, #20480	; 0x5000
5000591c:	e12fff3c 	blx	ip
/home/liwenhaosuper/data/trustkernel/tsee/tsee/tsee/tee/tsee_sm.c:124
50005920:	e3093e60 	movw	r3, #40544	; 0x9e60
50005924:	e3453000 	movt	r3, #20480	; 0x5000
50005928:	e58d3000 	str	r3, [sp]
5000592c:	e3090f54 	movw	r0, #40788	; 0x9f54
50005930:	e3450000 	movt	r0, #20480	; 0x5000
50005934:	e3a0107c 	mov	r1, #124	; 0x7c
50005938:	e3a02003 	mov	r2, #3
5000593c:	e3a03001 	mov	r3, #1
50005940:	e306cc80 	movw	ip, #27776	; 0x6c80
50005944:	e345c000 	movt	ip, #20480	; 0x5000
50005948:	e12fff3c 	blx	ip
/home/liwenhaosuper/data/trustkernel/tsee/tsee/tsee/tee/tsee_sm.c:125
5000594c:	e30c3118 	movw	r3, #49432	; 0xc118
50005950:	e3453000 	movt	r3, #20480	; 0x5000
50005954:	e5d32030 	ldrb	r2, [r3, #48]	; 0x30
50005958:	e5d31031 	ldrb	r1, [r3, #49]	; 0x31
5000595c:	e1a01401 	lsl	r1, r1, #8
50005960:	e1812002 	orr	r2, r1, r2
50005964:	e5d31032 	ldrb	r1, [r3, #50]	; 0x32
50005968:	e1a01801 	lsl	r1, r1, #16
5000596c:	e1812002 	orr	r2, r1, r2
50005970:	e5d33033 	ldrb	r3, [r3, #51]	; 0x33
50005974:	e1a03c03 	lsl	r3, r3, #24
50005978:	e1833002 	orr	r3, r3, r2
5000597c:	e1a02003 	mov	r2, r3
50005980:	e30c3118 	movw	r3, #49432	; 0xc118
50005984:	e3453000 	movt	r3, #20480	; 0x5000
50005988:	e5d31034 	ldrb	r1, [r3, #52]	; 0x34
5000598c:	e5d30035 	ldrb	r0, [r3, #53]	; 0x35
50005990:	e1a00400 	lsl	r0, r0, #8
50005994:	e1801001 	orr	r1, r0, r1
50005998:	e5d30036 	ldrb	r0, [r3, #54]	; 0x36
5000599c:	e1a00800 	lsl	r0, r0, #16
500059a0:	e1801001 	orr	r1, r0, r1
500059a4:	e5d33037 	ldrb	r3, [r3, #55]	; 0x37
500059a8:	e1a03c03 	lsl	r3, r3, #24
500059ac:	e1833001 	orr	r3, r3, r1
500059b0:	e3a01000 	mov	r1, #0
500059b4:	e58d1000 	str	r1, [sp]
500059b8:	e3a01000 	mov	r1, #0
500059bc:	e58d1004 	str	r1, [sp, #4]
500059c0:	e1a00002 	mov	r0, r2
500059c4:	e1a01003 	mov	r1, r3
500059c8:	e3a02001 	mov	r2, #1
500059cc:	e3a03001 	mov	r3, #1
500059d0:	e304cf60 	movw	ip, #20320	; 0x4f60
500059d4:	e345c000 	movt	ip, #20480	; 0x5000
500059d8:	e12fff3c 	blx	ip
/home/liwenhaosuper/data/trustkernel/tsee/tsee/tsee/tee/tsee_sm.c:126
500059dc:	e30c3118 	movw	r3, #49432	; 0xc118
500059e0:	e3453000 	movt	r3, #20480	; 0x5000
500059e4:	e5d32030 	ldrb	r2, [r3, #48]	; 0x30
500059e8:	e5d31031 	ldrb	r1, [r3, #49]	; 0x31
500059ec:	e1a01401 	lsl	r1, r1, #8
500059f0:	e1812002 	orr	r2, r1, r2
500059f4:	e5d31032 	ldrb	r1, [r3, #50]	; 0x32
500059f8:	e1a01801 	lsl	r1, r1, #16
500059fc:	e1812002 	orr	r2, r1, r2
50005a00:	e5d33033 	ldrb	r3, [r3, #51]	; 0x33
50005a04:	e1a03c03 	lsl	r3, r3, #24
50005a08:	e1833002 	orr	r3, r3, r2
50005a0c:	e1a00003 	mov	r0, r3
50005a10:	e3043ee0 	movw	r3, #20192	; 0x4ee0
50005a14:	e3453000 	movt	r3, #20480	; 0x5000
50005a18:	e12fff33 	blx	r3
50005a1c:	e1a04000 	mov	r4, r0
50005a20:	e30c3118 	movw	r3, #49432	; 0xc118
50005a24:	e3453000 	movt	r3, #20480	; 0x5000
50005a28:	e5d32034 	ldrb	r2, [r3, #52]	; 0x34
50005a2c:	e5d31035 	ldrb	r1, [r3, #53]	; 0x35
50005a30:	e1a01401 	lsl	r1, r1, #8
50005a34:	e1812002 	orr	r2, r1, r2
50005a38:	e5d31036 	ldrb	r1, [r3, #54]	; 0x36
50005a3c:	e1a01801 	lsl	r1, r1, #16
50005a40:	e1812002 	orr	r2, r1, r2
50005a44:	e5d33037 	ldrb	r3, [r3, #55]	; 0x37
50005a48:	e1a03c03 	lsl	r3, r3, #24
50005a4c:	e1833002 	orr	r3, r3, r2
50005a50:	e1a00003 	mov	r0, r3
50005a54:	e3043ee0 	movw	r3, #20192	; 0x4ee0
50005a58:	e3453000 	movt	r3, #20480	; 0x5000
50005a5c:	e12fff33 	blx	r3
50005a60:	e1a03000 	mov	r3, r0
50005a64:	e3a02000 	mov	r2, #0
50005a68:	e58d2000 	str	r2, [sp]
50005a6c:	e3a02000 	mov	r2, #0
50005a70:	e58d2004 	str	r2, [sp, #4]
50005a74:	e1a00004 	mov	r0, r4
50005a78:	e1a01003 	mov	r1, r3
50005a7c:	e3a02001 	mov	r2, #1
50005a80:	e3a03001 	mov	r3, #1
50005a84:	e304cf60 	movw	ip, #20320	; 0x4f60
50005a88:	e345c000 	movt	ip, #20480	; 0x5000
50005a8c:	e12fff3c 	blx	ip
/home/liwenhaosuper/data/trustkernel/tsee/tsee/tsee/tee/tsee_sm.c:127
50005a90:	e3093e78 	movw	r3, #40568	; 0x9e78
50005a94:	e3453000 	movt	r3, #20480	; 0x5000
50005a98:	e58d3000 	str	r3, [sp]
50005a9c:	e3090f54 	movw	r0, #40788	; 0x9f54
50005aa0:	e3450000 	movt	r0, #20480	; 0x5000
50005aa4:	e3a0107f 	mov	r1, #127	; 0x7f
50005aa8:	e3a02003 	mov	r2, #3
50005aac:	e3a03001 	mov	r3, #1
50005ab0:	e306cc80 	movw	ip, #27776	; 0x6c80
50005ab4:	e345c000 	movt	ip, #20480	; 0x5000
50005ab8:	e12fff3c 	blx	ip
/home/liwenhaosuper/data/trustkernel/tsee/tsee/tsee/tee/tsee_sm.c:128
50005abc:	e30c3118 	movw	r3, #49432	; 0xc118
50005ac0:	e3453000 	movt	r3, #20480	; 0x5000
50005ac4:	e5d32038 	ldrb	r2, [r3, #56]	; 0x38
50005ac8:	e5d31039 	ldrb	r1, [r3, #57]	; 0x39
50005acc:	e1a01401 	lsl	r1, r1, #8
50005ad0:	e1812002 	orr	r2, r1, r2
50005ad4:	e5d3103a 	ldrb	r1, [r3, #58]	; 0x3a
50005ad8:	e1a01801 	lsl	r1, r1, #16
50005adc:	e1812002 	orr	r2, r1, r2
50005ae0:	e5d3303b 	ldrb	r3, [r3, #59]	; 0x3b
50005ae4:	e1a03c03 	lsl	r3, r3, #24
50005ae8:	e1833002 	orr	r3, r3, r2
50005aec:	e1a02003 	mov	r2, r3
50005af0:	e30c3118 	movw	r3, #49432	; 0xc118
50005af4:	e3453000 	movt	r3, #20480	; 0x5000
50005af8:	e5d3103c 	ldrb	r1, [r3, #60]	; 0x3c
50005afc:	e5d3003d 	ldrb	r0, [r3, #61]	; 0x3d
50005b00:	e1a00400 	lsl	r0, r0, #8
50005b04:	e1801001 	orr	r1, r0, r1
50005b08:	e5d3003e 	ldrb	r0, [r3, #62]	; 0x3e
50005b0c:	e1a00800 	lsl	r0, r0, #16
50005b10:	e1801001 	orr	r1, r0, r1
50005b14:	e5d3303f 	ldrb	r3, [r3, #63]	; 0x3f
50005b18:	e1a03c03 	lsl	r3, r3, #24
50005b1c:	e1833001 	orr	r3, r3, r1
50005b20:	e3a01000 	mov	r1, #0
50005b24:	e58d1000 	str	r1, [sp]
50005b28:	e3a01000 	mov	r1, #0
50005b2c:	e58d1004 	str	r1, [sp, #4]
50005b30:	e1a00002 	mov	r0, r2
50005b34:	e1a01003 	mov	r1, r3
50005b38:	e3a02001 	mov	r2, #1
50005b3c:	e3a03001 	mov	r3, #1
50005b40:	e304cf60 	movw	ip, #20320	; 0x4f60
50005b44:	e345c000 	movt	ip, #20480	; 0x5000
50005b48:	e12fff3c 	blx	ip
/home/liwenhaosuper/data/trustkernel/tsee/tsee/tsee/tee/tsee_sm.c:129
50005b4c:	e30c3118 	movw	r3, #49432	; 0xc118
50005b50:	e3453000 	movt	r3, #20480	; 0x5000
50005b54:	e5d32038 	ldrb	r2, [r3, #56]	; 0x38
50005b58:	e5d31039 	ldrb	r1, [r3, #57]	; 0x39
50005b5c:	e1a01401 	lsl	r1, r1, #8
50005b60:	e1812002 	orr	r2, r1, r2
50005b64:	e5d3103a 	ldrb	r1, [r3, #58]	; 0x3a
50005b68:	e1a01801 	lsl	r1, r1, #16
50005b6c:	e1812002 	orr	r2, r1, r2
50005b70:	e5d3303b 	ldrb	r3, [r3, #59]	; 0x3b
50005b74:	e1a03c03 	lsl	r3, r3, #24
50005b78:	e1833002 	orr	r3, r3, r2
50005b7c:	e1a00003 	mov	r0, r3
50005b80:	e3043ee0 	movw	r3, #20192	; 0x4ee0
50005b84:	e3453000 	movt	r3, #20480	; 0x5000
50005b88:	e12fff33 	blx	r3
50005b8c:	e1a04000 	mov	r4, r0
50005b90:	e30c3118 	movw	r3, #49432	; 0xc118
50005b94:	e3453000 	movt	r3, #20480	; 0x5000
50005b98:	e5d3203c 	ldrb	r2, [r3, #60]	; 0x3c
50005b9c:	e5d3103d 	ldrb	r1, [r3, #61]	; 0x3d
50005ba0:	e1a01401 	lsl	r1, r1, #8
50005ba4:	e1812002 	orr	r2, r1, r2
50005ba8:	e5d3103e 	ldrb	r1, [r3, #62]	; 0x3e
50005bac:	e1a01801 	lsl	r1, r1, #16
50005bb0:	e1812002 	orr	r2, r1, r2
50005bb4:	e5d3303f 	ldrb	r3, [r3, #63]	; 0x3f
50005bb8:	e1a03c03 	lsl	r3, r3, #24
50005bbc:	e1833002 	orr	r3, r3, r2
50005bc0:	e1a00003 	mov	r0, r3
50005bc4:	e3043ee0 	movw	r3, #20192	; 0x4ee0
50005bc8:	e3453000 	movt	r3, #20480	; 0x5000
50005bcc:	e12fff33 	blx	r3
50005bd0:	e1a03000 	mov	r3, r0
50005bd4:	e3a02000 	mov	r2, #0
50005bd8:	e58d2000 	str	r2, [sp]
50005bdc:	e3a02000 	mov	r2, #0
50005be0:	e58d2004 	str	r2, [sp, #4]
50005be4:	e1a00004 	mov	r0, r4
50005be8:	e1a01003 	mov	r1, r3
50005bec:	e3a02001 	mov	r2, #1
50005bf0:	e3a03001 	mov	r3, #1
50005bf4:	e304cf60 	movw	ip, #20320	; 0x4f60
50005bf8:	e345c000 	movt	ip, #20480	; 0x5000
50005bfc:	e12fff3c 	blx	ip
/home/liwenhaosuper/data/trustkernel/tsee/tsee/tsee/tee/tsee_sm.c:130
50005c00:	e30c3118 	movw	r3, #49432	; 0xc118
50005c04:	e3453000 	movt	r3, #20480	; 0x5000
50005c08:	e5d32040 	ldrb	r2, [r3, #64]	; 0x40
50005c0c:	e5d31041 	ldrb	r1, [r3, #65]	; 0x41
50005c10:	e1a01401 	lsl	r1, r1, #8
50005c14:	e1812002 	orr	r2, r1, r2
50005c18:	e5d31042 	ldrb	r1, [r3, #66]	; 0x42
50005c1c:	e1a01801 	lsl	r1, r1, #16
50005c20:	e1812002 	orr	r2, r1, r2
50005c24:	e5d33043 	ldrb	r3, [r3, #67]	; 0x43
50005c28:	e1a03c03 	lsl	r3, r3, #24
50005c2c:	e1833002 	orr	r3, r3, r2
50005c30:	e1a02003 	mov	r2, r3
50005c34:	e30c3118 	movw	r3, #49432	; 0xc118
50005c38:	e3453000 	movt	r3, #20480	; 0x5000
50005c3c:	e5d31044 	ldrb	r1, [r3, #68]	; 0x44
50005c40:	e5d30045 	ldrb	r0, [r3, #69]	; 0x45
50005c44:	e1a00400 	lsl	r0, r0, #8
50005c48:	e1801001 	orr	r1, r0, r1
50005c4c:	e5d30046 	ldrb	r0, [r3, #70]	; 0x46
50005c50:	e1a00800 	lsl	r0, r0, #16
50005c54:	e1801001 	orr	r1, r0, r1
50005c58:	e5d33047 	ldrb	r3, [r3, #71]	; 0x47
50005c5c:	e1a03c03 	lsl	r3, r3, #24
50005c60:	e1833001 	orr	r3, r3, r1
50005c64:	e3a01000 	mov	r1, #0
50005c68:	e58d1000 	str	r1, [sp]
50005c6c:	e3a01000 	mov	r1, #0
50005c70:	e58d1004 	str	r1, [sp, #4]
50005c74:	e1a00002 	mov	r0, r2
50005c78:	e1a01003 	mov	r1, r3
50005c7c:	e3a02001 	mov	r2, #1
50005c80:	e3a03001 	mov	r3, #1
50005c84:	e304cf60 	movw	ip, #20320	; 0x4f60
50005c88:	e345c000 	movt	ip, #20480	; 0x5000
50005c8c:	e12fff3c 	blx	ip
/home/liwenhaosuper/data/trustkernel/tsee/tsee/tsee/tee/tsee_sm.c:131
50005c90:	e30c3118 	movw	r3, #49432	; 0xc118
50005c94:	e3453000 	movt	r3, #20480	; 0x5000
50005c98:	e5d32040 	ldrb	r2, [r3, #64]	; 0x40
50005c9c:	e5d31041 	ldrb	r1, [r3, #65]	; 0x41
50005ca0:	e1a01401 	lsl	r1, r1, #8
50005ca4:	e1812002 	orr	r2, r1, r2
50005ca8:	e5d31042 	ldrb	r1, [r3, #66]	; 0x42
50005cac:	e1a01801 	lsl	r1, r1, #16
50005cb0:	e1812002 	orr	r2, r1, r2
50005cb4:	e5d33043 	ldrb	r3, [r3, #67]	; 0x43
50005cb8:	e1a03c03 	lsl	r3, r3, #24
50005cbc:	e1833002 	orr	r3, r3, r2
50005cc0:	e1a00003 	mov	r0, r3
50005cc4:	e3043ee0 	movw	r3, #20192	; 0x4ee0
50005cc8:	e3453000 	movt	r3, #20480	; 0x5000
50005ccc:	e12fff33 	blx	r3
50005cd0:	e1a04000 	mov	r4, r0
50005cd4:	e30c3118 	movw	r3, #49432	; 0xc118
50005cd8:	e3453000 	movt	r3, #20480	; 0x5000
50005cdc:	e5d32044 	ldrb	r2, [r3, #68]	; 0x44
50005ce0:	e5d31045 	ldrb	r1, [r3, #69]	; 0x45
50005ce4:	e1a01401 	lsl	r1, r1, #8
50005ce8:	e1812002 	orr	r2, r1, r2
50005cec:	e5d31046 	ldrb	r1, [r3, #70]	; 0x46
50005cf0:	e1a01801 	lsl	r1, r1, #16
50005cf4:	e1812002 	orr	r2, r1, r2
50005cf8:	e5d33047 	ldrb	r3, [r3, #71]	; 0x47
50005cfc:	e1a03c03 	lsl	r3, r3, #24
50005d00:	e1833002 	orr	r3, r3, r2
50005d04:	e1a00003 	mov	r0, r3
50005d08:	e3043ee0 	movw	r3, #20192	; 0x4ee0
50005d0c:	e3453000 	movt	r3, #20480	; 0x5000
50005d10:	e12fff33 	blx	r3
50005d14:	e1a03000 	mov	r3, r0
50005d18:	e3a02000 	mov	r2, #0
50005d1c:	e58d2000 	str	r2, [sp]
50005d20:	e3a02000 	mov	r2, #0
50005d24:	e58d2004 	str	r2, [sp, #4]
50005d28:	e1a00004 	mov	r0, r4
50005d2c:	e1a01003 	mov	r1, r3
50005d30:	e3a02001 	mov	r2, #1
50005d34:	e3a03001 	mov	r3, #1
50005d38:	e304cf60 	movw	ip, #20320	; 0x4f60
50005d3c:	e345c000 	movt	ip, #20480	; 0x5000
50005d40:	e12fff3c 	blx	ip
/home/liwenhaosuper/data/trustkernel/tsee/tsee/tsee/tee/tsee_sm.c:132
50005d44:	e3093e8c 	movw	r3, #40588	; 0x9e8c
50005d48:	e3453000 	movt	r3, #20480	; 0x5000
50005d4c:	e58d3000 	str	r3, [sp]
50005d50:	e3090f54 	movw	r0, #40788	; 0x9f54
50005d54:	e3450000 	movt	r0, #20480	; 0x5000
50005d58:	e3a01084 	mov	r1, #132	; 0x84
50005d5c:	e3a02003 	mov	r2, #3
50005d60:	e3a03001 	mov	r3, #1
50005d64:	e306cc80 	movw	ip, #27776	; 0x6c80
50005d68:	e345c000 	movt	ip, #20480	; 0x5000
50005d6c:	e12fff3c 	blx	ip
/home/liwenhaosuper/data/trustkernel/tsee/tsee/tsee/tee/tsee_sm.c:133
50005d70:	e30c3118 	movw	r3, #49432	; 0xc118
50005d74:	e3453000 	movt	r3, #20480	; 0x5000
50005d78:	e5d32028 	ldrb	r2, [r3, #40]	; 0x28
50005d7c:	e5d31029 	ldrb	r1, [r3, #41]	; 0x29
50005d80:	e1a01401 	lsl	r1, r1, #8
50005d84:	e1812002 	orr	r2, r1, r2
50005d88:	e5d3102a 	ldrb	r1, [r3, #42]	; 0x2a
50005d8c:	e1a01801 	lsl	r1, r1, #16
50005d90:	e1812002 	orr	r2, r1, r2
50005d94:	e5d3302b 	ldrb	r3, [r3, #43]	; 0x2b
50005d98:	e1a03c03 	lsl	r3, r3, #24
50005d9c:	e1833002 	orr	r3, r3, r2
50005da0:	e1a02003 	mov	r2, r3
50005da4:	e30c3118 	movw	r3, #49432	; 0xc118
50005da8:	e3453000 	movt	r3, #20480	; 0x5000
50005dac:	e5d31028 	ldrb	r1, [r3, #40]	; 0x28
50005db0:	e5d30029 	ldrb	r0, [r3, #41]	; 0x29
50005db4:	e1a00400 	lsl	r0, r0, #8
50005db8:	e1801001 	orr	r1, r0, r1
50005dbc:	e5d3002a 	ldrb	r0, [r3, #42]	; 0x2a
50005dc0:	e1a00800 	lsl	r0, r0, #16
50005dc4:	e1801001 	orr	r1, r0, r1
50005dc8:	e5d3302b 	ldrb	r3, [r3, #43]	; 0x2b
50005dcc:	e1a03c03 	lsl	r3, r3, #24
50005dd0:	e1833001 	orr	r3, r3, r1
50005dd4:	e1a01003 	mov	r1, r3
50005dd8:	e30c3118 	movw	r3, #49432	; 0xc118
50005ddc:	e3453000 	movt	r3, #20480	; 0x5000
50005de0:	e5d3002c 	ldrb	r0, [r3, #44]	; 0x2c
50005de4:	e5d3c02d 	ldrb	ip, [r3, #45]	; 0x2d
50005de8:	e1a0c40c 	lsl	ip, ip, #8
50005dec:	e18c0000 	orr	r0, ip, r0
50005df0:	e5d3c02e 	ldrb	ip, [r3, #46]	; 0x2e
50005df4:	e1a0c80c 	lsl	ip, ip, #16
50005df8:	e18c0000 	orr	r0, ip, r0
50005dfc:	e5d3302f 	ldrb	r3, [r3, #47]	; 0x2f
50005e00:	e1a03c03 	lsl	r3, r3, #24
50005e04:	e1833000 	orr	r3, r3, r0
50005e08:	e0813003 	add	r3, r1, r3
50005e0c:	e3a01001 	mov	r1, #1
50005e10:	e58d1000 	str	r1, [sp]
50005e14:	e3a01000 	mov	r1, #0
50005e18:	e58d1004 	str	r1, [sp, #4]
50005e1c:	e1a00002 	mov	r0, r2
50005e20:	e1a01003 	mov	r1, r3
50005e24:	e3a02001 	mov	r2, #1
50005e28:	e3a03001 	mov	r3, #1
50005e2c:	e304cf60 	movw	ip, #20320	; 0x4f60
50005e30:	e345c000 	movt	ip, #20480	; 0x5000
50005e34:	e12fff3c 	blx	ip
/home/liwenhaosuper/data/trustkernel/tsee/tsee/tsee/tee/tsee_sm.c:134
50005e38:	e30c3118 	movw	r3, #49432	; 0xc118
50005e3c:	e3453000 	movt	r3, #20480	; 0x5000
50005e40:	e5d32028 	ldrb	r2, [r3, #40]	; 0x28
50005e44:	e5d31029 	ldrb	r1, [r3, #41]	; 0x29
50005e48:	e1a01401 	lsl	r1, r1, #8
50005e4c:	e1812002 	orr	r2, r1, r2
50005e50:	e5d3102a 	ldrb	r1, [r3, #42]	; 0x2a
50005e54:	e1a01801 	lsl	r1, r1, #16
50005e58:	e1812002 	orr	r2, r1, r2
50005e5c:	e5d3302b 	ldrb	r3, [r3, #43]	; 0x2b
50005e60:	e1a03c03 	lsl	r3, r3, #24
50005e64:	e1833002 	orr	r3, r3, r2
50005e68:	e1a00003 	mov	r0, r3
50005e6c:	e3043ee0 	movw	r3, #20192	; 0x4ee0
50005e70:	e3453000 	movt	r3, #20480	; 0x5000
50005e74:	e12fff33 	blx	r3
50005e78:	e1a04000 	mov	r4, r0
50005e7c:	e30c3118 	movw	r3, #49432	; 0xc118
50005e80:	e3453000 	movt	r3, #20480	; 0x5000
50005e84:	e5d32028 	ldrb	r2, [r3, #40]	; 0x28
50005e88:	e5d31029 	ldrb	r1, [r3, #41]	; 0x29
50005e8c:	e1a01401 	lsl	r1, r1, #8
50005e90:	e1812002 	orr	r2, r1, r2
50005e94:	e5d3102a 	ldrb	r1, [r3, #42]	; 0x2a
50005e98:	e1a01801 	lsl	r1, r1, #16
50005e9c:	e1812002 	orr	r2, r1, r2
50005ea0:	e5d3302b 	ldrb	r3, [r3, #43]	; 0x2b
50005ea4:	e1a03c03 	lsl	r3, r3, #24
50005ea8:	e1833002 	orr	r3, r3, r2
50005eac:	e1a02003 	mov	r2, r3
50005eb0:	e30c3118 	movw	r3, #49432	; 0xc118
50005eb4:	e3453000 	movt	r3, #20480	; 0x5000
50005eb8:	e5d3102c 	ldrb	r1, [r3, #44]	; 0x2c
50005ebc:	e5d3002d 	ldrb	r0, [r3, #45]	; 0x2d
50005ec0:	e1a00400 	lsl	r0, r0, #8
50005ec4:	e1801001 	orr	r1, r0, r1
50005ec8:	e5d3002e 	ldrb	r0, [r3, #46]	; 0x2e
50005ecc:	e1a00800 	lsl	r0, r0, #16
50005ed0:	e1801001 	orr	r1, r0, r1
50005ed4:	e5d3302f 	ldrb	r3, [r3, #47]	; 0x2f
50005ed8:	e1a03c03 	lsl	r3, r3, #24
50005edc:	e1833001 	orr	r3, r3, r1
50005ee0:	e0823003 	add	r3, r2, r3
50005ee4:	e1a00003 	mov	r0, r3
50005ee8:	e3043ee0 	movw	r3, #20192	; 0x4ee0
50005eec:	e3453000 	movt	r3, #20480	; 0x5000
50005ef0:	e12fff33 	blx	r3
50005ef4:	e1a03000 	mov	r3, r0
50005ef8:	e3a02001 	mov	r2, #1
50005efc:	e58d2000 	str	r2, [sp]
50005f00:	e3a02000 	mov	r2, #0
50005f04:	e58d2004 	str	r2, [sp, #4]
50005f08:	e1a00004 	mov	r0, r4
50005f0c:	e1a01003 	mov	r1, r3
50005f10:	e3a02001 	mov	r2, #1
50005f14:	e3a03001 	mov	r3, #1
50005f18:	e304cf60 	movw	ip, #20320	; 0x4f60
50005f1c:	e345c000 	movt	ip, #20480	; 0x5000
50005f20:	e12fff3c 	blx	ip
/home/liwenhaosuper/data/trustkernel/tsee/tsee/tsee/tee/tsee_sm.c:137
50005f24:	e3093ea4 	movw	r3, #40612	; 0x9ea4
50005f28:	e3453000 	movt	r3, #20480	; 0x5000
50005f2c:	e58d3000 	str	r3, [sp]
50005f30:	e3090f54 	movw	r0, #40788	; 0x9f54
50005f34:	e3450000 	movt	r0, #20480	; 0x5000
50005f38:	e3a01089 	mov	r1, #137	; 0x89
50005f3c:	e3a02003 	mov	r2, #3
50005f40:	e3a03001 	mov	r3, #1
50005f44:	e306cc80 	movw	ip, #27776	; 0x6c80
50005f48:	e345c000 	movt	ip, #20480	; 0x5000
50005f4c:	e12fff3c 	blx	ip
/home/liwenhaosuper/data/trustkernel/tsee/tsee/tsee/tee/tsee_sm.c:138
50005f50:	e3a03000 	mov	r3, #0
50005f54:	e58d3000 	str	r3, [sp]
50005f58:	e3a03000 	mov	r3, #0
50005f5c:	e58d3004 	str	r3, [sp, #4]
50005f60:	e3a00205 	mov	r0, #1342177280	; 0x50000000
50005f64:	e3a01000 	mov	r1, #0
50005f68:	e3451010 	movt	r1, #20496	; 0x5010
50005f6c:	e3a02000 	mov	r2, #0
50005f70:	e3a03000 	mov	r3, #0
50005f74:	e304cf60 	movw	ip, #20320	; 0x4f60
50005f78:	e345c000 	movt	ip, #20480	; 0x5000
50005f7c:	e12fff3c 	blx	ip
/home/liwenhaosuper/data/trustkernel/tsee/tsee/tsee/tee/tsee_sm.c:139
50005f80:	e3012000 	movw	r2, #4096	; 0x1000
50005f84:	e3452000 	movt	r2, #20480	; 0x5000
50005f88:	e3023000 	movw	r3, #8192	; 0x2000
50005f8c:	e3453000 	movt	r3, #20480	; 0x5000
50005f90:	e3a01000 	mov	r1, #0
50005f94:	e58d1000 	str	r1, [sp]
50005f98:	e3a01000 	mov	r1, #0
50005f9c:	e58d1004 	str	r1, [sp, #4]
50005fa0:	e1a00002 	mov	r0, r2
50005fa4:	e1a01003 	mov	r1, r3
50005fa8:	e3a02001 	mov	r2, #1
50005fac:	e3a03001 	mov	r3, #1
50005fb0:	e304cf60 	movw	ip, #20320	; 0x4f60
50005fb4:	e345c000 	movt	ip, #20480	; 0x5000
50005fb8:	e12fff3c 	blx	ip
/home/liwenhaosuper/data/trustkernel/tsee/tsee/tsee/tee/tsee_sm.c:140
50005fbc:	e30b2000 	movw	r2, #45056	; 0xb000
50005fc0:	e3452000 	movt	r2, #20480	; 0x5000
50005fc4:	e30c3000 	movw	r3, #49152	; 0xc000
50005fc8:	e3453000 	movt	r3, #20480	; 0x5000
50005fcc:	e3a01001 	mov	r1, #1
50005fd0:	e58d1000 	str	r1, [sp]
50005fd4:	e3a01000 	mov	r1, #0
50005fd8:	e58d1004 	str	r1, [sp, #4]
50005fdc:	e1a00002 	mov	r0, r2
50005fe0:	e1a01003 	mov	r1, r3
50005fe4:	e3a02001 	mov	r2, #1
50005fe8:	e3a03001 	mov	r3, #1
50005fec:	e304cf60 	movw	ip, #20320	; 0x4f60
50005ff0:	e345c000 	movt	ip, #20480	; 0x5000
50005ff4:	e12fff3c 	blx	ip
/home/liwenhaosuper/data/trustkernel/tsee/tsee/tsee/tee/tsee_sm.c:142
50005ff8:	e30e2000 	movw	r2, #57344	; 0xe000
50005ffc:	e3452000 	movt	r2, #20480	; 0x5000
50006000:	e30f3000 	movw	r3, #61440	; 0xf000
50006004:	e3453000 	movt	r3, #20480	; 0x5000
50006008:	e3a01001 	mov	r1, #1
5000600c:	e58d1000 	str	r1, [sp]
50006010:	e3a01000 	mov	r1, #0
50006014:	e58d1004 	str	r1, [sp, #4]
50006018:	e1a00002 	mov	r0, r2
5000601c:	e1a01003 	mov	r1, r3
50006020:	e3a02000 	mov	r2, #0
50006024:	e3a03001 	mov	r3, #1
50006028:	e304cf60 	movw	ip, #20320	; 0x4f60
5000602c:	e345c000 	movt	ip, #20480	; 0x5000
50006030:	e12fff3c 	blx	ip
/home/liwenhaosuper/data/trustkernel/tsee/tsee/tsee/tee/tsee_sm.c:145
50006034:	e3013000 	movw	r3, #4096	; 0x1000
50006038:	e3453000 	movt	r3, #20480	; 0x5000
5000603c:	e1a00003 	mov	r0, r3
50006040:	e30031d8 	movw	r3, #472	; 0x1d8
50006044:	e3453000 	movt	r3, #20480	; 0x5000
50006048:	e12fff33 	blx	r3
/home/liwenhaosuper/data/trustkernel/tsee/tsee/tsee/tee/tsee_sm.c:146
5000604c:	e30b3000 	movw	r3, #45056	; 0xb000
50006050:	e3453000 	movt	r3, #20480	; 0x5000
50006054:	e1a00003 	mov	r0, r3
50006058:	e30031d8 	movw	r3, #472	; 0x1d8
5000605c:	e3453000 	movt	r3, #20480	; 0x5000
50006060:	e12fff33 	blx	r3
/home/liwenhaosuper/data/trustkernel/tsee/tsee/tsee/tee/tsee_sm.c:147
50006064:	e30e3000 	movw	r3, #57344	; 0xe000
50006068:	e3453000 	movt	r3, #20480	; 0x5000
5000606c:	e1a00003 	mov	r0, r3
50006070:	e30031d8 	movw	r3, #472	; 0x1d8
50006074:	e3453000 	movt	r3, #20480	; 0x5000
50006078:	e12fff33 	blx	r3
/home/liwenhaosuper/data/trustkernel/tsee/tsee/tsee/tee/tsee_sm.c:148
5000607c:	e3093ecc 	movw	r3, #40652	; 0x9ecc
50006080:	e3453000 	movt	r3, #20480	; 0x5000
50006084:	e58d3000 	str	r3, [sp]
50006088:	e3090f54 	movw	r0, #40788	; 0x9f54
5000608c:	e3450000 	movt	r0, #20480	; 0x5000
50006090:	e3a01094 	mov	r1, #148	; 0x94
50006094:	e3a02003 	mov	r2, #3
50006098:	e3a03001 	mov	r3, #1
5000609c:	e306cc80 	movw	ip, #27776	; 0x6c80
500060a0:	e345c000 	movt	ip, #20480	; 0x5000
500060a4:	e12fff3c 	blx	ip
/home/liwenhaosuper/data/trustkernel/tsee/tsee/tsee/tee/tsee_sm.c:150
500060a8:	e24bd008 	sub	sp, fp, #8
500060ac:	e8bd8810 	pop	{r4, fp, pc}

500060b0 <sm_tee_deinit>:
sm_tee_deinit():
/home/liwenhaosuper/data/trustkernel/tsee/tsee/tsee/tee/tsee_sm.c:151
500060b0:	e52db004 	push	{fp}		; (str fp, [sp, #-4]!)
500060b4:	e28db000 	add	fp, sp, #0
/home/liwenhaosuper/data/trustkernel/tsee/tsee/tsee/tee/tsee_sm.c:152
500060b8:	e30c3180 	movw	r3, #49536	; 0xc180
500060bc:	e3453000 	movt	r3, #20480	; 0x5000
500060c0:	e3a02001 	mov	r2, #1
500060c4:	e5832000 	str	r2, [r3]
/home/liwenhaosuper/data/trustkernel/tsee/tsee/tsee/tee/tsee_sm.c:154
500060c8:	e28bd000 	add	sp, fp, #0
500060cc:	e49db004 	pop	{fp}		; (ldr fp, [sp], #4)
500060d0:	e12fff1e 	bx	lr

500060d4 <sm_write_mvbar>:
sm_write_mvbar():
/home/liwenhaosuper/data/trustkernel/tsee/tsee/tsee/tee/tsee_sm.c:156
500060d4:	e92d4800 	push	{fp, lr}
500060d8:	e28db004 	add	fp, sp, #4
500060dc:	e24dd018 	sub	sp, sp, #24
500060e0:	e50b0008 	str	r0, [fp, #-8]
/home/liwenhaosuper/data/trustkernel/tsee/tsee/tsee/tee/tsee_sm.c:157
500060e4:	e30c3180 	movw	r3, #49536	; 0xc180
500060e8:	e3453000 	movt	r3, #20480	; 0x5000
500060ec:	e5933000 	ldr	r3, [r3]
500060f0:	e3530000 	cmp	r3, #0
500060f4:	0a00000b 	beq	50006128 <sm_write_mvbar+0x54>
/home/liwenhaosuper/data/trustkernel/tsee/tsee/tsee/tee/tsee_sm.c:158
500060f8:	e3093ef0 	movw	r3, #40688	; 0x9ef0
500060fc:	e3453000 	movt	r3, #20480	; 0x5000
50006100:	e58d3000 	str	r3, [sp]
50006104:	e3090f44 	movw	r0, #40772	; 0x9f44
50006108:	e3450000 	movt	r0, #20480	; 0x5000
5000610c:	e3a0109e 	mov	r1, #158	; 0x9e
50006110:	e3a02001 	mov	r2, #1
50006114:	e3a03001 	mov	r3, #1
50006118:	e306cc80 	movw	ip, #27776	; 0x6c80
5000611c:	e345c000 	movt	ip, #20480	; 0x5000
50006120:	e12fff3c 	blx	ip
/home/liwenhaosuper/data/trustkernel/tsee/tsee/tsee/tee/tsee_sm.c:159
50006124:	ea000057 	b	50006288 <sm_write_mvbar+0x1b4>
/home/liwenhaosuper/data/trustkernel/tsee/tsee/tsee/tee/tsee_sm.c:161
50006128:	e30134c8 	movw	r3, #5320	; 0x14c8
5000612c:	e3453000 	movt	r3, #20480	; 0x5000
50006130:	e51b2008 	ldr	r2, [fp, #-8]
50006134:	e1a00003 	mov	r0, r3
50006138:	e1a01002 	mov	r1, r2
5000613c:	e3043f0c 	movw	r3, #20236	; 0x4f0c
50006140:	e3453000 	movt	r3, #20480	; 0x5000
50006144:	e12fff33 	blx	r3
/home/liwenhaosuper/data/trustkernel/tsee/tsee/tsee/tee/tsee_sm.c:162
50006148:	e30134cc 	movw	r3, #5324	; 0x14cc
5000614c:	e3453000 	movt	r3, #20480	; 0x5000
50006150:	e51b2008 	ldr	r2, [fp, #-8]
50006154:	e2822004 	add	r2, r2, #4
50006158:	e1a00003 	mov	r0, r3
5000615c:	e1a01002 	mov	r1, r2
50006160:	e3043f0c 	movw	r3, #20236	; 0x4f0c
50006164:	e3453000 	movt	r3, #20480	; 0x5000
50006168:	e12fff33 	blx	r3
/home/liwenhaosuper/data/trustkernel/tsee/tsee/tsee/tee/tsee_sm.c:163
5000616c:	e30134d0 	movw	r3, #5328	; 0x14d0
50006170:	e3453000 	movt	r3, #20480	; 0x5000
50006174:	e51b2008 	ldr	r2, [fp, #-8]
50006178:	e2822008 	add	r2, r2, #8
5000617c:	e1a00003 	mov	r0, r3
50006180:	e1a01002 	mov	r1, r2
50006184:	e3043f0c 	movw	r3, #20236	; 0x4f0c
50006188:	e3453000 	movt	r3, #20480	; 0x5000
5000618c:	e12fff33 	blx	r3
/home/liwenhaosuper/data/trustkernel/tsee/tsee/tsee/tee/tsee_sm.c:164
50006190:	e30134d4 	movw	r3, #5332	; 0x14d4
50006194:	e3453000 	movt	r3, #20480	; 0x5000
50006198:	e51b2008 	ldr	r2, [fp, #-8]
5000619c:	e282200c 	add	r2, r2, #12
500061a0:	e1a00003 	mov	r0, r3
500061a4:	e1a01002 	mov	r1, r2
500061a8:	e3043f0c 	movw	r3, #20236	; 0x4f0c
500061ac:	e3453000 	movt	r3, #20480	; 0x5000
500061b0:	e12fff33 	blx	r3
/home/liwenhaosuper/data/trustkernel/tsee/tsee/tsee/tee/tsee_sm.c:165
500061b4:	e30134d8 	movw	r3, #5336	; 0x14d8
500061b8:	e3453000 	movt	r3, #20480	; 0x5000
500061bc:	e51b2008 	ldr	r2, [fp, #-8]
500061c0:	e2822010 	add	r2, r2, #16
500061c4:	e1a00003 	mov	r0, r3
500061c8:	e1a01002 	mov	r1, r2
500061cc:	e3043f0c 	movw	r3, #20236	; 0x4f0c
500061d0:	e3453000 	movt	r3, #20480	; 0x5000
500061d4:	e12fff33 	blx	r3
/home/liwenhaosuper/data/trustkernel/tsee/tsee/tsee/tee/tsee_sm.c:166
500061d8:	e30134dc 	movw	r3, #5340	; 0x14dc
500061dc:	e3453000 	movt	r3, #20480	; 0x5000
500061e0:	e51b2008 	ldr	r2, [fp, #-8]
500061e4:	e2822014 	add	r2, r2, #20
500061e8:	e1a00003 	mov	r0, r3
500061ec:	e1a01002 	mov	r1, r2
500061f0:	e3043f0c 	movw	r3, #20236	; 0x4f0c
500061f4:	e3453000 	movt	r3, #20480	; 0x5000
500061f8:	e12fff33 	blx	r3
/home/liwenhaosuper/data/trustkernel/tsee/tsee/tsee/tee/tsee_sm.c:167
500061fc:	e30134e0 	movw	r3, #5344	; 0x14e0
50006200:	e3453000 	movt	r3, #20480	; 0x5000
50006204:	e51b2008 	ldr	r2, [fp, #-8]
50006208:	e2822018 	add	r2, r2, #24
5000620c:	e1a00003 	mov	r0, r3
50006210:	e1a01002 	mov	r1, r2
50006214:	e3043f0c 	movw	r3, #20236	; 0x4f0c
50006218:	e3453000 	movt	r3, #20480	; 0x5000
5000621c:	e12fff33 	blx	r3
/home/liwenhaosuper/data/trustkernel/tsee/tsee/tsee/tee/tsee_sm.c:168
50006220:	e30134e4 	movw	r3, #5348	; 0x14e4
50006224:	e3453000 	movt	r3, #20480	; 0x5000
50006228:	e51b2008 	ldr	r2, [fp, #-8]
5000622c:	e282201c 	add	r2, r2, #28
50006230:	e1a00003 	mov	r0, r3
50006234:	e1a01002 	mov	r1, r2
50006238:	e3043f0c 	movw	r3, #20236	; 0x4f0c
5000623c:	e3453000 	movt	r3, #20480	; 0x5000
50006240:	e12fff33 	blx	r3
/home/liwenhaosuper/data/trustkernel/tsee/tsee/tsee/tee/tsee_sm.c:169
50006244:	e30134c8 	movw	r3, #5320	; 0x14c8
50006248:	e3453000 	movt	r3, #20480	; 0x5000
5000624c:	e5932000 	ldr	r2, [r3]
50006250:	e3093f20 	movw	r3, #40736	; 0x9f20
50006254:	e3453000 	movt	r3, #20480	; 0x5000
50006258:	e58d3000 	str	r3, [sp]
5000625c:	e51b3008 	ldr	r3, [fp, #-8]
50006260:	e58d3004 	str	r3, [sp, #4]
50006264:	e58d2008 	str	r2, [sp, #8]
50006268:	e3090f44 	movw	r0, #40772	; 0x9f44
5000626c:	e3450000 	movt	r0, #20480	; 0x5000
50006270:	e3a010a9 	mov	r1, #169	; 0xa9
50006274:	e3a02003 	mov	r2, #3
50006278:	e3a03001 	mov	r3, #1
5000627c:	e306cc80 	movw	ip, #27776	; 0x6c80
50006280:	e345c000 	movt	ip, #20480	; 0x5000
50006284:	e12fff3c 	blx	ip
/home/liwenhaosuper/data/trustkernel/tsee/tsee/tsee/tee/tsee_sm.c:170
50006288:	e24bd004 	sub	sp, fp, #4
5000628c:	e8bd8800 	pop	{fp, pc}

50006290 <map_tsee>:
map_tsee():
/home/liwenhaosuper/data/trustkernel/tsee/tsee/tsee/tee/tsee_sm.c:186
50006290:	e92d4800 	push	{fp, lr}
50006294:	e28db004 	add	fp, sp, #4
/home/liwenhaosuper/data/trustkernel/tsee/tsee/tsee/tee/tsee_sm.c:189
50006298:	ee122f50 	mrc	15, 0, r2, cr2, cr0, {2}
5000629c:	e30b3018 	movw	r3, #45080	; 0xb018
500062a0:	e3453000 	movt	r3, #20480	; 0x5000
500062a4:	e5832000 	str	r2, [r3]
/home/liwenhaosuper/data/trustkernel/tsee/tsee/tsee/tee/tsee_sm.c:190
500062a8:	ee122f10 	mrc	15, 0, r2, cr2, cr0, {0}
500062ac:	e30b3018 	movw	r3, #45080	; 0xb018
500062b0:	e3453000 	movt	r3, #20480	; 0x5000
500062b4:	e5832004 	str	r2, [r3, #4]
/home/liwenhaosuper/data/trustkernel/tsee/tsee/tsee/tee/tsee_sm.c:191
500062b8:	ee122f30 	mrc	15, 0, r2, cr2, cr0, {1}
500062bc:	e30b3018 	movw	r3, #45080	; 0xb018
500062c0:	e3453000 	movt	r3, #20480	; 0x5000
500062c4:	e5832008 	str	r2, [r3, #8]
/home/liwenhaosuper/data/trustkernel/tsee/tsee/tsee/tee/tsee_sm.c:192
500062c8:	ee112f10 	mrc	15, 0, r2, cr1, cr0, {0}
500062cc:	e30b3018 	movw	r3, #45080	; 0xb018
500062d0:	e3453000 	movt	r3, #20480	; 0x5000
500062d4:	e583200c 	str	r2, [r3, #12]
/home/liwenhaosuper/data/trustkernel/tsee/tsee/tsee/tee/tsee_sm.c:195
500062d8:	e30b3000 	movw	r3, #45056	; 0xb000
500062dc:	e3453000 	movt	r3, #20480	; 0x5000
500062e0:	e5933000 	ldr	r3, [r3]
500062e4:	ee023f50 	mcr	15, 0, r3, cr2, cr0, {2}
/home/liwenhaosuper/data/trustkernel/tsee/tsee/tsee/tee/tsee_sm.c:196
500062e8:	e30b3000 	movw	r3, #45056	; 0xb000
500062ec:	e3453000 	movt	r3, #20480	; 0x5000
500062f0:	e5933008 	ldr	r3, [r3, #8]
500062f4:	ee023f30 	mcr	15, 0, r3, cr2, cr0, {1}
/home/liwenhaosuper/data/trustkernel/tsee/tsee/tsee/tee/tsee_sm.c:197
500062f8:	e30b3000 	movw	r3, #45056	; 0xb000
500062fc:	e3453000 	movt	r3, #20480	; 0x5000
50006300:	e5933004 	ldr	r3, [r3, #4]
50006304:	ee023f10 	mcr	15, 0, r3, cr2, cr0, {0}
/home/liwenhaosuper/data/trustkernel/tsee/tsee/tsee/tee/tsee_sm.c:198
50006308:	e30b3000 	movw	r3, #45056	; 0xb000
5000630c:	e3453000 	movt	r3, #20480	; 0x5000
50006310:	e593300c 	ldr	r3, [r3, #12]
50006314:	ee013f10 	mcr	15, 0, r3, cr1, cr0, {0}
/home/liwenhaosuper/data/trustkernel/tsee/tsee/tsee/tee/tsee_sm.c:202
50006318:	e3003124 	movw	r3, #292	; 0x124
5000631c:	e3453000 	movt	r3, #20480	; 0x5000
50006320:	e12fff33 	blx	r3
/home/liwenhaosuper/data/trustkernel/tsee/tsee/tsee/tee/tsee_sm.c:203
50006324:	e3003110 	movw	r3, #272	; 0x110
50006328:	e3453000 	movt	r3, #20480	; 0x5000
5000632c:	e12fff33 	blx	r3
/home/liwenhaosuper/data/trustkernel/tsee/tsee/tsee/tee/tsee_sm.c:204
50006330:	e8bd8800 	pop	{fp, pc}

50006334 <unmap_tsee>:
unmap_tsee():
/home/liwenhaosuper/data/trustkernel/tsee/tsee/tsee/tee/tsee_sm.c:207
50006334:	e92d4800 	push	{fp, lr}
50006338:	e28db004 	add	fp, sp, #4
/home/liwenhaosuper/data/trustkernel/tsee/tsee/tsee/tee/tsee_sm.c:210
5000633c:	ee122f50 	mrc	15, 0, r2, cr2, cr0, {2}
50006340:	e30b3000 	movw	r3, #45056	; 0xb000
50006344:	e3453000 	movt	r3, #20480	; 0x5000
50006348:	e5832000 	str	r2, [r3]
/home/liwenhaosuper/data/trustkernel/tsee/tsee/tsee/tee/tsee_sm.c:211
5000634c:	ee122f10 	mrc	15, 0, r2, cr2, cr0, {0}
50006350:	e30b3000 	movw	r3, #45056	; 0xb000
50006354:	e3453000 	movt	r3, #20480	; 0x5000
50006358:	e5832004 	str	r2, [r3, #4]
/home/liwenhaosuper/data/trustkernel/tsee/tsee/tsee/tee/tsee_sm.c:212
5000635c:	ee122f30 	mrc	15, 0, r2, cr2, cr0, {1}
50006360:	e30b3000 	movw	r3, #45056	; 0xb000
50006364:	e3453000 	movt	r3, #20480	; 0x5000
50006368:	e5832008 	str	r2, [r3, #8]
/home/liwenhaosuper/data/trustkernel/tsee/tsee/tsee/tee/tsee_sm.c:213
5000636c:	ee112f10 	mrc	15, 0, r2, cr1, cr0, {0}
50006370:	e30b3000 	movw	r3, #45056	; 0xb000
50006374:	e3453000 	movt	r3, #20480	; 0x5000
50006378:	e583200c 	str	r2, [r3, #12]
/home/liwenhaosuper/data/trustkernel/tsee/tsee/tsee/tee/tsee_sm.c:216
5000637c:	e30b3018 	movw	r3, #45080	; 0xb018
50006380:	e3453000 	movt	r3, #20480	; 0x5000
50006384:	e5933000 	ldr	r3, [r3]
50006388:	ee023f50 	mcr	15, 0, r3, cr2, cr0, {2}
/home/liwenhaosuper/data/trustkernel/tsee/tsee/tsee/tee/tsee_sm.c:217
5000638c:	e30b3018 	movw	r3, #45080	; 0xb018
50006390:	e3453000 	movt	r3, #20480	; 0x5000
50006394:	e5933008 	ldr	r3, [r3, #8]
50006398:	ee023f30 	mcr	15, 0, r3, cr2, cr0, {1}
/home/liwenhaosuper/data/trustkernel/tsee/tsee/tsee/tee/tsee_sm.c:218
5000639c:	e30b3018 	movw	r3, #45080	; 0xb018
500063a0:	e3453000 	movt	r3, #20480	; 0x5000
500063a4:	e5933004 	ldr	r3, [r3, #4]
500063a8:	ee023f10 	mcr	15, 0, r3, cr2, cr0, {0}
/home/liwenhaosuper/data/trustkernel/tsee/tsee/tsee/tee/tsee_sm.c:219
500063ac:	e30b3018 	movw	r3, #45080	; 0xb018
500063b0:	e3453000 	movt	r3, #20480	; 0x5000
500063b4:	e593300c 	ldr	r3, [r3, #12]
500063b8:	ee013f10 	mcr	15, 0, r3, cr1, cr0, {0}
/home/liwenhaosuper/data/trustkernel/tsee/tsee/tsee/tee/tsee_sm.c:223
500063bc:	e3003124 	movw	r3, #292	; 0x124
500063c0:	e3453000 	movt	r3, #20480	; 0x5000
500063c4:	e12fff33 	blx	r3
/home/liwenhaosuper/data/trustkernel/tsee/tsee/tsee/tee/tsee_sm.c:224
500063c8:	e3003110 	movw	r3, #272	; 0x110
500063cc:	e3453000 	movt	r3, #20480	; 0x5000
500063d0:	e12fff33 	blx	r3
/home/liwenhaosuper/data/trustkernel/tsee/tsee/tsee/tee/tsee_sm.c:225
500063d4:	e8bd8800 	pop	{fp, pc}

500063d8 <dabort_handler>:
dabort_handler():
/home/liwenhaosuper/data/trustkernel/tsee/tsee/tsee/tee/tsee_fault.c:117
500063d8:	e92d4810 	push	{r4, fp, lr}
500063dc:	e28db008 	add	fp, sp, #8
500063e0:	e24dd034 	sub	sp, sp, #52	; 0x34
500063e4:	e50b0020 	str	r0, [fp, #-32]	; 0xffffffe0
/home/liwenhaosuper/data/trustkernel/tsee/tsee/tsee/tee/tsee_fault.c:121
500063e8:	ee154f10 	mrc	15, 0, r4, cr5, cr0, {0}
500063ec:	e50b4010 	str	r4, [fp, #-16]
/home/liwenhaosuper/data/trustkernel/tsee/tsee/tsee/tee/tsee_fault.c:124
500063f0:	ee164f10 	mrc	15, 0, r4, cr6, cr0, {0}
500063f4:	e50b4014 	str	r4, [fp, #-20]	; 0xffffffec
/home/liwenhaosuper/data/trustkernel/tsee/tsee/tsee/tee/tsee_fault.c:126
500063f8:	e51b3010 	ldr	r3, [fp, #-16]
500063fc:	e203200f 	and	r2, r3, #15
50006400:	e51b3010 	ldr	r3, [fp, #-16]
50006404:	e2033b01 	and	r3, r3, #1024	; 0x400
50006408:	e1a03323 	lsr	r3, r3, #6
5000640c:	e1823003 	orr	r3, r2, r3
50006410:	e50b3018 	str	r3, [fp, #-24]	; 0xffffffe8
/home/liwenhaosuper/data/trustkernel/tsee/tsee/tsee/tee/tsee_fault.c:127
50006414:	e51b3020 	ldr	r3, [fp, #-32]	; 0xffffffe0
50006418:	e5931044 	ldr	r1, [r3, #68]	; 0x44
5000641c:	e30c3098 	movw	r3, #49304	; 0xc098
50006420:	e3453000 	movt	r3, #20480	; 0x5000
50006424:	e51b2018 	ldr	r2, [fp, #-24]	; 0xffffffe8
50006428:	e7932102 	ldr	r2, [r3, r2, lsl #2]
5000642c:	e30a32d8 	movw	r3, #41688	; 0xa2d8
50006430:	e3453000 	movt	r3, #20480	; 0x5000
50006434:	e58d3000 	str	r3, [sp]
50006438:	e58d1004 	str	r1, [sp, #4]
5000643c:	e51b3014 	ldr	r3, [fp, #-20]	; 0xffffffec
50006440:	e58d3008 	str	r3, [sp, #8]
50006444:	e51b3010 	ldr	r3, [fp, #-16]
50006448:	e58d300c 	str	r3, [sp, #12]
5000644c:	e58d2010 	str	r2, [sp, #16]
50006450:	e30a0488 	movw	r0, #42120	; 0xa488
50006454:	e3450000 	movt	r0, #20480	; 0x5000
50006458:	e3a01080 	mov	r1, #128	; 0x80
5000645c:	e3a02001 	mov	r2, #1
50006460:	e3a03001 	mov	r3, #1
50006464:	e306cc80 	movw	ip, #27776	; 0x6c80
50006468:	e345c000 	movt	ip, #20480	; 0x5000
5000646c:	e12fff3c 	blx	ip
/home/liwenhaosuper/data/trustkernel/tsee/tsee/tsee/tee/tsee_fault.c:130
50006470:	e51b3018 	ldr	r3, [fp, #-24]	; 0xffffffe8
50006474:	e3530016 	cmp	r3, #22
50006478:	0a00000f 	beq	500064bc <dabort_handler+0xe4>
/home/liwenhaosuper/data/trustkernel/tsee/tsee/tsee/tee/tsee_fault.c:134
5000647c:	e51b0020 	ldr	r0, [fp, #-32]	; 0xffffffe0
50006480:	e306358c 	movw	r3, #25996	; 0x658c
50006484:	e3453000 	movt	r3, #20480	; 0x5000
50006488:	e12fff33 	blx	r3
/home/liwenhaosuper/data/trustkernel/tsee/tsee/tsee/tee/tsee_fault.c:135
5000648c:	e30a331c 	movw	r3, #41756	; 0xa31c
50006490:	e3453000 	movt	r3, #20480	; 0x5000
50006494:	e58d3000 	str	r3, [sp]
50006498:	e30a0488 	movw	r0, #42120	; 0xa488
5000649c:	e3450000 	movt	r0, #20480	; 0x5000
500064a0:	e3a01087 	mov	r1, #135	; 0x87
500064a4:	e3a02001 	mov	r2, #1
500064a8:	e3a03001 	mov	r3, #1
500064ac:	e306cc80 	movw	ip, #27776	; 0x6c80
500064b0:	e345c000 	movt	ip, #20480	; 0x5000
500064b4:	e12fff3c 	blx	ip
/home/liwenhaosuper/data/trustkernel/tsee/tsee/tsee/tee/tsee_fault.c:136
500064b8:	eafffffe 	b	500064b8 <dabort_handler+0xe0>
/home/liwenhaosuper/data/trustkernel/tsee/tsee/tsee/tee/tsee_fault.c:137
500064bc:	e24bd008 	sub	sp, fp, #8
500064c0:	e8bd8810 	pop	{r4, fp, pc}

500064c4 <iabort_handler>:
iabort_handler():
/home/liwenhaosuper/data/trustkernel/tsee/tsee/tsee/tee/tsee_fault.c:141
500064c4:	e92d4810 	push	{r4, fp, lr}
500064c8:	e28db008 	add	fp, sp, #8
500064cc:	e24dd024 	sub	sp, sp, #36	; 0x24
500064d0:	e50b0018 	str	r0, [fp, #-24]	; 0xffffffe8
/home/liwenhaosuper/data/trustkernel/tsee/tsee/tsee/tee/tsee_fault.c:145
500064d4:	ee154f10 	mrc	15, 0, r4, cr5, cr0, {0}
500064d8:	e50b4010 	str	r4, [fp, #-16]
/home/liwenhaosuper/data/trustkernel/tsee/tsee/tsee/tee/tsee_fault.c:147
500064dc:	e51b3010 	ldr	r3, [fp, #-16]
500064e0:	e203200f 	and	r2, r3, #15
500064e4:	e51b3010 	ldr	r3, [fp, #-16]
500064e8:	e2033b01 	and	r3, r3, #1024	; 0x400
500064ec:	e1a03323 	lsr	r3, r3, #6
500064f0:	e1823003 	orr	r3, r2, r3
500064f4:	e50b3014 	str	r3, [fp, #-20]	; 0xffffffec
/home/liwenhaosuper/data/trustkernel/tsee/tsee/tsee/tee/tsee_fault.c:148
500064f8:	e51b3018 	ldr	r3, [fp, #-24]	; 0xffffffe8
500064fc:	e5931044 	ldr	r1, [r3, #68]	; 0x44
50006500:	e30c3018 	movw	r3, #49176	; 0xc018
50006504:	e3453000 	movt	r3, #20480	; 0x5000
50006508:	e51b2014 	ldr	r2, [fp, #-20]	; 0xffffffec
5000650c:	e7932102 	ldr	r2, [r3, r2, lsl #2]
50006510:	e30a3328 	movw	r3, #41768	; 0xa328
50006514:	e3453000 	movt	r3, #20480	; 0x5000
50006518:	e58d3000 	str	r3, [sp]
5000651c:	e58d1004 	str	r1, [sp, #4]
50006520:	e51b3010 	ldr	r3, [fp, #-16]
50006524:	e58d3008 	str	r3, [sp, #8]
50006528:	e58d200c 	str	r2, [sp, #12]
5000652c:	e30a0478 	movw	r0, #42104	; 0xa478
50006530:	e3450000 	movt	r0, #20480	; 0x5000
50006534:	e3a01094 	mov	r1, #148	; 0x94
50006538:	e3a02001 	mov	r2, #1
5000653c:	e3a03001 	mov	r3, #1
50006540:	e306cc80 	movw	ip, #27776	; 0x6c80
50006544:	e345c000 	movt	ip, #20480	; 0x5000
50006548:	e12fff3c 	blx	ip
/home/liwenhaosuper/data/trustkernel/tsee/tsee/tsee/tee/tsee_fault.c:150
5000654c:	e51b0018 	ldr	r0, [fp, #-24]	; 0xffffffe8
50006550:	e306358c 	movw	r3, #25996	; 0x658c
50006554:	e3453000 	movt	r3, #20480	; 0x5000
50006558:	e12fff33 	blx	r3
/home/liwenhaosuper/data/trustkernel/tsee/tsee/tsee/tee/tsee_fault.c:152
5000655c:	e30a331c 	movw	r3, #41756	; 0xa31c
50006560:	e3453000 	movt	r3, #20480	; 0x5000
50006564:	e58d3000 	str	r3, [sp]
50006568:	e30a0478 	movw	r0, #42104	; 0xa478
5000656c:	e3450000 	movt	r0, #20480	; 0x5000
50006570:	e3a01098 	mov	r1, #152	; 0x98
50006574:	e3a02001 	mov	r2, #1
50006578:	e3a03001 	mov	r3, #1
5000657c:	e306cc80 	movw	ip, #27776	; 0x6c80
50006580:	e345c000 	movt	ip, #20480	; 0x5000
50006584:	e12fff3c 	blx	ip
/home/liwenhaosuper/data/trustkernel/tsee/tsee/tsee/tee/tsee_fault.c:153
50006588:	eafffffe 	b	50006588 <iabort_handler+0xc4>

5000658c <dump_trapframe>:
dump_trapframe():
/home/liwenhaosuper/data/trustkernel/tsee/tsee/tsee/tee/tsee_fault.c:157
5000658c:	e92d4800 	push	{fp, lr}
50006590:	e28db004 	add	fp, sp, #4
50006594:	e24dd010 	sub	sp, sp, #16
50006598:	e50b0008 	str	r0, [fp, #-8]
/home/liwenhaosuper/data/trustkernel/tsee/tsee/tsee/tee/tsee_fault.c:158
5000659c:	e51b3008 	ldr	r3, [fp, #-8]
500065a0:	e5932008 	ldr	r2, [r3, #8]
500065a4:	e30a3354 	movw	r3, #41812	; 0xa354
500065a8:	e3453000 	movt	r3, #20480	; 0x5000
500065ac:	e58d3000 	str	r3, [sp]
500065b0:	e58d2004 	str	r2, [sp, #4]
500065b4:	e30a0468 	movw	r0, #42088	; 0xa468
500065b8:	e3450000 	movt	r0, #20480	; 0x5000
500065bc:	e3a0109e 	mov	r1, #158	; 0x9e
500065c0:	e3a02001 	mov	r2, #1
500065c4:	e3a03001 	mov	r3, #1
500065c8:	e306cc80 	movw	ip, #27776	; 0x6c80
500065cc:	e345c000 	movt	ip, #20480	; 0x5000
500065d0:	e12fff3c 	blx	ip
/home/liwenhaosuper/data/trustkernel/tsee/tsee/tsee/tee/tsee_fault.c:159
500065d4:	e51b3008 	ldr	r3, [fp, #-8]
500065d8:	e593200c 	ldr	r2, [r3, #12]
500065dc:	e30a3364 	movw	r3, #41828	; 0xa364
500065e0:	e3453000 	movt	r3, #20480	; 0x5000
500065e4:	e58d3000 	str	r3, [sp]
500065e8:	e58d2004 	str	r2, [sp, #4]
500065ec:	e30a0468 	movw	r0, #42088	; 0xa468
500065f0:	e3450000 	movt	r0, #20480	; 0x5000
500065f4:	e3a0109f 	mov	r1, #159	; 0x9f
500065f8:	e3a02001 	mov	r2, #1
500065fc:	e3a03001 	mov	r3, #1
50006600:	e306cc80 	movw	ip, #27776	; 0x6c80
50006604:	e345c000 	movt	ip, #20480	; 0x5000
50006608:	e12fff3c 	blx	ip
/home/liwenhaosuper/data/trustkernel/tsee/tsee/tsee/tee/tsee_fault.c:160
5000660c:	e51b3008 	ldr	r3, [fp, #-8]
50006610:	e5932010 	ldr	r2, [r3, #16]
50006614:	e30a3374 	movw	r3, #41844	; 0xa374
50006618:	e3453000 	movt	r3, #20480	; 0x5000
5000661c:	e58d3000 	str	r3, [sp]
50006620:	e58d2004 	str	r2, [sp, #4]
50006624:	e30a0468 	movw	r0, #42088	; 0xa468
50006628:	e3450000 	movt	r0, #20480	; 0x5000
5000662c:	e3a010a0 	mov	r1, #160	; 0xa0
50006630:	e3a02001 	mov	r2, #1
50006634:	e3a03001 	mov	r3, #1
50006638:	e306cc80 	movw	ip, #27776	; 0x6c80
5000663c:	e345c000 	movt	ip, #20480	; 0x5000
50006640:	e12fff3c 	blx	ip
/home/liwenhaosuper/data/trustkernel/tsee/tsee/tsee/tee/tsee_fault.c:161
50006644:	e51b3008 	ldr	r3, [fp, #-8]
50006648:	e5932014 	ldr	r2, [r3, #20]
5000664c:	e30a3384 	movw	r3, #41860	; 0xa384
50006650:	e3453000 	movt	r3, #20480	; 0x5000
50006654:	e58d3000 	str	r3, [sp]
50006658:	e58d2004 	str	r2, [sp, #4]
5000665c:	e30a0468 	movw	r0, #42088	; 0xa468
50006660:	e3450000 	movt	r0, #20480	; 0x5000
50006664:	e3a010a1 	mov	r1, #161	; 0xa1
50006668:	e3a02001 	mov	r2, #1
5000666c:	e3a03001 	mov	r3, #1
50006670:	e306cc80 	movw	ip, #27776	; 0x6c80
50006674:	e345c000 	movt	ip, #20480	; 0x5000
50006678:	e12fff3c 	blx	ip
/home/liwenhaosuper/data/trustkernel/tsee/tsee/tsee/tee/tsee_fault.c:162
5000667c:	e51b3008 	ldr	r3, [fp, #-8]
50006680:	e5932018 	ldr	r2, [r3, #24]
50006684:	e30a3394 	movw	r3, #41876	; 0xa394
50006688:	e3453000 	movt	r3, #20480	; 0x5000
5000668c:	e58d3000 	str	r3, [sp]
50006690:	e58d2004 	str	r2, [sp, #4]
50006694:	e30a0468 	movw	r0, #42088	; 0xa468
50006698:	e3450000 	movt	r0, #20480	; 0x5000
5000669c:	e3a010a2 	mov	r1, #162	; 0xa2
500066a0:	e3a02001 	mov	r2, #1
500066a4:	e3a03001 	mov	r3, #1
500066a8:	e306cc80 	movw	ip, #27776	; 0x6c80
500066ac:	e345c000 	movt	ip, #20480	; 0x5000
500066b0:	e12fff3c 	blx	ip
/home/liwenhaosuper/data/trustkernel/tsee/tsee/tsee/tee/tsee_fault.c:163
500066b4:	e51b3008 	ldr	r3, [fp, #-8]
500066b8:	e593201c 	ldr	r2, [r3, #28]
500066bc:	e30a33a4 	movw	r3, #41892	; 0xa3a4
500066c0:	e3453000 	movt	r3, #20480	; 0x5000
500066c4:	e58d3000 	str	r3, [sp]
500066c8:	e58d2004 	str	r2, [sp, #4]
500066cc:	e30a0468 	movw	r0, #42088	; 0xa468
500066d0:	e3450000 	movt	r0, #20480	; 0x5000
500066d4:	e3a010a3 	mov	r1, #163	; 0xa3
500066d8:	e3a02001 	mov	r2, #1
500066dc:	e3a03001 	mov	r3, #1
500066e0:	e306cc80 	movw	ip, #27776	; 0x6c80
500066e4:	e345c000 	movt	ip, #20480	; 0x5000
500066e8:	e12fff3c 	blx	ip
/home/liwenhaosuper/data/trustkernel/tsee/tsee/tsee/tee/tsee_fault.c:164
500066ec:	e51b3008 	ldr	r3, [fp, #-8]
500066f0:	e5932020 	ldr	r2, [r3, #32]
500066f4:	e30a33b4 	movw	r3, #41908	; 0xa3b4
500066f8:	e3453000 	movt	r3, #20480	; 0x5000
500066fc:	e58d3000 	str	r3, [sp]
50006700:	e58d2004 	str	r2, [sp, #4]
50006704:	e30a0468 	movw	r0, #42088	; 0xa468
50006708:	e3450000 	movt	r0, #20480	; 0x5000
5000670c:	e3a010a4 	mov	r1, #164	; 0xa4
50006710:	e3a02001 	mov	r2, #1
50006714:	e3a03001 	mov	r3, #1
50006718:	e306cc80 	movw	ip, #27776	; 0x6c80
5000671c:	e345c000 	movt	ip, #20480	; 0x5000
50006720:	e12fff3c 	blx	ip
/home/liwenhaosuper/data/trustkernel/tsee/tsee/tsee/tee/tsee_fault.c:165
50006724:	e51b3008 	ldr	r3, [fp, #-8]
50006728:	e5932024 	ldr	r2, [r3, #36]	; 0x24
5000672c:	e30a33c4 	movw	r3, #41924	; 0xa3c4
50006730:	e3453000 	movt	r3, #20480	; 0x5000
50006734:	e58d3000 	str	r3, [sp]
50006738:	e58d2004 	str	r2, [sp, #4]
5000673c:	e30a0468 	movw	r0, #42088	; 0xa468
50006740:	e3450000 	movt	r0, #20480	; 0x5000
50006744:	e3a010a5 	mov	r1, #165	; 0xa5
50006748:	e3a02001 	mov	r2, #1
5000674c:	e3a03001 	mov	r3, #1
50006750:	e306cc80 	movw	ip, #27776	; 0x6c80
50006754:	e345c000 	movt	ip, #20480	; 0x5000
50006758:	e12fff3c 	blx	ip
/home/liwenhaosuper/data/trustkernel/tsee/tsee/tsee/tee/tsee_fault.c:166
5000675c:	e51b3008 	ldr	r3, [fp, #-8]
50006760:	e5932028 	ldr	r2, [r3, #40]	; 0x28
50006764:	e30a33d4 	movw	r3, #41940	; 0xa3d4
50006768:	e3453000 	movt	r3, #20480	; 0x5000
5000676c:	e58d3000 	str	r3, [sp]
50006770:	e58d2004 	str	r2, [sp, #4]
50006774:	e30a0468 	movw	r0, #42088	; 0xa468
50006778:	e3450000 	movt	r0, #20480	; 0x5000
5000677c:	e3a010a6 	mov	r1, #166	; 0xa6
50006780:	e3a02001 	mov	r2, #1
50006784:	e3a03001 	mov	r3, #1
50006788:	e306cc80 	movw	ip, #27776	; 0x6c80
5000678c:	e345c000 	movt	ip, #20480	; 0x5000
50006790:	e12fff3c 	blx	ip
/home/liwenhaosuper/data/trustkernel/tsee/tsee/tsee/tee/tsee_fault.c:167
50006794:	e51b3008 	ldr	r3, [fp, #-8]
50006798:	e593202c 	ldr	r2, [r3, #44]	; 0x2c
5000679c:	e30a33e4 	movw	r3, #41956	; 0xa3e4
500067a0:	e3453000 	movt	r3, #20480	; 0x5000
500067a4:	e58d3000 	str	r3, [sp]
500067a8:	e58d2004 	str	r2, [sp, #4]
500067ac:	e30a0468 	movw	r0, #42088	; 0xa468
500067b0:	e3450000 	movt	r0, #20480	; 0x5000
500067b4:	e3a010a7 	mov	r1, #167	; 0xa7
500067b8:	e3a02001 	mov	r2, #1
500067bc:	e3a03001 	mov	r3, #1
500067c0:	e306cc80 	movw	ip, #27776	; 0x6c80
500067c4:	e345c000 	movt	ip, #20480	; 0x5000
500067c8:	e12fff3c 	blx	ip
/home/liwenhaosuper/data/trustkernel/tsee/tsee/tsee/tee/tsee_fault.c:168
500067cc:	e51b3008 	ldr	r3, [fp, #-8]
500067d0:	e5932030 	ldr	r2, [r3, #48]	; 0x30
500067d4:	e30a33f4 	movw	r3, #41972	; 0xa3f4
500067d8:	e3453000 	movt	r3, #20480	; 0x5000
500067dc:	e58d3000 	str	r3, [sp]
500067e0:	e58d2004 	str	r2, [sp, #4]
500067e4:	e30a0468 	movw	r0, #42088	; 0xa468
500067e8:	e3450000 	movt	r0, #20480	; 0x5000
500067ec:	e3a010a8 	mov	r1, #168	; 0xa8
500067f0:	e3a02001 	mov	r2, #1
500067f4:	e3a03001 	mov	r3, #1
500067f8:	e306cc80 	movw	ip, #27776	; 0x6c80
500067fc:	e345c000 	movt	ip, #20480	; 0x5000
50006800:	e12fff3c 	blx	ip
/home/liwenhaosuper/data/trustkernel/tsee/tsee/tsee/tee/tsee_fault.c:169
50006804:	e51b3008 	ldr	r3, [fp, #-8]
50006808:	e5932034 	ldr	r2, [r3, #52]	; 0x34
5000680c:	e30a3404 	movw	r3, #41988	; 0xa404
50006810:	e3453000 	movt	r3, #20480	; 0x5000
50006814:	e58d3000 	str	r3, [sp]
50006818:	e58d2004 	str	r2, [sp, #4]
5000681c:	e30a0468 	movw	r0, #42088	; 0xa468
50006820:	e3450000 	movt	r0, #20480	; 0x5000
50006824:	e3a010a9 	mov	r1, #169	; 0xa9
50006828:	e3a02001 	mov	r2, #1
5000682c:	e3a03001 	mov	r3, #1
50006830:	e306cc80 	movw	ip, #27776	; 0x6c80
50006834:	e345c000 	movt	ip, #20480	; 0x5000
50006838:	e12fff3c 	blx	ip
/home/liwenhaosuper/data/trustkernel/tsee/tsee/tsee/tee/tsee_fault.c:170
5000683c:	e51b3008 	ldr	r3, [fp, #-8]
50006840:	e5932038 	ldr	r2, [r3, #56]	; 0x38
50006844:	e30a3414 	movw	r3, #42004	; 0xa414
50006848:	e3453000 	movt	r3, #20480	; 0x5000
5000684c:	e58d3000 	str	r3, [sp]
50006850:	e58d2004 	str	r2, [sp, #4]
50006854:	e30a0468 	movw	r0, #42088	; 0xa468
50006858:	e3450000 	movt	r0, #20480	; 0x5000
5000685c:	e3a010aa 	mov	r1, #170	; 0xaa
50006860:	e3a02001 	mov	r2, #1
50006864:	e3a03001 	mov	r3, #1
50006868:	e306cc80 	movw	ip, #27776	; 0x6c80
5000686c:	e345c000 	movt	ip, #20480	; 0x5000
50006870:	e12fff3c 	blx	ip
/home/liwenhaosuper/data/trustkernel/tsee/tsee/tsee/tee/tsee_fault.c:171
50006874:	e51b3008 	ldr	r3, [fp, #-8]
50006878:	e593203c 	ldr	r2, [r3, #60]	; 0x3c
5000687c:	e30a3424 	movw	r3, #42020	; 0xa424
50006880:	e3453000 	movt	r3, #20480	; 0x5000
50006884:	e58d3000 	str	r3, [sp]
50006888:	e58d2004 	str	r2, [sp, #4]
5000688c:	e30a0468 	movw	r0, #42088	; 0xa468
50006890:	e3450000 	movt	r0, #20480	; 0x5000
50006894:	e3a010ab 	mov	r1, #171	; 0xab
50006898:	e3a02001 	mov	r2, #1
5000689c:	e3a03001 	mov	r3, #1
500068a0:	e306cc80 	movw	ip, #27776	; 0x6c80
500068a4:	e345c000 	movt	ip, #20480	; 0x5000
500068a8:	e12fff3c 	blx	ip
/home/liwenhaosuper/data/trustkernel/tsee/tsee/tsee/tee/tsee_fault.c:172
500068ac:	e51b3008 	ldr	r3, [fp, #-8]
500068b0:	e5932040 	ldr	r2, [r3, #64]	; 0x40
500068b4:	e30a3434 	movw	r3, #42036	; 0xa434
500068b8:	e3453000 	movt	r3, #20480	; 0x5000
500068bc:	e58d3000 	str	r3, [sp]
500068c0:	e58d2004 	str	r2, [sp, #4]
500068c4:	e30a0468 	movw	r0, #42088	; 0xa468
500068c8:	e3450000 	movt	r0, #20480	; 0x5000
500068cc:	e3a010ac 	mov	r1, #172	; 0xac
500068d0:	e3a02001 	mov	r2, #1
500068d4:	e3a03001 	mov	r3, #1
500068d8:	e306cc80 	movw	ip, #27776	; 0x6c80
500068dc:	e345c000 	movt	ip, #20480	; 0x5000
500068e0:	e12fff3c 	blx	ip
/home/liwenhaosuper/data/trustkernel/tsee/tsee/tsee/tee/tsee_fault.c:173
500068e4:	e51b3008 	ldr	r3, [fp, #-8]
500068e8:	e5932044 	ldr	r2, [r3, #68]	; 0x44
500068ec:	e30a3444 	movw	r3, #42052	; 0xa444
500068f0:	e3453000 	movt	r3, #20480	; 0x5000
500068f4:	e58d3000 	str	r3, [sp]
500068f8:	e58d2004 	str	r2, [sp, #4]
500068fc:	e30a0468 	movw	r0, #42088	; 0xa468
50006900:	e3450000 	movt	r0, #20480	; 0x5000
50006904:	e3a010ad 	mov	r1, #173	; 0xad
50006908:	e3a02001 	mov	r2, #1
5000690c:	e3a03001 	mov	r3, #1
50006910:	e306cc80 	movw	ip, #27776	; 0x6c80
50006914:	e345c000 	movt	ip, #20480	; 0x5000
50006918:	e12fff3c 	blx	ip
/home/liwenhaosuper/data/trustkernel/tsee/tsee/tsee/tee/tsee_fault.c:174
5000691c:	e51b3008 	ldr	r3, [fp, #-8]
50006920:	e5932004 	ldr	r2, [r3, #4]
50006924:	e30a3454 	movw	r3, #42068	; 0xa454
50006928:	e3453000 	movt	r3, #20480	; 0x5000
5000692c:	e58d3000 	str	r3, [sp]
50006930:	e58d2004 	str	r2, [sp, #4]
50006934:	e30a0468 	movw	r0, #42088	; 0xa468
50006938:	e3450000 	movt	r0, #20480	; 0x5000
5000693c:	e3a010ae 	mov	r1, #174	; 0xae
50006940:	e3a02001 	mov	r2, #1
50006944:	e3a03001 	mov	r3, #1
50006948:	e306cc80 	movw	ip, #27776	; 0x6c80
5000694c:	e345c000 	movt	ip, #20480	; 0x5000
50006950:	e12fff3c 	blx	ip
/home/liwenhaosuper/data/trustkernel/tsee/tsee/tsee/tee/tsee_fault.c:175
50006954:	e24bd004 	sub	sp, fp, #4
50006958:	e8bd8800 	pop	{fp, pc}

5000695c <memset>:
memset():
/home/liwenhaosuper/data/trustkernel/tsee/tsee/lib/libutils/isoc/newlib/memset.c:87
5000695c:	e52db004 	push	{fp}		; (str fp, [sp, #-4]!)
50006960:	e28db000 	add	fp, sp, #0
50006964:	e24dd02c 	sub	sp, sp, #44	; 0x2c
50006968:	e50b0020 	str	r0, [fp, #-32]	; 0xffffffe0
5000696c:	e50b1024 	str	r1, [fp, #-36]	; 0xffffffdc
50006970:	e50b2028 	str	r2, [fp, #-40]	; 0xffffffd8
/home/liwenhaosuper/data/trustkernel/tsee/tsee/lib/libutils/isoc/newlib/memset.c:88
50006974:	e51b3020 	ldr	r3, [fp, #-32]	; 0xffffffe0
50006978:	e50b3008 	str	r3, [fp, #-8]
/home/liwenhaosuper/data/trustkernel/tsee/tsee/lib/libutils/isoc/newlib/memset.c:94
5000697c:	e51b3024 	ldr	r3, [fp, #-36]	; 0xffffffdc
50006980:	e20330ff 	and	r3, r3, #255	; 0xff
50006984:	e50b3018 	str	r3, [fp, #-24]	; 0xffffffe8
/home/liwenhaosuper/data/trustkernel/tsee/tsee/lib/libutils/isoc/newlib/memset.c:97
50006988:	ea000013 	b	500069dc <memset+0x80>
/home/liwenhaosuper/data/trustkernel/tsee/tsee/lib/libutils/isoc/newlib/memset.c:98
5000698c:	e51b3028 	ldr	r3, [fp, #-40]	; 0xffffffd8
50006990:	e3530000 	cmp	r3, #0
50006994:	03a03000 	moveq	r3, #0
50006998:	13a03001 	movne	r3, #1
5000699c:	e6ef3073 	uxtb	r3, r3
500069a0:	e51b2028 	ldr	r2, [fp, #-40]	; 0xffffffd8
500069a4:	e2422001 	sub	r2, r2, #1
500069a8:	e50b2028 	str	r2, [fp, #-40]	; 0xffffffd8
500069ac:	e3530000 	cmp	r3, #0
500069b0:	0a000007 	beq	500069d4 <memset+0x78>
/home/liwenhaosuper/data/trustkernel/tsee/tsee/lib/libutils/isoc/newlib/memset.c:99
500069b4:	e51b3024 	ldr	r3, [fp, #-36]	; 0xffffffdc
500069b8:	e6ef2073 	uxtb	r2, r3
500069bc:	e51b3008 	ldr	r3, [fp, #-8]
500069c0:	e5c32000 	strb	r2, [r3]
500069c4:	e51b3008 	ldr	r3, [fp, #-8]
500069c8:	e2833001 	add	r3, r3, #1
500069cc:	e50b3008 	str	r3, [fp, #-8]
500069d0:	ea000001 	b	500069dc <memset+0x80>
/home/liwenhaosuper/data/trustkernel/tsee/tsee/lib/libutils/isoc/newlib/memset.c:101
500069d4:	e51b3020 	ldr	r3, [fp, #-32]	; 0xffffffe0
500069d8:	ea000064 	b	50006b70 <memset+0x214>
/home/liwenhaosuper/data/trustkernel/tsee/tsee/lib/libutils/isoc/newlib/memset.c:97
500069dc:	e51b3008 	ldr	r3, [fp, #-8]
500069e0:	e2033003 	and	r3, r3, #3
500069e4:	e3530000 	cmp	r3, #0
500069e8:	1affffe7 	bne	5000698c <memset+0x30>
/home/liwenhaosuper/data/trustkernel/tsee/tsee/lib/libutils/isoc/newlib/memset.c:104
500069ec:	e51b3028 	ldr	r3, [fp, #-40]	; 0xffffffd8
500069f0:	e3530003 	cmp	r3, #3
500069f4:	9a000051 	bls	50006b40 <memset+0x1e4>
/home/liwenhaosuper/data/trustkernel/tsee/tsee/lib/libutils/isoc/newlib/memset.c:109
500069f8:	e51b3008 	ldr	r3, [fp, #-8]
500069fc:	e50b3014 	str	r3, [fp, #-20]	; 0xffffffec
/home/liwenhaosuper/data/trustkernel/tsee/tsee/lib/libutils/isoc/newlib/memset.c:113
50006a00:	e51b3018 	ldr	r3, [fp, #-24]	; 0xffffffe8
50006a04:	e1a02403 	lsl	r2, r3, #8
50006a08:	e51b3018 	ldr	r3, [fp, #-24]	; 0xffffffe8
50006a0c:	e1823003 	orr	r3, r2, r3
50006a10:	e50b3010 	str	r3, [fp, #-16]
/home/liwenhaosuper/data/trustkernel/tsee/tsee/lib/libutils/isoc/newlib/memset.c:114
50006a14:	e51b3010 	ldr	r3, [fp, #-16]
50006a18:	e1a03803 	lsl	r3, r3, #16
50006a1c:	e51b2010 	ldr	r2, [fp, #-16]
50006a20:	e1823003 	orr	r3, r2, r3
50006a24:	e50b3010 	str	r3, [fp, #-16]
/home/liwenhaosuper/data/trustkernel/tsee/tsee/lib/libutils/isoc/newlib/memset.c:115
50006a28:	e3a03020 	mov	r3, #32
50006a2c:	e50b300c 	str	r3, [fp, #-12]
50006a30:	ea000008 	b	50006a58 <memset+0xfc>
/home/liwenhaosuper/data/trustkernel/tsee/tsee/lib/libutils/isoc/newlib/memset.c:116
50006a34:	e51b2010 	ldr	r2, [fp, #-16]
50006a38:	e51b300c 	ldr	r3, [fp, #-12]
50006a3c:	e1a03312 	lsl	r3, r2, r3
50006a40:	e51b2010 	ldr	r2, [fp, #-16]
50006a44:	e1823003 	orr	r3, r2, r3
50006a48:	e50b3010 	str	r3, [fp, #-16]
/home/liwenhaosuper/data/trustkernel/tsee/tsee/lib/libutils/isoc/newlib/memset.c:115
50006a4c:	e51b300c 	ldr	r3, [fp, #-12]
50006a50:	e1a03083 	lsl	r3, r3, #1
50006a54:	e50b300c 	str	r3, [fp, #-12]
50006a58:	e51b300c 	ldr	r3, [fp, #-12]
50006a5c:	e353001f 	cmp	r3, #31
50006a60:	9afffff3 	bls	50006a34 <memset+0xd8>
/home/liwenhaosuper/data/trustkernel/tsee/tsee/lib/libutils/isoc/newlib/memset.c:119
50006a64:	ea00001a 	b	50006ad4 <memset+0x178>
/home/liwenhaosuper/data/trustkernel/tsee/tsee/lib/libutils/isoc/newlib/memset.c:120
50006a68:	e51b3014 	ldr	r3, [fp, #-20]	; 0xffffffec
50006a6c:	e51b2010 	ldr	r2, [fp, #-16]
50006a70:	e5832000 	str	r2, [r3]
50006a74:	e51b3014 	ldr	r3, [fp, #-20]	; 0xffffffec
50006a78:	e2833004 	add	r3, r3, #4
50006a7c:	e50b3014 	str	r3, [fp, #-20]	; 0xffffffec
/home/liwenhaosuper/data/trustkernel/tsee/tsee/lib/libutils/isoc/newlib/memset.c:121
50006a80:	e51b3014 	ldr	r3, [fp, #-20]	; 0xffffffec
50006a84:	e51b2010 	ldr	r2, [fp, #-16]
50006a88:	e5832000 	str	r2, [r3]
50006a8c:	e51b3014 	ldr	r3, [fp, #-20]	; 0xffffffec
50006a90:	e2833004 	add	r3, r3, #4
50006a94:	e50b3014 	str	r3, [fp, #-20]	; 0xffffffec
/home/liwenhaosuper/data/trustkernel/tsee/tsee/lib/libutils/isoc/newlib/memset.c:122
50006a98:	e51b3014 	ldr	r3, [fp, #-20]	; 0xffffffec
50006a9c:	e51b2010 	ldr	r2, [fp, #-16]
50006aa0:	e5832000 	str	r2, [r3]
50006aa4:	e51b3014 	ldr	r3, [fp, #-20]	; 0xffffffec
50006aa8:	e2833004 	add	r3, r3, #4
50006aac:	e50b3014 	str	r3, [fp, #-20]	; 0xffffffec
/home/liwenhaosuper/data/trustkernel/tsee/tsee/lib/libutils/isoc/newlib/memset.c:123
50006ab0:	e51b3014 	ldr	r3, [fp, #-20]	; 0xffffffec
50006ab4:	e51b2010 	ldr	r2, [fp, #-16]
50006ab8:	e5832000 	str	r2, [r3]
50006abc:	e51b3014 	ldr	r3, [fp, #-20]	; 0xffffffec
50006ac0:	e2833004 	add	r3, r3, #4
50006ac4:	e50b3014 	str	r3, [fp, #-20]	; 0xffffffec
/home/liwenhaosuper/data/trustkernel/tsee/tsee/lib/libutils/isoc/newlib/memset.c:124
50006ac8:	e51b3028 	ldr	r3, [fp, #-40]	; 0xffffffd8
50006acc:	e2433010 	sub	r3, r3, #16
50006ad0:	e50b3028 	str	r3, [fp, #-40]	; 0xffffffd8
/home/liwenhaosuper/data/trustkernel/tsee/tsee/lib/libutils/isoc/newlib/memset.c:119
50006ad4:	e51b3028 	ldr	r3, [fp, #-40]	; 0xffffffd8
50006ad8:	e353000f 	cmp	r3, #15
50006adc:	8affffe1 	bhi	50006a68 <memset+0x10c>
/home/liwenhaosuper/data/trustkernel/tsee/tsee/lib/libutils/isoc/newlib/memset.c:127
50006ae0:	ea000008 	b	50006b08 <memset+0x1ac>
/home/liwenhaosuper/data/trustkernel/tsee/tsee/lib/libutils/isoc/newlib/memset.c:128
50006ae4:	e51b3014 	ldr	r3, [fp, #-20]	; 0xffffffec
50006ae8:	e51b2010 	ldr	r2, [fp, #-16]
50006aec:	e5832000 	str	r2, [r3]
50006af0:	e51b3014 	ldr	r3, [fp, #-20]	; 0xffffffec
50006af4:	e2833004 	add	r3, r3, #4
50006af8:	e50b3014 	str	r3, [fp, #-20]	; 0xffffffec
/home/liwenhaosuper/data/trustkernel/tsee/tsee/lib/libutils/isoc/newlib/memset.c:129
50006afc:	e51b3028 	ldr	r3, [fp, #-40]	; 0xffffffd8
50006b00:	e2433004 	sub	r3, r3, #4
50006b04:	e50b3028 	str	r3, [fp, #-40]	; 0xffffffd8
/home/liwenhaosuper/data/trustkernel/tsee/tsee/lib/libutils/isoc/newlib/memset.c:127
50006b08:	e51b3028 	ldr	r3, [fp, #-40]	; 0xffffffd8
50006b0c:	e3530003 	cmp	r3, #3
50006b10:	8afffff3 	bhi	50006ae4 <memset+0x188>
/home/liwenhaosuper/data/trustkernel/tsee/tsee/lib/libutils/isoc/newlib/memset.c:132
50006b14:	e51b3014 	ldr	r3, [fp, #-20]	; 0xffffffec
50006b18:	e50b3008 	str	r3, [fp, #-8]
/home/liwenhaosuper/data/trustkernel/tsee/tsee/lib/libutils/isoc/newlib/memset.c:136
50006b1c:	ea000008 	b	50006b44 <memset+0x1e8>
/home/liwenhaosuper/data/trustkernel/tsee/tsee/lib/libutils/isoc/newlib/memset.c:137
50006b20:	e51b3024 	ldr	r3, [fp, #-36]	; 0xffffffdc
50006b24:	e6ef2073 	uxtb	r2, r3
50006b28:	e51b3008 	ldr	r3, [fp, #-8]
50006b2c:	e5c32000 	strb	r2, [r3]
50006b30:	e51b3008 	ldr	r3, [fp, #-8]
50006b34:	e2833001 	add	r3, r3, #1
50006b38:	e50b3008 	str	r3, [fp, #-8]
50006b3c:	ea000000 	b	50006b44 <memset+0x1e8>
/home/liwenhaosuper/data/trustkernel/tsee/tsee/lib/libutils/isoc/newlib/memset.c:136
50006b40:	e1a00000 	nop			; (mov r0, r0)
50006b44:	e51b3028 	ldr	r3, [fp, #-40]	; 0xffffffd8
50006b48:	e3530000 	cmp	r3, #0
50006b4c:	03a03000 	moveq	r3, #0
50006b50:	13a03001 	movne	r3, #1
50006b54:	e6ef3073 	uxtb	r3, r3
50006b58:	e51b2028 	ldr	r2, [fp, #-40]	; 0xffffffd8
50006b5c:	e2422001 	sub	r2, r2, #1
50006b60:	e50b2028 	str	r2, [fp, #-40]	; 0xffffffd8
50006b64:	e3530000 	cmp	r3, #0
50006b68:	1affffec 	bne	50006b20 <memset+0x1c4>
/home/liwenhaosuper/data/trustkernel/tsee/tsee/lib/libutils/isoc/newlib/memset.c:139
50006b6c:	e51b3020 	ldr	r3, [fp, #-32]	; 0xffffffe0
/home/liwenhaosuper/data/trustkernel/tsee/tsee/lib/libutils/isoc/newlib/memset.c:140
50006b70:	e1a00003 	mov	r0, r3
50006b74:	e28bd000 	add	sp, fp, #0
50006b78:	e49db004 	pop	{fp}		; (ldr fp, [sp], #4)
50006b7c:	e12fff1e 	bx	lr

50006b80 <trace_set_level>:
trace_set_level():
/home/liwenhaosuper/data/trustkernel/tsee/tsee/lib/libutils/ext/trace.c:26
50006b80:	e52db004 	push	{fp}		; (str fp, [sp, #-4]!)
50006b84:	e28db000 	add	fp, sp, #0
50006b88:	e24dd00c 	sub	sp, sp, #12
50006b8c:	e50b0008 	str	r0, [fp, #-8]
/home/liwenhaosuper/data/trustkernel/tsee/tsee/lib/libutils/ext/trace.c:27
50006b90:	e51b3008 	ldr	r3, [fp, #-8]
50006b94:	e3530000 	cmp	r3, #0
50006b98:	da000007 	ble	50006bbc <trace_set_level+0x3c>
50006b9c:	e51b3008 	ldr	r3, [fp, #-8]
50006ba0:	e3530004 	cmp	r3, #4
50006ba4:	ca000004 	bgt	50006bbc <trace_set_level+0x3c>
/home/liwenhaosuper/data/trustkernel/tsee/tsee/lib/libutils/ext/trace.c:28
50006ba8:	e30c3004 	movw	r3, #49156	; 0xc004
50006bac:	e3453000 	movt	r3, #20480	; 0x5000
50006bb0:	e51b2008 	ldr	r2, [fp, #-8]
50006bb4:	e5832000 	str	r2, [r3]
50006bb8:	ea000003 	b	50006bcc <trace_set_level+0x4c>
/home/liwenhaosuper/data/trustkernel/tsee/tsee/lib/libutils/ext/trace.c:30
50006bbc:	e30c3004 	movw	r3, #49156	; 0xc004
50006bc0:	e3453000 	movt	r3, #20480	; 0x5000
50006bc4:	e3a02004 	mov	r2, #4
50006bc8:	e5832000 	str	r2, [r3]
/home/liwenhaosuper/data/trustkernel/tsee/tsee/lib/libutils/ext/trace.c:31
50006bcc:	e28bd000 	add	sp, fp, #0
50006bd0:	e49db004 	pop	{fp}		; (ldr fp, [sp], #4)
50006bd4:	e12fff1e 	bx	lr

50006bd8 <trace_get_level>:
trace_get_level():
/home/liwenhaosuper/data/trustkernel/tsee/tsee/lib/libutils/ext/trace.c:34
50006bd8:	e52db004 	push	{fp}		; (str fp, [sp, #-4]!)
50006bdc:	e28db000 	add	fp, sp, #0
/home/liwenhaosuper/data/trustkernel/tsee/tsee/lib/libutils/ext/trace.c:35
50006be0:	e30c3004 	movw	r3, #49156	; 0xc004
50006be4:	e3453000 	movt	r3, #20480	; 0x5000
50006be8:	e5933000 	ldr	r3, [r3]
/home/liwenhaosuper/data/trustkernel/tsee/tsee/lib/libutils/ext/trace.c:36
50006bec:	e1a00003 	mov	r0, r3
50006bf0:	e28bd000 	add	sp, fp, #0
50006bf4:	e49db004 	pop	{fp}		; (ldr fp, [sp], #4)
50006bf8:	e12fff1e 	bx	lr

50006bfc <trace_level_to_string>:
trace_level_to_string():
/home/liwenhaosuper/data/trustkernel/tsee/tsee/lib/libutils/ext/trace.c:39
50006bfc:	e52db004 	push	{fp}		; (str fp, [sp, #-4]!)
50006c00:	e28db000 	add	fp, sp, #0
50006c04:	e24dd014 	sub	sp, sp, #20
50006c08:	e50b0010 	str	r0, [fp, #-16]
50006c0c:	e1a03001 	mov	r3, r1
50006c10:	e54b3011 	strb	r3, [fp, #-17]	; 0xffffffef
/home/liwenhaosuper/data/trustkernel/tsee/tsee/lib/libutils/ext/trace.c:42
50006c14:	e3a03000 	mov	r3, #0
50006c18:	e50b3008 	str	r3, [fp, #-8]
/home/liwenhaosuper/data/trustkernel/tsee/tsee/lib/libutils/ext/trace.c:44
50006c1c:	e55b3011 	ldrb	r3, [fp, #-17]	; 0xffffffef
50006c20:	e2233001 	eor	r3, r3, #1
50006c24:	e6ef3073 	uxtb	r3, r3
50006c28:	e3530000 	cmp	r3, #0
50006c2c:	0a000002 	beq	50006c3c <trace_level_to_string+0x40>
/home/liwenhaosuper/data/trustkernel/tsee/tsee/lib/libutils/ext/trace.c:45
50006c30:	e30a34cc 	movw	r3, #42188	; 0xa4cc
50006c34:	e3453000 	movt	r3, #20480	; 0x5000
50006c38:	ea00000c 	b	50006c70 <trace_level_to_string+0x74>
/home/liwenhaosuper/data/trustkernel/tsee/tsee/lib/libutils/ext/trace.c:47
50006c3c:	e51b3010 	ldr	r3, [fp, #-16]
50006c40:	e3530000 	cmp	r3, #0
50006c44:	da000004 	ble	50006c5c <trace_level_to_string+0x60>
50006c48:	e51b3010 	ldr	r3, [fp, #-16]
50006c4c:	e3530004 	cmp	r3, #4
50006c50:	ca000001 	bgt	50006c5c <trace_level_to_string+0x60>
/home/liwenhaosuper/data/trustkernel/tsee/tsee/lib/libutils/ext/trace.c:48
50006c54:	e51b3010 	ldr	r3, [fp, #-16]
50006c58:	e50b3008 	str	r3, [fp, #-8]
/home/liwenhaosuper/data/trustkernel/tsee/tsee/lib/libutils/ext/trace.c:50
50006c5c:	e30a3524 	movw	r3, #42276	; 0xa524
50006c60:	e3453000 	movt	r3, #20480	; 0x5000
50006c64:	e51b2008 	ldr	r2, [fp, #-8]
50006c68:	e1a02102 	lsl	r2, r2, #2
50006c6c:	e0833002 	add	r3, r3, r2
/home/liwenhaosuper/data/trustkernel/tsee/tsee/lib/libutils/ext/trace.c:51
50006c70:	e1a00003 	mov	r0, r3
50006c74:	e28bd000 	add	sp, fp, #0
50006c78:	e49db004 	pop	{fp}		; (ldr fp, [sp], #4)
50006c7c:	e12fff1e 	bx	lr

50006c80 <trace_printf>:
trace_printf():
/home/liwenhaosuper/data/trustkernel/tsee/tsee/lib/libutils/ext/trace.c:56
50006c80:	e92d4800 	push	{fp, lr}
50006c84:	e28db004 	add	fp, sp, #4
50006c88:	e24dde13 	sub	sp, sp, #304	; 0x130
50006c8c:	e50b0118 	str	r0, [fp, #-280]	; 0xfffffee8
50006c90:	e50b111c 	str	r1, [fp, #-284]	; 0xfffffee4
50006c94:	e50b2120 	str	r2, [fp, #-288]	; 0xfffffee0
50006c98:	e54b3121 	strb	r3, [fp, #-289]	; 0xfffffedf
/home/liwenhaosuper/data/trustkernel/tsee/tsee/lib/libutils/ext/trace.c:59
50006c9c:	e3a03000 	mov	r3, #0
50006ca0:	e50b3008 	str	r3, [fp, #-8]
/home/liwenhaosuper/data/trustkernel/tsee/tsee/lib/libutils/ext/trace.c:62
50006ca4:	e55b3121 	ldrb	r3, [fp, #-289]	; 0xfffffedf
50006ca8:	e3530000 	cmp	r3, #0
50006cac:	0a000005 	beq	50006cc8 <trace_printf+0x48>
50006cb0:	e30c3004 	movw	r3, #49156	; 0xc004
50006cb4:	e3453000 	movt	r3, #20480	; 0x5000
50006cb8:	e5933000 	ldr	r3, [r3]
50006cbc:	e51b2120 	ldr	r2, [fp, #-288]	; 0xfffffee0
50006cc0:	e1520003 	cmp	r2, r3
50006cc4:	ca000086 	bgt	50006ee4 <trace_printf+0x264>
/home/liwenhaosuper/data/trustkernel/tsee/tsee/lib/libutils/ext/trace.c:65
50006cc8:	e51b3118 	ldr	r3, [fp, #-280]	; 0xfffffee8
50006ccc:	e3530000 	cmp	r3, #0
50006cd0:	0a00003e 	beq	50006dd0 <trace_printf+0x150>
/home/liwenhaosuper/data/trustkernel/tsee/tsee/lib/libutils/ext/trace.c:66
50006cd4:	e3023410 	movw	r3, #9232	; 0x2410
50006cd8:	e3453000 	movt	r3, #20480	; 0x5000
50006cdc:	e12fff33 	blx	r3
50006ce0:	e50b0010 	str	r0, [fp, #-16]
/home/liwenhaosuper/data/trustkernel/tsee/tsee/lib/libutils/ext/trace.c:68
50006ce4:	e51b3010 	ldr	r3, [fp, #-16]
50006ce8:	e3530000 	cmp	r3, #0
50006cec:	ba00001a 	blt	50006d5c <trace_printf+0xdc>
/home/liwenhaosuper/data/trustkernel/tsee/tsee/lib/libutils/ext/trace.c:69
50006cf0:	e55b3121 	ldrb	r3, [fp, #-289]	; 0xfffffedf
50006cf4:	e51b0120 	ldr	r0, [fp, #-288]	; 0xfffffee0
50006cf8:	e1a01003 	mov	r1, r3
50006cfc:	e3063bfc 	movw	r3, #27644	; 0x6bfc
50006d00:	e3453000 	movt	r3, #20480	; 0x5000
50006d04:	e12fff33 	blx	r3
50006d08:	e1a0c000 	mov	ip, r0
50006d0c:	e24b2f45 	sub	r2, fp, #276	; 0x114
50006d10:	e51b3010 	ldr	r3, [fp, #-16]
50006d14:	e58d3000 	str	r3, [sp]
50006d18:	e3093564 	movw	r3, #38244	; 0x9564
50006d1c:	e3453000 	movt	r3, #20480	; 0x5000
50006d20:	e58d3004 	str	r3, [sp, #4]
50006d24:	e51b3118 	ldr	r3, [fp, #-280]	; 0xfffffee8
50006d28:	e58d3008 	str	r3, [sp, #8]
50006d2c:	e51b311c 	ldr	r3, [fp, #-284]	; 0xfffffee4
50006d30:	e58d300c 	str	r3, [sp, #12]
50006d34:	e1a00002 	mov	r0, r2
50006d38:	e3a01c01 	mov	r1, #256	; 0x100
50006d3c:	e30a24d0 	movw	r2, #42192	; 0xa4d0
50006d40:	e3452000 	movt	r2, #20480	; 0x5000
50006d44:	e1a0300c 	mov	r3, ip
50006d48:	e307c1d0 	movw	ip, #29136	; 0x71d0
50006d4c:	e345c000 	movt	ip, #20480	; 0x5000
50006d50:	e12fff3c 	blx	ip
50006d54:	e50b000c 	str	r0, [fp, #-12]
50006d58:	ea000017 	b	50006dbc <trace_printf+0x13c>
/home/liwenhaosuper/data/trustkernel/tsee/tsee/lib/libutils/ext/trace.c:74
50006d5c:	e55b3121 	ldrb	r3, [fp, #-289]	; 0xfffffedf
50006d60:	e51b0120 	ldr	r0, [fp, #-288]	; 0xfffffee0
50006d64:	e1a01003 	mov	r1, r3
50006d68:	e3063bfc 	movw	r3, #27644	; 0x6bfc
50006d6c:	e3453000 	movt	r3, #20480	; 0x5000
50006d70:	e12fff33 	blx	r3
50006d74:	e1a0c000 	mov	ip, r0
50006d78:	e24b2f45 	sub	r2, fp, #276	; 0x114
50006d7c:	e3093564 	movw	r3, #38244	; 0x9564
50006d80:	e3453000 	movt	r3, #20480	; 0x5000
50006d84:	e58d3000 	str	r3, [sp]
50006d88:	e51b3118 	ldr	r3, [fp, #-280]	; 0xfffffee8
50006d8c:	e58d3004 	str	r3, [sp, #4]
50006d90:	e51b311c 	ldr	r3, [fp, #-284]	; 0xfffffee4
50006d94:	e58d3008 	str	r3, [sp, #8]
50006d98:	e1a00002 	mov	r0, r2
50006d9c:	e3a01c01 	mov	r1, #256	; 0x100
50006da0:	e30a24e8 	movw	r2, #42216	; 0xa4e8
50006da4:	e3452000 	movt	r2, #20480	; 0x5000
50006da8:	e1a0300c 	mov	r3, ip
50006dac:	e307c1d0 	movw	ip, #29136	; 0x71d0
50006db0:	e345c000 	movt	ip, #20480	; 0x5000
50006db4:	e12fff3c 	blx	ip
50006db8:	e50b000c 	str	r0, [fp, #-12]
/home/liwenhaosuper/data/trustkernel/tsee/tsee/lib/libutils/ext/trace.c:77
50006dbc:	e51b300c 	ldr	r3, [fp, #-12]
50006dc0:	e3530000 	cmp	r3, #0
50006dc4:	ba000048 	blt	50006eec <trace_printf+0x26c>
/home/liwenhaosuper/data/trustkernel/tsee/tsee/lib/libutils/ext/trace.c:79
50006dc8:	e51b300c 	ldr	r3, [fp, #-12]
50006dcc:	e50b3008 	str	r3, [fp, #-8]
/home/liwenhaosuper/data/trustkernel/tsee/tsee/lib/libutils/ext/trace.c:82
50006dd0:	e28b3008 	add	r3, fp, #8
50006dd4:	e50b3014 	str	r3, [fp, #-20]	; 0xffffffec
/home/liwenhaosuper/data/trustkernel/tsee/tsee/lib/libutils/ext/trace.c:83
50006dd8:	e24b2f45 	sub	r2, fp, #276	; 0x114
50006ddc:	e51b3008 	ldr	r3, [fp, #-8]
50006de0:	e0822003 	add	r2, r2, r3
50006de4:	e51b3008 	ldr	r3, [fp, #-8]
50006de8:	e2633c01 	rsb	r3, r3, #256	; 0x100
50006dec:	e1a00002 	mov	r0, r2
50006df0:	e1a01003 	mov	r1, r3
50006df4:	e59b2004 	ldr	r2, [fp, #4]
50006df8:	e51b3014 	ldr	r3, [fp, #-20]	; 0xffffffec
50006dfc:	e307c228 	movw	ip, #29224	; 0x7228
50006e00:	e345c000 	movt	ip, #20480	; 0x5000
50006e04:	e12fff3c 	blx	ip
50006e08:	e50b000c 	str	r0, [fp, #-12]
/home/liwenhaosuper/data/trustkernel/tsee/tsee/lib/libutils/ext/trace.c:85
50006e0c:	e51b300c 	ldr	r3, [fp, #-12]
50006e10:	e3530000 	cmp	r3, #0
50006e14:	da000003 	ble	50006e28 <trace_printf+0x1a8>
/home/liwenhaosuper/data/trustkernel/tsee/tsee/lib/libutils/ext/trace.c:86
50006e18:	e51b300c 	ldr	r3, [fp, #-12]
50006e1c:	e51b2008 	ldr	r2, [fp, #-8]
50006e20:	e0823003 	add	r3, r2, r3
50006e24:	e50b3008 	str	r3, [fp, #-8]
/home/liwenhaosuper/data/trustkernel/tsee/tsee/lib/libutils/ext/trace.c:88
50006e28:	e51b3008 	ldr	r3, [fp, #-8]
50006e2c:	e35300ff 	cmp	r3, #255	; 0xff
50006e30:	9a00000a 	bls	50006e60 <trace_printf+0x1e0>
/home/liwenhaosuper/data/trustkernel/tsee/tsee/lib/libutils/ext/trace.c:89
50006e34:	e3a030fe 	mov	r3, #254	; 0xfe
50006e38:	e50b3008 	str	r3, [fp, #-8]
/home/liwenhaosuper/data/trustkernel/tsee/tsee/lib/libutils/ext/trace.c:91
50006e3c:	e30f3ef0 	movw	r3, #65264	; 0xfef0
50006e40:	e34f3fff 	movt	r3, #65535	; 0xffff
50006e44:	e51b2008 	ldr	r2, [fp, #-8]
50006e48:	e24b1004 	sub	r1, fp, #4
50006e4c:	e0812002 	add	r2, r1, r2
50006e50:	e0823003 	add	r3, r2, r3
50006e54:	e3a0200a 	mov	r2, #10
50006e58:	e5c32000 	strb	r2, [r3]
50006e5c:	ea00001a 	b	50006ecc <trace_printf+0x24c>
/home/liwenhaosuper/data/trustkernel/tsee/tsee/lib/libutils/ext/trace.c:92
50006e60:	e51b3008 	ldr	r3, [fp, #-8]
50006e64:	e2432001 	sub	r2, r3, #1
50006e68:	e30f3ef0 	movw	r3, #65264	; 0xfef0
50006e6c:	e34f3fff 	movt	r3, #65535	; 0xffff
50006e70:	e24b1004 	sub	r1, fp, #4
50006e74:	e0812002 	add	r2, r1, r2
50006e78:	e0823003 	add	r3, r2, r3
50006e7c:	e5d33000 	ldrb	r3, [r3]
50006e80:	e353000a 	cmp	r3, #10
50006e84:	0a000010 	beq	50006ecc <trace_printf+0x24c>
/home/liwenhaosuper/data/trustkernel/tsee/tsee/lib/libutils/ext/trace.c:94
50006e88:	e30f3ef0 	movw	r3, #65264	; 0xfef0
50006e8c:	e34f3fff 	movt	r3, #65535	; 0xffff
50006e90:	e51b2008 	ldr	r2, [fp, #-8]
50006e94:	e24b1004 	sub	r1, fp, #4
50006e98:	e0812002 	add	r2, r1, r2
50006e9c:	e0823003 	add	r3, r2, r3
50006ea0:	e3a0200a 	mov	r2, #10
50006ea4:	e5c32000 	strb	r2, [r3]
/home/liwenhaosuper/data/trustkernel/tsee/tsee/lib/libutils/ext/trace.c:95
50006ea8:	e51b3008 	ldr	r3, [fp, #-8]
50006eac:	e2832001 	add	r2, r3, #1
50006eb0:	e30f3ef0 	movw	r3, #65264	; 0xfef0
50006eb4:	e34f3fff 	movt	r3, #65535	; 0xffff
50006eb8:	e24b1004 	sub	r1, fp, #4
50006ebc:	e0812002 	add	r2, r1, r2
50006ec0:	e0823003 	add	r3, r2, r3
50006ec4:	e3a02000 	mov	r2, #0
50006ec8:	e5c32000 	strb	r2, [r3]
/home/liwenhaosuper/data/trustkernel/tsee/tsee/lib/libutils/ext/trace.c:98
50006ecc:	e24b3f45 	sub	r3, fp, #276	; 0x114
50006ed0:	e1a00003 	mov	r0, r3
50006ed4:	e30233a0 	movw	r3, #9120	; 0x23a0
50006ed8:	e3453000 	movt	r3, #20480	; 0x5000
50006edc:	e12fff33 	blx	r3
50006ee0:	ea000002 	b	50006ef0 <trace_printf+0x270>
/home/liwenhaosuper/data/trustkernel/tsee/tsee/lib/libutils/ext/trace.c:63
50006ee4:	e1a00000 	nop			; (mov r0, r0)
50006ee8:	ea000000 	b	50006ef0 <trace_printf+0x270>
/home/liwenhaosuper/data/trustkernel/tsee/tsee/lib/libutils/ext/trace.c:78
50006eec:	e1a00000 	nop			; (mov r0, r0)
/home/liwenhaosuper/data/trustkernel/tsee/tsee/lib/libutils/ext/trace.c:99
50006ef0:	e24bd004 	sub	sp, fp, #4
50006ef4:	e8bd8800 	pop	{fp, pc}

50006ef8 <append>:
append():
/home/liwenhaosuper/data/trustkernel/tsee/tsee/lib/libutils/ext/trace.c:133
50006ef8:	e92d000e 	push	{r1, r2, r3}
50006efc:	e92d4800 	push	{fp, lr}
50006f00:	e28db004 	add	fp, sp, #4
50006f04:	e24dd024 	sub	sp, sp, #36	; 0x24
50006f08:	e50b0024 	str	r0, [fp, #-36]	; 0xffffffdc
/home/liwenhaosuper/data/trustkernel/tsee/tsee/lib/libutils/ext/trace.c:138
50006f0c:	e51b3024 	ldr	r3, [fp, #-36]	; 0xffffffdc
50006f10:	e5933100 	ldr	r3, [r3, #256]	; 0x100
50006f14:	e3530000 	cmp	r3, #0
50006f18:	1a000002 	bne	50006f28 <append+0x30>
/home/liwenhaosuper/data/trustkernel/tsee/tsee/lib/libutils/ext/trace.c:139
50006f1c:	e51b2024 	ldr	r2, [fp, #-36]	; 0xffffffdc
50006f20:	e51b3024 	ldr	r3, [fp, #-36]	; 0xffffffdc
50006f24:	e5832100 	str	r2, [r3, #256]	; 0x100
/home/liwenhaosuper/data/trustkernel/tsee/tsee/lib/libutils/ext/trace.c:140
50006f28:	e51b3024 	ldr	r3, [fp, #-36]	; 0xffffffdc
50006f2c:	e1a02003 	mov	r2, r3
50006f30:	e51b3024 	ldr	r3, [fp, #-36]	; 0xffffffdc
50006f34:	e5933100 	ldr	r3, [r3, #256]	; 0x100
50006f38:	e0633002 	rsb	r3, r3, r2
50006f3c:	e2833c01 	add	r3, r3, #256	; 0x100
50006f40:	e50b300c 	str	r3, [fp, #-12]
/home/liwenhaosuper/data/trustkernel/tsee/tsee/lib/libutils/ext/trace.c:141
50006f44:	e28b3008 	add	r3, fp, #8
50006f48:	e50b301c 	str	r3, [fp, #-28]	; 0xffffffe4
/home/liwenhaosuper/data/trustkernel/tsee/tsee/lib/libutils/ext/trace.c:142
50006f4c:	e51b3024 	ldr	r3, [fp, #-36]	; 0xffffffdc
50006f50:	e5932100 	ldr	r2, [r3, #256]	; 0x100
50006f54:	e51b300c 	ldr	r3, [fp, #-12]
50006f58:	e1a00002 	mov	r0, r2
50006f5c:	e1a01003 	mov	r1, r3
50006f60:	e59b2004 	ldr	r2, [fp, #4]
50006f64:	e51b301c 	ldr	r3, [fp, #-28]	; 0xffffffe4
50006f68:	e307c228 	movw	ip, #29224	; 0x7228
50006f6c:	e345c000 	movt	ip, #20480	; 0x5000
50006f70:	e12fff3c 	blx	ip
50006f74:	e50b0010 	str	r0, [fp, #-16]
/home/liwenhaosuper/data/trustkernel/tsee/tsee/lib/libutils/ext/trace.c:144
50006f78:	e51b3010 	ldr	r3, [fp, #-16]
50006f7c:	e3530000 	cmp	r3, #0
50006f80:	aa000001 	bge	50006f8c <append+0x94>
/home/liwenhaosuper/data/trustkernel/tsee/tsee/lib/libutils/ext/trace.c:146
50006f84:	e3a03000 	mov	r3, #0
50006f88:	ea000014 	b	50006fe0 <append+0xe8>
/home/liwenhaosuper/data/trustkernel/tsee/tsee/lib/libutils/ext/trace.c:148
50006f8c:	e51b2010 	ldr	r2, [fp, #-16]
50006f90:	e51b300c 	ldr	r3, [fp, #-12]
50006f94:	e1520003 	cmp	r2, r3
50006f98:	ba000001 	blt	50006fa4 <append+0xac>
/home/liwenhaosuper/data/trustkernel/tsee/tsee/lib/libutils/ext/trace.c:150
50006f9c:	e3a03000 	mov	r3, #0
50006fa0:	ea00000e 	b	50006fe0 <append+0xe8>
/home/liwenhaosuper/data/trustkernel/tsee/tsee/lib/libutils/ext/trace.c:152
50006fa4:	e51b3024 	ldr	r3, [fp, #-36]	; 0xffffffdc
50006fa8:	e5932100 	ldr	r2, [r3, #256]	; 0x100
50006fac:	e51b300c 	ldr	r3, [fp, #-12]
50006fb0:	e50b3014 	str	r3, [fp, #-20]	; 0xffffffec
50006fb4:	e51b3010 	ldr	r3, [fp, #-16]
50006fb8:	e50b3018 	str	r3, [fp, #-24]	; 0xffffffe8
50006fbc:	e51b1018 	ldr	r1, [fp, #-24]	; 0xffffffe8
50006fc0:	e51b3014 	ldr	r3, [fp, #-20]	; 0xffffffec
50006fc4:	e1510003 	cmp	r1, r3
50006fc8:	b1a03001 	movlt	r3, r1
50006fcc:	a1a03003 	movge	r3, r3
50006fd0:	e0822003 	add	r2, r2, r3
50006fd4:	e51b3024 	ldr	r3, [fp, #-36]	; 0xffffffdc
50006fd8:	e5832100 	str	r2, [r3, #256]	; 0x100
/home/liwenhaosuper/data/trustkernel/tsee/tsee/lib/libutils/ext/trace.c:153
50006fdc:	e3a03001 	mov	r3, #1
/home/liwenhaosuper/data/trustkernel/tsee/tsee/lib/libutils/ext/trace.c:154
50006fe0:	e1a00003 	mov	r0, r3
50006fe4:	e24bd004 	sub	sp, fp, #4
50006fe8:	e8bd4800 	pop	{fp, lr}
50006fec:	e28dd00c 	add	sp, sp, #12
50006ff0:	e12fff1e 	bx	lr

50006ff4 <dhex_dump>:
dhex_dump():
/home/liwenhaosuper/data/trustkernel/tsee/tsee/lib/libutils/ext/trace.c:158
50006ff4:	e92d4800 	push	{fp, lr}
50006ff8:	e28db004 	add	fp, sp, #4
50006ffc:	e24ddf4a 	sub	sp, sp, #296	; 0x128
50007000:	e50b0118 	str	r0, [fp, #-280]	; 0xfffffee8
50007004:	e50b111c 	str	r1, [fp, #-284]	; 0xfffffee4
50007008:	e50b2120 	str	r2, [fp, #-288]	; 0xfffffee0
5000700c:	e50b3124 	str	r3, [fp, #-292]	; 0xfffffedc
/home/liwenhaosuper/data/trustkernel/tsee/tsee/lib/libutils/ext/trace.c:162
50007010:	e51b3124 	ldr	r3, [fp, #-292]	; 0xfffffedc
50007014:	e50b300c 	str	r3, [fp, #-12]
/home/liwenhaosuper/data/trustkernel/tsee/tsee/lib/libutils/ext/trace.c:164
50007018:	e30c3004 	movw	r3, #49156	; 0xc004
5000701c:	e3453000 	movt	r3, #20480	; 0x5000
50007020:	e5933000 	ldr	r3, [r3]
50007024:	e51b2120 	ldr	r2, [fp, #-288]	; 0xfffffee0
50007028:	e1520003 	cmp	r2, r3
5000702c:	ca000062 	bgt	500071bc <dhex_dump+0x1c8>
/home/liwenhaosuper/data/trustkernel/tsee/tsee/lib/libutils/ext/trace.c:165
50007030:	e3a03000 	mov	r3, #0
50007034:	e50b3014 	str	r3, [fp, #-20]	; 0xffffffec
/home/liwenhaosuper/data/trustkernel/tsee/tsee/lib/libutils/ext/trace.c:166
50007038:	e3a03000 	mov	r3, #0
5000703c:	e50b3008 	str	r3, [fp, #-8]
50007040:	ea00003c 	b	50007138 <dhex_dump+0x144>
/home/liwenhaosuper/data/trustkernel/tsee/tsee/lib/libutils/ext/trace.c:167
50007044:	e51b3008 	ldr	r3, [fp, #-8]
50007048:	e51b200c 	ldr	r2, [fp, #-12]
5000704c:	e0823003 	add	r3, r2, r3
50007050:	e5d33000 	ldrb	r3, [r3]
50007054:	e24b2f45 	sub	r2, fp, #276	; 0x114
50007058:	e1a00002 	mov	r0, r2
5000705c:	e30a14f8 	movw	r1, #42232	; 0xa4f8
50007060:	e3451000 	movt	r1, #20480	; 0x5000
50007064:	e1a02003 	mov	r2, r3
50007068:	e3063ef8 	movw	r3, #28408	; 0x6ef8
5000706c:	e3453000 	movt	r3, #20480	; 0x5000
50007070:	e12fff33 	blx	r3
50007074:	e50b0010 	str	r0, [fp, #-16]
/home/liwenhaosuper/data/trustkernel/tsee/tsee/lib/libutils/ext/trace.c:168
50007078:	e51b3010 	ldr	r3, [fp, #-16]
5000707c:	e3530000 	cmp	r3, #0
50007080:	0a000040 	beq	50007188 <dhex_dump+0x194>
/home/liwenhaosuper/data/trustkernel/tsee/tsee/lib/libutils/ext/trace.c:170
50007084:	e51b2008 	ldr	r2, [fp, #-8]
50007088:	e1a03fc2 	asr	r3, r2, #31
5000708c:	e1a03e23 	lsr	r3, r3, #28
50007090:	e0822003 	add	r2, r2, r3
50007094:	e202200f 	and	r2, r2, #15
50007098:	e0633002 	rsb	r3, r3, r2
5000709c:	e3530007 	cmp	r3, #7
500070a0:	1a00000b 	bne	500070d4 <dhex_dump+0xe0>
/home/liwenhaosuper/data/trustkernel/tsee/tsee/lib/libutils/ext/trace.c:171
500070a4:	e24b3f45 	sub	r3, fp, #276	; 0x114
500070a8:	e1a00003 	mov	r0, r3
500070ac:	e30a1500 	movw	r1, #42240	; 0xa500
500070b0:	e3451000 	movt	r1, #20480	; 0x5000
500070b4:	e3063ef8 	movw	r3, #28408	; 0x6ef8
500070b8:	e3453000 	movt	r3, #20480	; 0x5000
500070bc:	e12fff33 	blx	r3
500070c0:	e50b0010 	str	r0, [fp, #-16]
/home/liwenhaosuper/data/trustkernel/tsee/tsee/lib/libutils/ext/trace.c:172
500070c4:	e51b3010 	ldr	r3, [fp, #-16]
500070c8:	e3530000 	cmp	r3, #0
500070cc:	1a000016 	bne	5000712c <dhex_dump+0x138>
/home/liwenhaosuper/data/trustkernel/tsee/tsee/lib/libutils/ext/trace.c:173
500070d0:	ea00002d 	b	5000718c <dhex_dump+0x198>
/home/liwenhaosuper/data/trustkernel/tsee/tsee/lib/libutils/ext/trace.c:174
500070d4:	e51b2008 	ldr	r2, [fp, #-8]
500070d8:	e1a03fc2 	asr	r3, r2, #31
500070dc:	e1a03e23 	lsr	r3, r3, #28
500070e0:	e0822003 	add	r2, r2, r3
500070e4:	e202200f 	and	r2, r2, #15
500070e8:	e0633002 	rsb	r3, r3, r2
500070ec:	e353000f 	cmp	r3, #15
500070f0:	1a00000d 	bne	5000712c <dhex_dump+0x138>
/home/liwenhaosuper/data/trustkernel/tsee/tsee/lib/libutils/ext/trace.c:175
500070f4:	e30a3504 	movw	r3, #42244	; 0xa504
500070f8:	e3453000 	movt	r3, #20480	; 0x5000
500070fc:	e58d3000 	str	r3, [sp]
50007100:	e24b3f45 	sub	r3, fp, #276	; 0x114
50007104:	e58d3004 	str	r3, [sp, #4]
50007108:	e51b0118 	ldr	r0, [fp, #-280]	; 0xfffffee8
5000710c:	e51b111c 	ldr	r1, [fp, #-284]	; 0xfffffee4
50007110:	e51b2120 	ldr	r2, [fp, #-288]	; 0xfffffee0
50007114:	e3a03001 	mov	r3, #1
50007118:	e306cc80 	movw	ip, #27776	; 0x6c80
5000711c:	e345c000 	movt	ip, #20480	; 0x5000
50007120:	e12fff3c 	blx	ip
/home/liwenhaosuper/data/trustkernel/tsee/tsee/lib/libutils/ext/trace.c:177
50007124:	e3a03000 	mov	r3, #0
50007128:	e50b3014 	str	r3, [fp, #-20]	; 0xffffffec
/home/liwenhaosuper/data/trustkernel/tsee/tsee/lib/libutils/ext/trace.c:166
5000712c:	e51b3008 	ldr	r3, [fp, #-8]
50007130:	e2833001 	add	r3, r3, #1
50007134:	e50b3008 	str	r3, [fp, #-8]
50007138:	e51b2008 	ldr	r2, [fp, #-8]
5000713c:	e59b3004 	ldr	r3, [fp, #4]
50007140:	e1520003 	cmp	r2, r3
50007144:	baffffbe 	blt	50007044 <dhex_dump+0x50>
/home/liwenhaosuper/data/trustkernel/tsee/tsee/lib/libutils/ext/trace.c:180
50007148:	e51b3014 	ldr	r3, [fp, #-20]	; 0xffffffec
5000714c:	e3530000 	cmp	r3, #0
50007150:	0a00001b 	beq	500071c4 <dhex_dump+0x1d0>
/home/liwenhaosuper/data/trustkernel/tsee/tsee/lib/libutils/ext/trace.c:182
50007154:	e30a3504 	movw	r3, #42244	; 0xa504
50007158:	e3453000 	movt	r3, #20480	; 0x5000
5000715c:	e58d3000 	str	r3, [sp]
50007160:	e24b3f45 	sub	r3, fp, #276	; 0x114
50007164:	e58d3004 	str	r3, [sp, #4]
50007168:	e51b0118 	ldr	r0, [fp, #-280]	; 0xfffffee8
5000716c:	e51b111c 	ldr	r1, [fp, #-284]	; 0xfffffee4
50007170:	e51b2120 	ldr	r2, [fp, #-288]	; 0xfffffee0
50007174:	e3a03001 	mov	r3, #1
50007178:	e306cc80 	movw	ip, #27776	; 0x6c80
5000717c:	e345c000 	movt	ip, #20480	; 0x5000
50007180:	e12fff3c 	blx	ip
/home/liwenhaosuper/data/trustkernel/tsee/tsee/lib/libutils/ext/trace.c:187
50007184:	ea00000f 	b	500071c8 <dhex_dump+0x1d4>
/home/liwenhaosuper/data/trustkernel/tsee/tsee/lib/libutils/ext/trace.c:169
50007188:	e1a00000 	nop			; (mov r0, r0)
/home/liwenhaosuper/data/trustkernel/tsee/tsee/lib/libutils/ext/trace.c:189
5000718c:	e30a3508 	movw	r3, #42248	; 0xa508
50007190:	e3453000 	movt	r3, #20480	; 0x5000
50007194:	e58d3000 	str	r3, [sp]
50007198:	e30a0518 	movw	r0, #42264	; 0xa518
5000719c:	e3450000 	movt	r0, #20480	; 0x5000
500071a0:	e3a010bd 	mov	r1, #189	; 0xbd
500071a4:	e3a02003 	mov	r2, #3
500071a8:	e3a03001 	mov	r3, #1
500071ac:	e306cc80 	movw	ip, #27776	; 0x6c80
500071b0:	e345c000 	movt	ip, #20480	; 0x5000
500071b4:	e12fff3c 	blx	ip
500071b8:	ea000002 	b	500071c8 <dhex_dump+0x1d4>
/home/liwenhaosuper/data/trustkernel/tsee/tsee/lib/libutils/ext/trace.c:187
500071bc:	e1a00000 	nop			; (mov r0, r0)
500071c0:	ea000000 	b	500071c8 <dhex_dump+0x1d4>
500071c4:	e1a00000 	nop			; (mov r0, r0)
/home/liwenhaosuper/data/trustkernel/tsee/tsee/lib/libutils/ext/trace.c:190
500071c8:	e24bd004 	sub	sp, fp, #4
500071cc:	e8bd8800 	pop	{fp, pc}

500071d0 <snprintf>:
snprintf():
/home/liwenhaosuper/data/trustkernel/tsee/tsee/lib/libutils/isoc/snprintf.c:98
500071d0:	e92d000c 	push	{r2, r3}
500071d4:	e92d4800 	push	{fp, lr}
500071d8:	e28db004 	add	fp, sp, #4
500071dc:	e24dd010 	sub	sp, sp, #16
500071e0:	e50b0010 	str	r0, [fp, #-16]
500071e4:	e50b1014 	str	r1, [fp, #-20]	; 0xffffffec
/home/liwenhaosuper/data/trustkernel/tsee/tsee/lib/libutils/isoc/snprintf.c:102
500071e8:	e28b3008 	add	r3, fp, #8
500071ec:	e50b300c 	str	r3, [fp, #-12]
/home/liwenhaosuper/data/trustkernel/tsee/tsee/lib/libutils/isoc/snprintf.c:103
500071f0:	e51b0010 	ldr	r0, [fp, #-16]
500071f4:	e51b1014 	ldr	r1, [fp, #-20]	; 0xffffffec
500071f8:	e59b2004 	ldr	r2, [fp, #4]
500071fc:	e51b300c 	ldr	r3, [fp, #-12]
50007200:	e307c228 	movw	ip, #29224	; 0x7228
50007204:	e345c000 	movt	ip, #20480	; 0x5000
50007208:	e12fff3c 	blx	ip
5000720c:	e50b0008 	str	r0, [fp, #-8]
/home/liwenhaosuper/data/trustkernel/tsee/tsee/lib/libutils/isoc/snprintf.c:106
50007210:	e51b3008 	ldr	r3, [fp, #-8]
/home/liwenhaosuper/data/trustkernel/tsee/tsee/lib/libutils/isoc/snprintf.c:107
50007214:	e1a00003 	mov	r0, r3
50007218:	e24bd004 	sub	sp, fp, #4
5000721c:	e8bd4800 	pop	{fp, lr}
50007220:	e28dd008 	add	sp, sp, #8
50007224:	e12fff1e 	bx	lr

50007228 <vsnprintf>:
vsnprintf():
/home/liwenhaosuper/data/trustkernel/tsee/tsee/lib/libutils/isoc/snprintf.c:114
50007228:	e92d4800 	push	{fp, lr}
5000722c:	e28db004 	add	fp, sp, #4
50007230:	e24dd020 	sub	sp, sp, #32
50007234:	e50b0010 	str	r0, [fp, #-16]
50007238:	e50b1014 	str	r1, [fp, #-20]	; 0xffffffec
5000723c:	e50b2018 	str	r2, [fp, #-24]	; 0xffffffe8
50007240:	e50b301c 	str	r3, [fp, #-28]	; 0xffffffe4
/home/liwenhaosuper/data/trustkernel/tsee/tsee/lib/libutils/isoc/snprintf.c:118
50007244:	e51b2010 	ldr	r2, [fp, #-16]
50007248:	e51b3014 	ldr	r3, [fp, #-20]	; 0xffffffec
5000724c:	e0823003 	add	r3, r2, r3
50007250:	e50b300c 	str	r3, [fp, #-12]
/home/liwenhaosuper/data/trustkernel/tsee/tsee/lib/libutils/isoc/snprintf.c:119
50007254:	e24b300c 	sub	r3, fp, #12
50007258:	e51b201c 	ldr	r2, [fp, #-28]	; 0xffffffe4
5000725c:	e58d2000 	str	r2, [sp]
50007260:	e51b0018 	ldr	r0, [fp, #-24]	; 0xffffffe8
50007264:	e3a01008 	mov	r1, #8
50007268:	e1a02003 	mov	r2, r3
5000726c:	e51b3010 	ldr	r3, [fp, #-16]
50007270:	e307c2e8 	movw	ip, #29416	; 0x72e8
50007274:	e345c000 	movt	ip, #20480	; 0x5000
50007278:	e12fff3c 	blx	ip
5000727c:	e50b0008 	str	r0, [fp, #-8]
/home/liwenhaosuper/data/trustkernel/tsee/tsee/lib/libutils/isoc/snprintf.c:120
50007280:	e51b3010 	ldr	r3, [fp, #-16]
50007284:	e3530000 	cmp	r3, #0
50007288:	0a000012 	beq	500072d8 <vsnprintf+0xb0>
5000728c:	e51b3014 	ldr	r3, [fp, #-20]	; 0xffffffec
50007290:	e3530000 	cmp	r3, #0
50007294:	0a00000f 	beq	500072d8 <vsnprintf+0xb0>
/home/liwenhaosuper/data/trustkernel/tsee/tsee/lib/libutils/isoc/snprintf.c:122
50007298:	e51b2008 	ldr	r2, [fp, #-8]
5000729c:	e51b3014 	ldr	r3, [fp, #-20]	; 0xffffffec
500072a0:	e1520003 	cmp	r2, r3
500072a4:	3a000006 	bcc	500072c4 <vsnprintf+0x9c>
/home/liwenhaosuper/data/trustkernel/tsee/tsee/lib/libutils/isoc/snprintf.c:123
500072a8:	e51b3014 	ldr	r3, [fp, #-20]	; 0xffffffec
500072ac:	e2433001 	sub	r3, r3, #1
500072b0:	e51b2010 	ldr	r2, [fp, #-16]
500072b4:	e0823003 	add	r3, r2, r3
500072b8:	e3a02000 	mov	r2, #0
500072bc:	e5c32000 	strb	r2, [r3]
500072c0:	ea000004 	b	500072d8 <vsnprintf+0xb0>
/home/liwenhaosuper/data/trustkernel/tsee/tsee/lib/libutils/isoc/snprintf.c:125
500072c4:	e51b3008 	ldr	r3, [fp, #-8]
500072c8:	e51b2010 	ldr	r2, [fp, #-16]
500072cc:	e0823003 	add	r3, r2, r3
500072d0:	e3a02000 	mov	r2, #0
500072d4:	e5c32000 	strb	r2, [r3]
/home/liwenhaosuper/data/trustkernel/tsee/tsee/lib/libutils/isoc/snprintf.c:127
500072d8:	e51b3008 	ldr	r3, [fp, #-8]
/home/liwenhaosuper/data/trustkernel/tsee/tsee/lib/libutils/isoc/snprintf.c:128
500072dc:	e1a00003 	mov	r0, r3
500072e0:	e24bd004 	sub	sp, fp, #4
500072e4:	e8bd8800 	pop	{fp, pc}

500072e8 <kprintf>:
kprintf():
/home/liwenhaosuper/data/trustkernel/tsee/tsee/lib/libutils/isoc/snprintf.c:196
500072e8:	e92d4800 	push	{fp, lr}
500072ec:	e28db004 	add	fp, sp, #4
500072f0:	e24dd078 	sub	sp, sp, #120	; 0x78
500072f4:	e50b0070 	str	r0, [fp, #-112]	; 0xffffff90
500072f8:	e50b1074 	str	r1, [fp, #-116]	; 0xffffff8c
500072fc:	e50b2078 	str	r2, [fp, #-120]	; 0xffffff88
50007300:	e50b307c 	str	r3, [fp, #-124]	; 0xffffff84
/home/liwenhaosuper/data/trustkernel/tsee/tsee/lib/libutils/isoc/snprintf.c:216
50007304:	e51b3074 	ldr	r3, [fp, #-116]	; 0xffffff8c
50007308:	e3530008 	cmp	r3, #8
5000730c:	1a000006 	bne	5000732c <kprintf+0x44>
50007310:	e51b3078 	ldr	r3, [fp, #-120]	; 0xffffff88
50007314:	e3530000 	cmp	r3, #0
50007318:	0a000003 	beq	5000732c <kprintf+0x44>
/home/liwenhaosuper/data/trustkernel/tsee/tsee/lib/libutils/isoc/snprintf.c:217
5000731c:	e51b3078 	ldr	r3, [fp, #-120]	; 0xffffff88
50007320:	e5933000 	ldr	r3, [r3]
50007324:	e50b304c 	str	r3, [fp, #-76]	; 0xffffffb4
50007328:	ea000001 	b	50007334 <kprintf+0x4c>
/home/liwenhaosuper/data/trustkernel/tsee/tsee/lib/libutils/isoc/snprintf.c:219
5000732c:	e3a03000 	mov	r3, #0
50007330:	e50b304c 	str	r3, [fp, #-76]	; 0xffffffb4
/home/liwenhaosuper/data/trustkernel/tsee/tsee/lib/libutils/isoc/snprintf.c:221
50007334:	e3a03000 	mov	r3, #0
50007338:	e50b3014 	str	r3, [fp, #-20]	; 0xffffffec
/home/liwenhaosuper/data/trustkernel/tsee/tsee/lib/libutils/isoc/snprintf.c:222
5000733c:	e3a03000 	mov	r3, #0
50007340:	e50b3044 	str	r3, [fp, #-68]	; 0xffffffbc
/home/liwenhaosuper/data/trustkernel/tsee/tsee/lib/libutils/isoc/snprintf.c:224
50007344:	e51b3070 	ldr	r3, [fp, #-112]	; 0xffffff90
50007348:	e50b3008 	str	r3, [fp, #-8]
/home/liwenhaosuper/data/trustkernel/tsee/tsee/lib/libutils/isoc/snprintf.c:225
5000734c:	e3a03000 	mov	r3, #0
50007350:	e50b301c 	str	r3, [fp, #-28]	; 0xffffffe4
/home/liwenhaosuper/data/trustkernel/tsee/tsee/lib/libutils/isoc/snprintf.c:227
50007354:	e3a03000 	mov	r3, #0
50007358:	e50b3048 	str	r3, [fp, #-72]	; 0xffffffb8
/home/liwenhaosuper/data/trustkernel/tsee/tsee/lib/libutils/isoc/snprintf.c:233
5000735c:	ea000019 	b	500073c8 <kprintf+0xe0>
/home/liwenhaosuper/data/trustkernel/tsee/tsee/lib/libutils/isoc/snprintf.c:234
50007360:	e51b301c 	ldr	r3, [fp, #-28]	; 0xffffffe4
50007364:	e2833001 	add	r3, r3, #1
50007368:	e50b301c 	str	r3, [fp, #-28]	; 0xffffffe4
/home/liwenhaosuper/data/trustkernel/tsee/tsee/lib/libutils/isoc/snprintf.c:235
5000736c:	e51b3074 	ldr	r3, [fp, #-116]	; 0xffffff8c
50007370:	e3530008 	cmp	r3, #8
50007374:	1a000010 	bne	500073bc <kprintf+0xd4>
50007378:	e51b307c 	ldr	r3, [fp, #-124]	; 0xffffff84
5000737c:	e3530000 	cmp	r3, #0
50007380:	0a00000d 	beq	500073bc <kprintf+0xd4>
50007384:	e51b3078 	ldr	r3, [fp, #-120]	; 0xffffff88
50007388:	e3530000 	cmp	r3, #0
5000738c:	0a000003 	beq	500073a0 <kprintf+0xb8>
50007390:	e51b207c 	ldr	r2, [fp, #-124]	; 0xffffff84
50007394:	e51b304c 	ldr	r3, [fp, #-76]	; 0xffffffb4
50007398:	e1520003 	cmp	r2, r3
5000739c:	2a000006 	bcs	500073bc <kprintf+0xd4>
500073a0:	e51b3008 	ldr	r3, [fp, #-8]
500073a4:	e5d32000 	ldrb	r2, [r3]
500073a8:	e51b307c 	ldr	r3, [fp, #-124]	; 0xffffff84
500073ac:	e5c32000 	strb	r2, [r3]
500073b0:	e51b307c 	ldr	r3, [fp, #-124]	; 0xffffff84
500073b4:	e2833001 	add	r3, r3, #1
500073b8:	e50b307c 	str	r3, [fp, #-124]	; 0xffffff84
/home/liwenhaosuper/data/trustkernel/tsee/tsee/lib/libutils/isoc/snprintf.c:233
500073bc:	e51b3008 	ldr	r3, [fp, #-8]
500073c0:	e2833001 	add	r3, r3, #1
500073c4:	e50b3008 	str	r3, [fp, #-8]
500073c8:	e51b3008 	ldr	r3, [fp, #-8]
500073cc:	e5d33000 	ldrb	r3, [r3]
500073d0:	e3530025 	cmp	r3, #37	; 0x25
500073d4:	0a000003 	beq	500073e8 <kprintf+0x100>
500073d8:	e51b3008 	ldr	r3, [fp, #-8]
500073dc:	e5d33000 	ldrb	r3, [r3]
500073e0:	e3530000 	cmp	r3, #0
500073e4:	1affffdd 	bne	50007360 <kprintf+0x78>
/home/liwenhaosuper/data/trustkernel/tsee/tsee/lib/libutils/isoc/snprintf.c:237
500073e8:	e51b3008 	ldr	r3, [fp, #-8]
500073ec:	e5d33000 	ldrb	r3, [r3]
500073f0:	e3530000 	cmp	r3, #0
500073f4:	0a0004c1 	beq	50008700 <kprintf+0x1418>
/home/liwenhaosuper/data/trustkernel/tsee/tsee/lib/libutils/isoc/snprintf.c:240
500073f8:	e51b3008 	ldr	r3, [fp, #-8]
500073fc:	e2833001 	add	r3, r3, #1
50007400:	e50b3008 	str	r3, [fp, #-8]
/home/liwenhaosuper/data/trustkernel/tsee/tsee/lib/libutils/isoc/snprintf.c:242
50007404:	e3a03000 	mov	r3, #0
50007408:	e50b3018 	str	r3, [fp, #-24]	; 0xffffffe8
/home/liwenhaosuper/data/trustkernel/tsee/tsee/lib/libutils/isoc/snprintf.c:243
5000740c:	e3a03000 	mov	r3, #0
50007410:	e50b303c 	str	r3, [fp, #-60]	; 0xffffffc4
/home/liwenhaosuper/data/trustkernel/tsee/tsee/lib/libutils/isoc/snprintf.c:244
50007414:	e3a03000 	mov	r3, #0
50007418:	e50b3020 	str	r3, [fp, #-32]	; 0xffffffe0
/home/liwenhaosuper/data/trustkernel/tsee/tsee/lib/libutils/isoc/snprintf.c:245
5000741c:	e3e03000 	mvn	r3, #0
50007420:	e50b3024 	str	r3, [fp, #-36]	; 0xffffffdc
/home/liwenhaosuper/data/trustkernel/tsee/tsee/lib/libutils/isoc/snprintf.c:246
50007424:	e3a03000 	mov	r3, #0
50007428:	e54b3025 	strb	r3, [fp, #-37]	; 0xffffffdb
5000742c:	ea000002 	b	5000743c <kprintf+0x154>
/home/liwenhaosuper/data/trustkernel/tsee/tsee/lib/libutils/isoc/snprintf.c:258
50007430:	e1a00000 	nop			; (mov r0, r0)
50007434:	ea000000 	b	5000743c <kprintf+0x154>
/home/liwenhaosuper/data/trustkernel/tsee/tsee/lib/libutils/isoc/snprintf.c:270
50007438:	e1a00000 	nop			; (mov r0, r0)
/home/liwenhaosuper/data/trustkernel/tsee/tsee/lib/libutils/isoc/snprintf.c:248
5000743c:	e51b3008 	ldr	r3, [fp, #-8]
50007440:	e5d33000 	ldrb	r3, [r3]
50007444:	e50b300c 	str	r3, [fp, #-12]
50007448:	e51b3008 	ldr	r3, [fp, #-8]
5000744c:	e2833001 	add	r3, r3, #1
50007450:	e50b3008 	str	r3, [fp, #-8]
/home/liwenhaosuper/data/trustkernel/tsee/tsee/lib/libutils/isoc/snprintf.c:249
50007454:	e51b300c 	ldr	r3, [fp, #-12]
50007458:	e2433020 	sub	r3, r3, #32
5000745c:	e353005a 	cmp	r3, #90	; 0x5a
50007460:	979ff103 	ldrls	pc, [pc, r3, lsl #2]
50007464:	ea00037f 	b	50008268 <kprintf+0xf80>
50007468:	500075d4 	.word	0x500075d4
5000746c:	50008268 	.word	0x50008268
50007470:	50008268 	.word	0x50008268
50007474:	500075ec 	.word	0x500075ec
50007478:	50008268 	.word	0x50008268
5000747c:	50008268 	.word	0x50008268
50007480:	50008268 	.word	0x50008268
50007484:	50008268 	.word	0x50008268
50007488:	50008268 	.word	0x50008268
5000748c:	50008268 	.word	0x50008268
50007490:	500075fc 	.word	0x500075fc
50007494:	50007638 	.word	0x50007638
50007498:	50008268 	.word	0x50008268
5000749c:	50007628 	.word	0x50007628
500074a0:	50007644 	.word	0x50007644
500074a4:	50008268 	.word	0x50008268
500074a8:	50007720 	.word	0x50007720
500074ac:	50007730 	.word	0x50007730
500074b0:	50007730 	.word	0x50007730
500074b4:	50007730 	.word	0x50007730
500074b8:	50007730 	.word	0x50007730
500074bc:	50007730 	.word	0x50007730
500074c0:	50007730 	.word	0x50007730
500074c4:	50007730 	.word	0x50007730
500074c8:	50007730 	.word	0x50007730
500074cc:	50007730 	.word	0x50007730
500074d0:	50008268 	.word	0x50008268
500074d4:	50008268 	.word	0x50008268
500074d8:	50008268 	.word	0x50008268
500074dc:	50008268 	.word	0x50008268
500074e0:	50008268 	.word	0x50008268
500074e4:	50008268 	.word	0x50008268
500074e8:	50008268 	.word	0x50008268
500074ec:	50008268 	.word	0x50008268
500074f0:	50008268 	.word	0x50008268
500074f4:	50008268 	.word	0x50008268
500074f8:	50007858 	.word	0x50007858
500074fc:	50008268 	.word	0x50008268
50007500:	50008268 	.word	0x50008268
50007504:	50008268 	.word	0x50008268
50007508:	50008268 	.word	0x50008268
5000750c:	50008268 	.word	0x50008268
50007510:	50008268 	.word	0x50008268
50007514:	50008268 	.word	0x50008268
50007518:	50008268 	.word	0x50008268
5000751c:	50008268 	.word	0x50008268
50007520:	50008268 	.word	0x50008268
50007524:	50007afc 	.word	0x50007afc
50007528:	50008268 	.word	0x50008268
5000752c:	50008268 	.word	0x50008268
50007530:	50008268 	.word	0x50008268
50007534:	50008268 	.word	0x50008268
50007538:	50008268 	.word	0x50008268
5000753c:	50007d4c 	.word	0x50007d4c
50007540:	50008268 	.word	0x50008268
50007544:	50008268 	.word	0x50008268
50007548:	50007e90 	.word	0x50007e90
5000754c:	50008268 	.word	0x50008268
50007550:	50008268 	.word	0x50008268
50007554:	50008268 	.word	0x50008268
50007558:	50008268 	.word	0x50008268
5000755c:	50008268 	.word	0x50008268
50007560:	50008268 	.word	0x50008268
50007564:	50008268 	.word	0x50008268
50007568:	50008268 	.word	0x50008268
5000756c:	50008268 	.word	0x50008268
50007570:	50008268 	.word	0x50008268
50007574:	50007820 	.word	0x50007820
50007578:	50007864 	.word	0x50007864
5000757c:	50008268 	.word	0x50008268
50007580:	50008268 	.word	0x50008268
50007584:	50008268 	.word	0x50008268
50007588:	50007794 	.word	0x50007794
5000758c:	50007864 	.word	0x50007864
50007590:	500077a4 	.word	0x500077a4
50007594:	50008268 	.word	0x50008268
50007598:	500077b4 	.word	0x500077b4
5000759c:	50008268 	.word	0x50008268
500075a0:	500079c4 	.word	0x500079c4
500075a4:	50007b08 	.word	0x50007b08
500075a8:	50007c40 	.word	0x50007c40
500075ac:	500077f0 	.word	0x500077f0
500075b0:	50008268 	.word	0x50008268
500075b4:	50007c88 	.word	0x50007c88
500075b8:	50007800 	.word	0x50007800
500075bc:	50007d58 	.word	0x50007d58
500075c0:	50008268 	.word	0x50008268
500075c4:	50008268 	.word	0x50008268
500075c8:	50007ea0 	.word	0x50007ea0
500075cc:	50008268 	.word	0x50008268
500075d0:	50007810 	.word	0x50007810
/home/liwenhaosuper/data/trustkernel/tsee/tsee/lib/libutils/isoc/snprintf.c:256
500075d4:	e55b3025 	ldrb	r3, [fp, #-37]	; 0xffffffdb
500075d8:	e3530000 	cmp	r3, #0
500075dc:	1affff93 	bne	50007430 <kprintf+0x148>
/home/liwenhaosuper/data/trustkernel/tsee/tsee/lib/libutils/isoc/snprintf.c:257
500075e0:	e3a03020 	mov	r3, #32
500075e4:	e54b3025 	strb	r3, [fp, #-37]	; 0xffffffdb
/home/liwenhaosuper/data/trustkernel/tsee/tsee/lib/libutils/isoc/snprintf.c:258
500075e8:	eaffff93 	b	5000743c <kprintf+0x154>
/home/liwenhaosuper/data/trustkernel/tsee/tsee/lib/libutils/isoc/snprintf.c:260
500075ec:	e51b3018 	ldr	r3, [fp, #-24]	; 0xffffffe8
500075f0:	e3833001 	orr	r3, r3, #1
500075f4:	e50b3018 	str	r3, [fp, #-24]	; 0xffffffe8
/home/liwenhaosuper/data/trustkernel/tsee/tsee/lib/libutils/isoc/snprintf.c:261
500075f8:	eaffff8f 	b	5000743c <kprintf+0x154>
/home/liwenhaosuper/data/trustkernel/tsee/tsee/lib/libutils/isoc/snprintf.c:269
500075fc:	e59b3004 	ldr	r3, [fp, #4]
50007600:	e2832004 	add	r2, r3, #4
50007604:	e58b2004 	str	r2, [fp, #4]
50007608:	e5933000 	ldr	r3, [r3]
5000760c:	e50b3020 	str	r3, [fp, #-32]	; 0xffffffe0
50007610:	e51b3020 	ldr	r3, [fp, #-32]	; 0xffffffe0
50007614:	e3530000 	cmp	r3, #0
50007618:	aaffff86 	bge	50007438 <kprintf+0x150>
/home/liwenhaosuper/data/trustkernel/tsee/tsee/lib/libutils/isoc/snprintf.c:271
5000761c:	e51b3020 	ldr	r3, [fp, #-32]	; 0xffffffe0
50007620:	e2633000 	rsb	r3, r3, #0
50007624:	e50b3020 	str	r3, [fp, #-32]	; 0xffffffe0
/home/liwenhaosuper/data/trustkernel/tsee/tsee/lib/libutils/isoc/snprintf.c:274
50007628:	e51b3018 	ldr	r3, [fp, #-24]	; 0xffffffe8
5000762c:	e3833004 	orr	r3, r3, #4
50007630:	e50b3018 	str	r3, [fp, #-24]	; 0xffffffe8
/home/liwenhaosuper/data/trustkernel/tsee/tsee/lib/libutils/isoc/snprintf.c:275
50007634:	eaffff80 	b	5000743c <kprintf+0x154>
/home/liwenhaosuper/data/trustkernel/tsee/tsee/lib/libutils/isoc/snprintf.c:277
50007638:	e3a0302b 	mov	r3, #43	; 0x2b
5000763c:	e54b3025 	strb	r3, [fp, #-37]	; 0xffffffdb
/home/liwenhaosuper/data/trustkernel/tsee/tsee/lib/libutils/isoc/snprintf.c:278
50007640:	eaffff7d 	b	5000743c <kprintf+0x154>
/home/liwenhaosuper/data/trustkernel/tsee/tsee/lib/libutils/isoc/snprintf.c:280
50007644:	e51b3008 	ldr	r3, [fp, #-8]
50007648:	e5d33000 	ldrb	r3, [r3]
5000764c:	e50b300c 	str	r3, [fp, #-12]
50007650:	e51b300c 	ldr	r3, [fp, #-12]
50007654:	e353002a 	cmp	r3, #42	; 0x2a
50007658:	13a03000 	movne	r3, #0
5000765c:	03a03001 	moveq	r3, #1
50007660:	e6ef3073 	uxtb	r3, r3
50007664:	e51b2008 	ldr	r2, [fp, #-8]
50007668:	e2822001 	add	r2, r2, #1
5000766c:	e50b2008 	str	r2, [fp, #-8]
50007670:	e3530000 	cmp	r3, #0
50007674:	0a00000b 	beq	500076a8 <kprintf+0x3c0>
/home/liwenhaosuper/data/trustkernel/tsee/tsee/lib/libutils/isoc/snprintf.c:281
50007678:	e59b3004 	ldr	r3, [fp, #4]
5000767c:	e2832004 	add	r2, r3, #4
50007680:	e58b2004 	str	r2, [fp, #4]
50007684:	e5933000 	ldr	r3, [r3]
50007688:	e50b3010 	str	r3, [fp, #-16]
/home/liwenhaosuper/data/trustkernel/tsee/tsee/lib/libutils/isoc/snprintf.c:282
5000768c:	e51b2010 	ldr	r2, [fp, #-16]
50007690:	e3e03000 	mvn	r3, #0
50007694:	e1520003 	cmp	r2, r3
50007698:	a1a03002 	movge	r3, r2
5000769c:	b1a03003 	movlt	r3, r3
500076a0:	e50b3024 	str	r3, [fp, #-36]	; 0xffffffdc
/home/liwenhaosuper/data/trustkernel/tsee/tsee/lib/libutils/isoc/snprintf.c:283
500076a4:	eaffff64 	b	5000743c <kprintf+0x154>
/home/liwenhaosuper/data/trustkernel/tsee/tsee/lib/libutils/isoc/snprintf.c:285
500076a8:	e3a03000 	mov	r3, #0
500076ac:	e50b3010 	str	r3, [fp, #-16]
/home/liwenhaosuper/data/trustkernel/tsee/tsee/lib/libutils/isoc/snprintf.c:286
500076b0:	ea00000f 	b	500076f4 <kprintf+0x40c>
/home/liwenhaosuper/data/trustkernel/tsee/tsee/lib/libutils/isoc/snprintf.c:287
500076b4:	e51b2010 	ldr	r2, [fp, #-16]
500076b8:	e1a03002 	mov	r3, r2
500076bc:	e1a03103 	lsl	r3, r3, #2
500076c0:	e0833002 	add	r3, r3, r2
500076c4:	e1a03083 	lsl	r3, r3, #1
500076c8:	e1a02003 	mov	r2, r3
500076cc:	e51b300c 	ldr	r3, [fp, #-12]
500076d0:	e2433030 	sub	r3, r3, #48	; 0x30
500076d4:	e0823003 	add	r3, r2, r3
500076d8:	e50b3010 	str	r3, [fp, #-16]
/home/liwenhaosuper/data/trustkernel/tsee/tsee/lib/libutils/isoc/snprintf.c:288
500076dc:	e51b3008 	ldr	r3, [fp, #-8]
500076e0:	e5d33000 	ldrb	r3, [r3]
500076e4:	e50b300c 	str	r3, [fp, #-12]
500076e8:	e51b3008 	ldr	r3, [fp, #-8]
500076ec:	e2833001 	add	r3, r3, #1
500076f0:	e50b3008 	str	r3, [fp, #-8]
/home/liwenhaosuper/data/trustkernel/tsee/tsee/lib/libutils/isoc/snprintf.c:286
500076f4:	e51b300c 	ldr	r3, [fp, #-12]
500076f8:	e2433030 	sub	r3, r3, #48	; 0x30
500076fc:	e3530009 	cmp	r3, #9
50007700:	9affffeb 	bls	500076b4 <kprintf+0x3cc>
/home/liwenhaosuper/data/trustkernel/tsee/tsee/lib/libutils/isoc/snprintf.c:290
50007704:	e51b2010 	ldr	r2, [fp, #-16]
50007708:	e3e03000 	mvn	r3, #0
5000770c:	e1520003 	cmp	r2, r3
50007710:	a1a03002 	movge	r3, r2
50007714:	b1a03003 	movlt	r3, r3
50007718:	e50b3024 	str	r3, [fp, #-36]	; 0xffffffdc
/home/liwenhaosuper/data/trustkernel/tsee/tsee/lib/libutils/isoc/snprintf.c:291
5000771c:	eaffff4c 	b	50007454 <kprintf+0x16c>
/home/liwenhaosuper/data/trustkernel/tsee/tsee/lib/libutils/isoc/snprintf.c:298
50007720:	e51b3018 	ldr	r3, [fp, #-24]	; 0xffffffe8
50007724:	e3833b01 	orr	r3, r3, #1024	; 0x400
50007728:	e50b3018 	str	r3, [fp, #-24]	; 0xffffffe8
/home/liwenhaosuper/data/trustkernel/tsee/tsee/lib/libutils/isoc/snprintf.c:299
5000772c:	eaffff42 	b	5000743c <kprintf+0x154>
/home/liwenhaosuper/data/trustkernel/tsee/tsee/lib/libutils/isoc/snprintf.c:302
50007730:	e3a03000 	mov	r3, #0
50007734:	e50b3010 	str	r3, [fp, #-16]
/home/liwenhaosuper/data/trustkernel/tsee/tsee/lib/libutils/isoc/snprintf.c:304
50007738:	e51b2010 	ldr	r2, [fp, #-16]
5000773c:	e1a03002 	mov	r3, r2
50007740:	e1a03103 	lsl	r3, r3, #2
50007744:	e0833002 	add	r3, r3, r2
50007748:	e1a03083 	lsl	r3, r3, #1
5000774c:	e1a02003 	mov	r2, r3
50007750:	e51b300c 	ldr	r3, [fp, #-12]
50007754:	e2433030 	sub	r3, r3, #48	; 0x30
50007758:	e0823003 	add	r3, r2, r3
5000775c:	e50b3010 	str	r3, [fp, #-16]
/home/liwenhaosuper/data/trustkernel/tsee/tsee/lib/libutils/isoc/snprintf.c:305
50007760:	e51b3008 	ldr	r3, [fp, #-8]
50007764:	e5d33000 	ldrb	r3, [r3]
50007768:	e50b300c 	str	r3, [fp, #-12]
5000776c:	e51b3008 	ldr	r3, [fp, #-8]
50007770:	e2833001 	add	r3, r3, #1
50007774:	e50b3008 	str	r3, [fp, #-8]
/home/liwenhaosuper/data/trustkernel/tsee/tsee/lib/libutils/isoc/snprintf.c:306
50007778:	e51b300c 	ldr	r3, [fp, #-12]
5000777c:	e2433030 	sub	r3, r3, #48	; 0x30
50007780:	e3530009 	cmp	r3, #9
50007784:	9affffeb 	bls	50007738 <kprintf+0x450>
/home/liwenhaosuper/data/trustkernel/tsee/tsee/lib/libutils/isoc/snprintf.c:307
50007788:	e51b3010 	ldr	r3, [fp, #-16]
5000778c:	e50b3020 	str	r3, [fp, #-32]	; 0xffffffe0
/home/liwenhaosuper/data/trustkernel/tsee/tsee/lib/libutils/isoc/snprintf.c:308
50007790:	eaffff2f 	b	50007454 <kprintf+0x16c>
/home/liwenhaosuper/data/trustkernel/tsee/tsee/lib/libutils/isoc/snprintf.c:310
50007794:	e51b3018 	ldr	r3, [fp, #-24]	; 0xffffffe8
50007798:	e3833040 	orr	r3, r3, #64	; 0x40
5000779c:	e50b3018 	str	r3, [fp, #-24]	; 0xffffffe8
/home/liwenhaosuper/data/trustkernel/tsee/tsee/lib/libutils/isoc/snprintf.c:311
500077a0:	eaffff25 	b	5000743c <kprintf+0x154>
/home/liwenhaosuper/data/trustkernel/tsee/tsee/lib/libutils/isoc/snprintf.c:313
500077a4:	e51b3018 	ldr	r3, [fp, #-24]	; 0xffffffe8
500077a8:	e3833080 	orr	r3, r3, #128	; 0x80
500077ac:	e50b3018 	str	r3, [fp, #-24]	; 0xffffffe8
/home/liwenhaosuper/data/trustkernel/tsee/tsee/lib/libutils/isoc/snprintf.c:314
500077b0:	eaffff21 	b	5000743c <kprintf+0x154>
/home/liwenhaosuper/data/trustkernel/tsee/tsee/lib/libutils/isoc/snprintf.c:316
500077b4:	e51b3008 	ldr	r3, [fp, #-8]
500077b8:	e5d33000 	ldrb	r3, [r3]
500077bc:	e353006c 	cmp	r3, #108	; 0x6c
500077c0:	1a000006 	bne	500077e0 <kprintf+0x4f8>
/home/liwenhaosuper/data/trustkernel/tsee/tsee/lib/libutils/isoc/snprintf.c:317
500077c4:	e51b3008 	ldr	r3, [fp, #-8]
500077c8:	e2833001 	add	r3, r3, #1
500077cc:	e50b3008 	str	r3, [fp, #-8]
/home/liwenhaosuper/data/trustkernel/tsee/tsee/lib/libutils/isoc/snprintf.c:318
500077d0:	e51b3018 	ldr	r3, [fp, #-24]	; 0xffffffe8
500077d4:	e3833020 	orr	r3, r3, #32
500077d8:	e50b3018 	str	r3, [fp, #-24]	; 0xffffffe8
/home/liwenhaosuper/data/trustkernel/tsee/tsee/lib/libutils/isoc/snprintf.c:322
500077dc:	eaffff16 	b	5000743c <kprintf+0x154>
/home/liwenhaosuper/data/trustkernel/tsee/tsee/lib/libutils/isoc/snprintf.c:320
500077e0:	e51b3018 	ldr	r3, [fp, #-24]	; 0xffffffe8
500077e4:	e3833010 	orr	r3, r3, #16
500077e8:	e50b3018 	str	r3, [fp, #-24]	; 0xffffffe8
/home/liwenhaosuper/data/trustkernel/tsee/tsee/lib/libutils/isoc/snprintf.c:322
500077ec:	eaffff12 	b	5000743c <kprintf+0x154>
/home/liwenhaosuper/data/trustkernel/tsee/tsee/lib/libutils/isoc/snprintf.c:324
500077f0:	e51b3018 	ldr	r3, [fp, #-24]	; 0xffffffe8
500077f4:	e3833020 	orr	r3, r3, #32
500077f8:	e50b3018 	str	r3, [fp, #-24]	; 0xffffffe8
/home/liwenhaosuper/data/trustkernel/tsee/tsee/lib/libutils/isoc/snprintf.c:325
500077fc:	eaffff0e 	b	5000743c <kprintf+0x154>
/home/liwenhaosuper/data/trustkernel/tsee/tsee/lib/libutils/isoc/snprintf.c:327
50007800:	e51b3018 	ldr	r3, [fp, #-24]	; 0xffffffe8
50007804:	e3833c01 	orr	r3, r3, #256	; 0x100
50007808:	e50b3018 	str	r3, [fp, #-24]	; 0xffffffe8
/home/liwenhaosuper/data/trustkernel/tsee/tsee/lib/libutils/isoc/snprintf.c:328
5000780c:	eaffff0a 	b	5000743c <kprintf+0x154>
/home/liwenhaosuper/data/trustkernel/tsee/tsee/lib/libutils/isoc/snprintf.c:330
50007810:	e51b3018 	ldr	r3, [fp, #-24]	; 0xffffffe8
50007814:	e3833c02 	orr	r3, r3, #512	; 0x200
50007818:	e50b3018 	str	r3, [fp, #-24]	; 0xffffffe8
/home/liwenhaosuper/data/trustkernel/tsee/tsee/lib/libutils/isoc/snprintf.c:331
5000781c:	eaffff06 	b	5000743c <kprintf+0x154>
/home/liwenhaosuper/data/trustkernel/tsee/tsee/lib/libutils/isoc/snprintf.c:333
50007820:	e24b3068 	sub	r3, fp, #104	; 0x68
50007824:	e50b3014 	str	r3, [fp, #-20]	; 0xffffffec
50007828:	e59b3004 	ldr	r3, [fp, #4]
5000782c:	e2832004 	add	r2, r3, #4
50007830:	e58b2004 	str	r2, [fp, #4]
50007834:	e5933000 	ldr	r3, [r3]
50007838:	e6ef2073 	uxtb	r2, r3
5000783c:	e51b3014 	ldr	r3, [fp, #-20]	; 0xffffffec
50007840:	e5c32000 	strb	r2, [r3]
/home/liwenhaosuper/data/trustkernel/tsee/tsee/lib/libutils/isoc/snprintf.c:334
50007844:	e3a03001 	mov	r3, #1
50007848:	e50b3044 	str	r3, [fp, #-68]	; 0xffffffbc
/home/liwenhaosuper/data/trustkernel/tsee/tsee/lib/libutils/isoc/snprintf.c:335
5000784c:	e3a03000 	mov	r3, #0
50007850:	e54b3025 	strb	r3, [fp, #-37]	; 0xffffffdb
/home/liwenhaosuper/data/trustkernel/tsee/tsee/lib/libutils/isoc/snprintf.c:336
50007854:	ea000291 	b	500082a0 <kprintf+0xfb8>
/home/liwenhaosuper/data/trustkernel/tsee/tsee/lib/libutils/isoc/snprintf.c:338
50007858:	e51b3018 	ldr	r3, [fp, #-24]	; 0xffffffe8
5000785c:	e3833010 	orr	r3, r3, #16
50007860:	e50b3018 	str	r3, [fp, #-24]	; 0xffffffe8
/home/liwenhaosuper/data/trustkernel/tsee/tsee/lib/libutils/isoc/snprintf.c:342
50007864:	e51b3018 	ldr	r3, [fp, #-24]	; 0xffffffe8
50007868:	e2033080 	and	r3, r3, #128	; 0x80
5000786c:	e3530000 	cmp	r3, #0
50007870:	0a000006 	beq	50007890 <kprintf+0x5a8>
50007874:	e59b3004 	ldr	r3, [fp, #4]
50007878:	e2833007 	add	r3, r3, #7
5000787c:	e3c33007 	bic	r3, r3, #7
50007880:	e2832008 	add	r2, r3, #8
50007884:	e58b2004 	str	r2, [fp, #4]
50007888:	e1c320d0 	ldrd	r2, [r3]
5000788c:	ea00003e 	b	5000798c <kprintf+0x6a4>
50007890:	e51b3018 	ldr	r3, [fp, #-24]	; 0xffffffe8
50007894:	e2033c01 	and	r3, r3, #256	; 0x100
50007898:	e3530000 	cmp	r3, #0
5000789c:	0a000006 	beq	500078bc <kprintf+0x5d4>
500078a0:	e59b3004 	ldr	r3, [fp, #4]
500078a4:	e2832004 	add	r2, r3, #4
500078a8:	e58b2004 	str	r2, [fp, #4]
500078ac:	e5933000 	ldr	r3, [r3]
500078b0:	e1a02003 	mov	r2, r3
500078b4:	e1a03fc2 	asr	r3, r2, #31
500078b8:	ea000033 	b	5000798c <kprintf+0x6a4>
500078bc:	e51b3018 	ldr	r3, [fp, #-24]	; 0xffffffe8
500078c0:	e2033c02 	and	r3, r3, #512	; 0x200
500078c4:	e3530000 	cmp	r3, #0
500078c8:	0a000006 	beq	500078e8 <kprintf+0x600>
500078cc:	e59b3004 	ldr	r3, [fp, #4]
500078d0:	e2832004 	add	r2, r3, #4
500078d4:	e58b2004 	str	r2, [fp, #4]
500078d8:	e5933000 	ldr	r3, [r3]
500078dc:	e1a02003 	mov	r2, r3
500078e0:	e1a03fc2 	asr	r3, r2, #31
500078e4:	ea000028 	b	5000798c <kprintf+0x6a4>
500078e8:	e51b3018 	ldr	r3, [fp, #-24]	; 0xffffffe8
500078ec:	e2033020 	and	r3, r3, #32
500078f0:	e3530000 	cmp	r3, #0
500078f4:	0a000006 	beq	50007914 <kprintf+0x62c>
500078f8:	e59b3004 	ldr	r3, [fp, #4]
500078fc:	e2833007 	add	r3, r3, #7
50007900:	e3c33007 	bic	r3, r3, #7
50007904:	e2832008 	add	r2, r3, #8
50007908:	e58b2004 	str	r2, [fp, #4]
5000790c:	e1c320d0 	ldrd	r2, [r3]
50007910:	ea00001d 	b	5000798c <kprintf+0x6a4>
50007914:	e51b3018 	ldr	r3, [fp, #-24]	; 0xffffffe8
50007918:	e2033010 	and	r3, r3, #16
5000791c:	e3530000 	cmp	r3, #0
50007920:	0a000006 	beq	50007940 <kprintf+0x658>
50007924:	e59b3004 	ldr	r3, [fp, #4]
50007928:	e2832004 	add	r2, r3, #4
5000792c:	e58b2004 	str	r2, [fp, #4]
50007930:	e5933000 	ldr	r3, [r3]
50007934:	e1a02003 	mov	r2, r3
50007938:	e1a03fc2 	asr	r3, r2, #31
5000793c:	ea000012 	b	5000798c <kprintf+0x6a4>
50007940:	e51b3018 	ldr	r3, [fp, #-24]	; 0xffffffe8
50007944:	e2033040 	and	r3, r3, #64	; 0x40
50007948:	e3530000 	cmp	r3, #0
5000794c:	0a000008 	beq	50007974 <kprintf+0x68c>
50007950:	e59b3004 	ldr	r3, [fp, #4]
50007954:	e2832004 	add	r2, r3, #4
50007958:	e58b2004 	str	r2, [fp, #4]
5000795c:	e5933000 	ldr	r3, [r3]
50007960:	e6ff1073 	uxth	r1, r3
50007964:	e6bf3071 	sxth	r3, r1
50007968:	e1a02003 	mov	r2, r3
5000796c:	e1a03fc2 	asr	r3, r2, #31
50007970:	ea000005 	b	5000798c <kprintf+0x6a4>
50007974:	e59b3004 	ldr	r3, [fp, #4]
50007978:	e2832004 	add	r2, r3, #4
5000797c:	e58b2004 	str	r2, [fp, #4]
50007980:	e5933000 	ldr	r3, [r3]
50007984:	e1a02003 	mov	r2, r3
50007988:	e1a03fc2 	asr	r3, r2, #31
5000798c:	e14b23f4 	strd	r2, [fp, #-52]	; 0xffffffcc
/home/liwenhaosuper/data/trustkernel/tsee/tsee/lib/libutils/isoc/snprintf.c:343
50007990:	e14b23d4 	ldrd	r2, [fp, #-52]	; 0xffffffcc
50007994:	e3520000 	cmp	r2, #0
50007998:	e2d31000 	sbcs	r1, r3, #0
5000799c:	aa000005 	bge	500079b8 <kprintf+0x6d0>
/home/liwenhaosuper/data/trustkernel/tsee/tsee/lib/libutils/isoc/snprintf.c:344
500079a0:	e14b23d4 	ldrd	r2, [fp, #-52]	; 0xffffffcc
500079a4:	e2722000 	rsbs	r2, r2, #0
500079a8:	e2e33000 	rsc	r3, r3, #0
500079ac:	e14b23f4 	strd	r2, [fp, #-52]	; 0xffffffcc
/home/liwenhaosuper/data/trustkernel/tsee/tsee/lib/libutils/isoc/snprintf.c:345
500079b0:	e3a0302d 	mov	r3, #45	; 0x2d
500079b4:	e54b3025 	strb	r3, [fp, #-37]	; 0xffffffdb
/home/liwenhaosuper/data/trustkernel/tsee/tsee/lib/libutils/isoc/snprintf.c:347
500079b8:	e3a03001 	mov	r3, #1
500079bc:	e50b3038 	str	r3, [fp, #-56]	; 0xffffffc8
/home/liwenhaosuper/data/trustkernel/tsee/tsee/lib/libutils/isoc/snprintf.c:348
500079c0:	ea000193 	b	50008014 <kprintf+0xd2c>
/home/liwenhaosuper/data/trustkernel/tsee/tsee/lib/libutils/isoc/snprintf.c:350
500079c4:	e51b3018 	ldr	r3, [fp, #-24]	; 0xffffffe8
500079c8:	e2033080 	and	r3, r3, #128	; 0x80
500079cc:	e3530000 	cmp	r3, #0
500079d0:	0a000008 	beq	500079f8 <kprintf+0x710>
/home/liwenhaosuper/data/trustkernel/tsee/tsee/lib/libutils/isoc/snprintf.c:351
500079d4:	e59b3004 	ldr	r3, [fp, #4]
500079d8:	e2832004 	add	r2, r3, #4
500079dc:	e58b2004 	str	r2, [fp, #4]
500079e0:	e5931000 	ldr	r1, [r3]
500079e4:	e51b301c 	ldr	r3, [fp, #-28]	; 0xffffffe4
500079e8:	e1a02003 	mov	r2, r3
500079ec:	e1a03fc2 	asr	r3, r2, #31
500079f0:	e1c120f0 	strd	r2, [r1]
/home/liwenhaosuper/data/trustkernel/tsee/tsee/lib/libutils/isoc/snprintf.c:364
500079f4:	ea00033f 	b	500086f8 <kprintf+0x1410>
/home/liwenhaosuper/data/trustkernel/tsee/tsee/lib/libutils/isoc/snprintf.c:352
500079f8:	e51b3018 	ldr	r3, [fp, #-24]	; 0xffffffe8
500079fc:	e2033c01 	and	r3, r3, #256	; 0x100
50007a00:	e3530000 	cmp	r3, #0
50007a04:	0a000006 	beq	50007a24 <kprintf+0x73c>
/home/liwenhaosuper/data/trustkernel/tsee/tsee/lib/libutils/isoc/snprintf.c:353
50007a08:	e59b3004 	ldr	r3, [fp, #4]
50007a0c:	e2832004 	add	r2, r3, #4
50007a10:	e58b2004 	str	r2, [fp, #4]
50007a14:	e5933000 	ldr	r3, [r3]
50007a18:	e51b201c 	ldr	r2, [fp, #-28]	; 0xffffffe4
50007a1c:	e5832000 	str	r2, [r3]
/home/liwenhaosuper/data/trustkernel/tsee/tsee/lib/libutils/isoc/snprintf.c:364
50007a20:	ea000334 	b	500086f8 <kprintf+0x1410>
/home/liwenhaosuper/data/trustkernel/tsee/tsee/lib/libutils/isoc/snprintf.c:354
50007a24:	e51b3018 	ldr	r3, [fp, #-24]	; 0xffffffe8
50007a28:	e2033c02 	and	r3, r3, #512	; 0x200
50007a2c:	e3530000 	cmp	r3, #0
50007a30:	0a000006 	beq	50007a50 <kprintf+0x768>
/home/liwenhaosuper/data/trustkernel/tsee/tsee/lib/libutils/isoc/snprintf.c:355
50007a34:	e59b3004 	ldr	r3, [fp, #4]
50007a38:	e2832004 	add	r2, r3, #4
50007a3c:	e58b2004 	str	r2, [fp, #4]
50007a40:	e5933000 	ldr	r3, [r3]
50007a44:	e51b201c 	ldr	r2, [fp, #-28]	; 0xffffffe4
50007a48:	e5832000 	str	r2, [r3]
/home/liwenhaosuper/data/trustkernel/tsee/tsee/lib/libutils/isoc/snprintf.c:364
50007a4c:	ea000329 	b	500086f8 <kprintf+0x1410>
/home/liwenhaosuper/data/trustkernel/tsee/tsee/lib/libutils/isoc/snprintf.c:356
50007a50:	e51b3018 	ldr	r3, [fp, #-24]	; 0xffffffe8
50007a54:	e2033020 	and	r3, r3, #32
50007a58:	e3530000 	cmp	r3, #0
50007a5c:	0a000008 	beq	50007a84 <kprintf+0x79c>
/home/liwenhaosuper/data/trustkernel/tsee/tsee/lib/libutils/isoc/snprintf.c:357
50007a60:	e59b3004 	ldr	r3, [fp, #4]
50007a64:	e2832004 	add	r2, r3, #4
50007a68:	e58b2004 	str	r2, [fp, #4]
50007a6c:	e5931000 	ldr	r1, [r3]
50007a70:	e51b301c 	ldr	r3, [fp, #-28]	; 0xffffffe4
50007a74:	e1a02003 	mov	r2, r3
50007a78:	e1a03fc2 	asr	r3, r2, #31
50007a7c:	e1c120f0 	strd	r2, [r1]
/home/liwenhaosuper/data/trustkernel/tsee/tsee/lib/libutils/isoc/snprintf.c:364
50007a80:	ea00031c 	b	500086f8 <kprintf+0x1410>
/home/liwenhaosuper/data/trustkernel/tsee/tsee/lib/libutils/isoc/snprintf.c:358
50007a84:	e51b3018 	ldr	r3, [fp, #-24]	; 0xffffffe8
50007a88:	e2033010 	and	r3, r3, #16
50007a8c:	e3530000 	cmp	r3, #0
50007a90:	0a000006 	beq	50007ab0 <kprintf+0x7c8>
/home/liwenhaosuper/data/trustkernel/tsee/tsee/lib/libutils/isoc/snprintf.c:359
50007a94:	e59b3004 	ldr	r3, [fp, #4]
50007a98:	e2832004 	add	r2, r3, #4
50007a9c:	e58b2004 	str	r2, [fp, #4]
50007aa0:	e5933000 	ldr	r3, [r3]
50007aa4:	e51b201c 	ldr	r2, [fp, #-28]	; 0xffffffe4
50007aa8:	e5832000 	str	r2, [r3]
/home/liwenhaosuper/data/trustkernel/tsee/tsee/lib/libutils/isoc/snprintf.c:364
50007aac:	ea000311 	b	500086f8 <kprintf+0x1410>
/home/liwenhaosuper/data/trustkernel/tsee/tsee/lib/libutils/isoc/snprintf.c:360
50007ab0:	e51b3018 	ldr	r3, [fp, #-24]	; 0xffffffe8
50007ab4:	e2033040 	and	r3, r3, #64	; 0x40
50007ab8:	e3530000 	cmp	r3, #0
50007abc:	0a000007 	beq	50007ae0 <kprintf+0x7f8>
/home/liwenhaosuper/data/trustkernel/tsee/tsee/lib/libutils/isoc/snprintf.c:361
50007ac0:	e59b3004 	ldr	r3, [fp, #4]
50007ac4:	e2832004 	add	r2, r3, #4
50007ac8:	e58b2004 	str	r2, [fp, #4]
50007acc:	e5933000 	ldr	r3, [r3]
50007ad0:	e51b201c 	ldr	r2, [fp, #-28]	; 0xffffffe4
50007ad4:	e6ff2072 	uxth	r2, r2
50007ad8:	e1c320b0 	strh	r2, [r3]
/home/liwenhaosuper/data/trustkernel/tsee/tsee/lib/libutils/isoc/snprintf.c:364
50007adc:	ea000305 	b	500086f8 <kprintf+0x1410>
/home/liwenhaosuper/data/trustkernel/tsee/tsee/lib/libutils/isoc/snprintf.c:363
50007ae0:	e59b3004 	ldr	r3, [fp, #4]
50007ae4:	e2832004 	add	r2, r3, #4
50007ae8:	e58b2004 	str	r2, [fp, #4]
50007aec:	e5933000 	ldr	r3, [r3]
50007af0:	e51b201c 	ldr	r2, [fp, #-28]	; 0xffffffe4
50007af4:	e5832000 	str	r2, [r3]
/home/liwenhaosuper/data/trustkernel/tsee/tsee/lib/libutils/isoc/snprintf.c:364
50007af8:	ea0002fe 	b	500086f8 <kprintf+0x1410>
/home/liwenhaosuper/data/trustkernel/tsee/tsee/lib/libutils/isoc/snprintf.c:366
50007afc:	e51b3018 	ldr	r3, [fp, #-24]	; 0xffffffe8
50007b00:	e3833010 	orr	r3, r3, #16
50007b04:	e50b3018 	str	r3, [fp, #-24]	; 0xffffffe8
/home/liwenhaosuper/data/trustkernel/tsee/tsee/lib/libutils/isoc/snprintf.c:369
50007b08:	e51b3018 	ldr	r3, [fp, #-24]	; 0xffffffe8
50007b0c:	e2033080 	and	r3, r3, #128	; 0x80
50007b10:	e3530000 	cmp	r3, #0
50007b14:	0a000006 	beq	50007b34 <kprintf+0x84c>
50007b18:	e59b3004 	ldr	r3, [fp, #4]
50007b1c:	e2833007 	add	r3, r3, #7
50007b20:	e3c33007 	bic	r3, r3, #7
50007b24:	e2832008 	add	r2, r3, #8
50007b28:	e58b2004 	str	r2, [fp, #4]
50007b2c:	e1c320d0 	ldrd	r2, [r3]
50007b30:	ea00003e 	b	50007c30 <kprintf+0x948>
50007b34:	e51b3018 	ldr	r3, [fp, #-24]	; 0xffffffe8
50007b38:	e2033c01 	and	r3, r3, #256	; 0x100
50007b3c:	e3530000 	cmp	r3, #0
50007b40:	0a000006 	beq	50007b60 <kprintf+0x878>
50007b44:	e59b3004 	ldr	r3, [fp, #4]
50007b48:	e2832004 	add	r2, r3, #4
50007b4c:	e58b2004 	str	r2, [fp, #4]
50007b50:	e5933000 	ldr	r3, [r3]
50007b54:	e1a02003 	mov	r2, r3
50007b58:	e3a03000 	mov	r3, #0
50007b5c:	ea000033 	b	50007c30 <kprintf+0x948>
50007b60:	e51b3018 	ldr	r3, [fp, #-24]	; 0xffffffe8
50007b64:	e2033c02 	and	r3, r3, #512	; 0x200
50007b68:	e3530000 	cmp	r3, #0
50007b6c:	0a000006 	beq	50007b8c <kprintf+0x8a4>
50007b70:	e59b3004 	ldr	r3, [fp, #4]
50007b74:	e2832004 	add	r2, r3, #4
50007b78:	e58b2004 	str	r2, [fp, #4]
50007b7c:	e5933000 	ldr	r3, [r3]
50007b80:	e1a02003 	mov	r2, r3
50007b84:	e3a03000 	mov	r3, #0
50007b88:	ea000028 	b	50007c30 <kprintf+0x948>
50007b8c:	e51b3018 	ldr	r3, [fp, #-24]	; 0xffffffe8
50007b90:	e2033020 	and	r3, r3, #32
50007b94:	e3530000 	cmp	r3, #0
50007b98:	0a000006 	beq	50007bb8 <kprintf+0x8d0>
50007b9c:	e59b3004 	ldr	r3, [fp, #4]
50007ba0:	e2833007 	add	r3, r3, #7
50007ba4:	e3c33007 	bic	r3, r3, #7
50007ba8:	e2832008 	add	r2, r3, #8
50007bac:	e58b2004 	str	r2, [fp, #4]
50007bb0:	e1c320d0 	ldrd	r2, [r3]
50007bb4:	ea00001d 	b	50007c30 <kprintf+0x948>
50007bb8:	e51b3018 	ldr	r3, [fp, #-24]	; 0xffffffe8
50007bbc:	e2033010 	and	r3, r3, #16
50007bc0:	e3530000 	cmp	r3, #0
50007bc4:	0a000006 	beq	50007be4 <kprintf+0x8fc>
50007bc8:	e59b3004 	ldr	r3, [fp, #4]
50007bcc:	e2832004 	add	r2, r3, #4
50007bd0:	e58b2004 	str	r2, [fp, #4]
50007bd4:	e5933000 	ldr	r3, [r3]
50007bd8:	e1a02003 	mov	r2, r3
50007bdc:	e3a03000 	mov	r3, #0
50007be0:	ea000012 	b	50007c30 <kprintf+0x948>
50007be4:	e51b3018 	ldr	r3, [fp, #-24]	; 0xffffffe8
50007be8:	e2033040 	and	r3, r3, #64	; 0x40
50007bec:	e3530000 	cmp	r3, #0
50007bf0:	0a000008 	beq	50007c18 <kprintf+0x930>
50007bf4:	e59b3004 	ldr	r3, [fp, #4]
50007bf8:	e2832004 	add	r2, r3, #4
50007bfc:	e58b2004 	str	r2, [fp, #4]
50007c00:	e5933000 	ldr	r3, [r3]
50007c04:	e6ff1073 	uxth	r1, r3
50007c08:	e1a03001 	mov	r3, r1
50007c0c:	e1a02003 	mov	r2, r3
50007c10:	e3a03000 	mov	r3, #0
50007c14:	ea000005 	b	50007c30 <kprintf+0x948>
50007c18:	e59b3004 	ldr	r3, [fp, #4]
50007c1c:	e2832004 	add	r2, r3, #4
50007c20:	e58b2004 	str	r2, [fp, #4]
50007c24:	e5933000 	ldr	r3, [r3]
50007c28:	e1a02003 	mov	r2, r3
50007c2c:	e3a03000 	mov	r3, #0
50007c30:	e14b23f4 	strd	r2, [fp, #-52]	; 0xffffffcc
/home/liwenhaosuper/data/trustkernel/tsee/tsee/lib/libutils/isoc/snprintf.c:370
50007c34:	e3a03000 	mov	r3, #0
50007c38:	e50b3038 	str	r3, [fp, #-56]	; 0xffffffc8
/home/liwenhaosuper/data/trustkernel/tsee/tsee/lib/libutils/isoc/snprintf.c:371
50007c3c:	ea0000f2 	b	5000800c <kprintf+0xd24>
/home/liwenhaosuper/data/trustkernel/tsee/tsee/lib/libutils/isoc/snprintf.c:381
50007c40:	e59b3004 	ldr	r3, [fp, #4]
50007c44:	e2832004 	add	r2, r3, #4
50007c48:	e58b2004 	str	r2, [fp, #4]
50007c4c:	e5933000 	ldr	r3, [r3]
50007c50:	e1a02003 	mov	r2, r3
50007c54:	e3a03000 	mov	r3, #0
50007c58:	e14b23f4 	strd	r2, [fp, #-52]	; 0xffffffcc
/home/liwenhaosuper/data/trustkernel/tsee/tsee/lib/libutils/isoc/snprintf.c:382
50007c5c:	e3a03002 	mov	r3, #2
50007c60:	e50b3038 	str	r3, [fp, #-56]	; 0xffffffc8
/home/liwenhaosuper/data/trustkernel/tsee/tsee/lib/libutils/isoc/snprintf.c:383
50007c64:	e30a3538 	movw	r3, #42296	; 0xa538
50007c68:	e3453000 	movt	r3, #20480	; 0x5000
50007c6c:	e50b3048 	str	r3, [fp, #-72]	; 0xffffffb8
/home/liwenhaosuper/data/trustkernel/tsee/tsee/lib/libutils/isoc/snprintf.c:384
50007c70:	e51b3018 	ldr	r3, [fp, #-24]	; 0xffffffe8
50007c74:	e3833002 	orr	r3, r3, #2
50007c78:	e50b3018 	str	r3, [fp, #-24]	; 0xffffffe8
/home/liwenhaosuper/data/trustkernel/tsee/tsee/lib/libutils/isoc/snprintf.c:385
50007c7c:	e3a03078 	mov	r3, #120	; 0x78
50007c80:	e50b300c 	str	r3, [fp, #-12]
/home/liwenhaosuper/data/trustkernel/tsee/tsee/lib/libutils/isoc/snprintf.c:386
50007c84:	ea0000e0 	b	5000800c <kprintf+0xd24>
/home/liwenhaosuper/data/trustkernel/tsee/tsee/lib/libutils/isoc/snprintf.c:388
50007c88:	e59b3004 	ldr	r3, [fp, #4]
50007c8c:	e2832004 	add	r2, r3, #4
50007c90:	e58b2004 	str	r2, [fp, #4]
50007c94:	e5933000 	ldr	r3, [r3]
50007c98:	e50b3014 	str	r3, [fp, #-20]	; 0xffffffec
50007c9c:	e51b3014 	ldr	r3, [fp, #-20]	; 0xffffffec
50007ca0:	e3530000 	cmp	r3, #0
50007ca4:	1a000002 	bne	50007cb4 <kprintf+0x9cc>
/home/liwenhaosuper/data/trustkernel/tsee/tsee/lib/libutils/isoc/snprintf.c:390
50007ca8:	e30a3560 	movw	r3, #42336	; 0xa560
50007cac:	e3453000 	movt	r3, #20480	; 0x5000
50007cb0:	e50b3014 	str	r3, [fp, #-20]	; 0xffffffec
/home/liwenhaosuper/data/trustkernel/tsee/tsee/lib/libutils/isoc/snprintf.c:391
50007cb4:	e51b3024 	ldr	r3, [fp, #-36]	; 0xffffffdc
50007cb8:	e3530000 	cmp	r3, #0
50007cbc:	ba000019 	blt	50007d28 <kprintf+0xa40>
/home/liwenhaosuper/data/trustkernel/tsee/tsee/lib/libutils/isoc/snprintf.c:397
50007cc0:	e51b3024 	ldr	r3, [fp, #-36]	; 0xffffffdc
50007cc4:	e51b0014 	ldr	r0, [fp, #-20]	; 0xffffffec
50007cc8:	e3a01000 	mov	r1, #0
50007ccc:	e1a02003 	mov	r2, r3
50007cd0:	e3083740 	movw	r3, #34624	; 0x8740
50007cd4:	e3453000 	movt	r3, #20480	; 0x5000
50007cd8:	e12fff33 	blx	r3
50007cdc:	e1a03000 	mov	r3, r0
50007ce0:	e50b3050 	str	r3, [fp, #-80]	; 0xffffffb0
/home/liwenhaosuper/data/trustkernel/tsee/tsee/lib/libutils/isoc/snprintf.c:399
50007ce4:	e51b3050 	ldr	r3, [fp, #-80]	; 0xffffffb0
50007ce8:	e3530000 	cmp	r3, #0
50007cec:	0a00000a 	beq	50007d1c <kprintf+0xa34>
/home/liwenhaosuper/data/trustkernel/tsee/tsee/lib/libutils/isoc/snprintf.c:400
50007cf0:	e51b2050 	ldr	r2, [fp, #-80]	; 0xffffffb0
50007cf4:	e51b3014 	ldr	r3, [fp, #-20]	; 0xffffffec
50007cf8:	e0633002 	rsb	r3, r3, r2
50007cfc:	e50b3044 	str	r3, [fp, #-68]	; 0xffffffbc
/home/liwenhaosuper/data/trustkernel/tsee/tsee/lib/libutils/isoc/snprintf.c:401
50007d00:	e51b2044 	ldr	r2, [fp, #-68]	; 0xffffffbc
50007d04:	e51b3024 	ldr	r3, [fp, #-36]	; 0xffffffdc
50007d08:	e1520003 	cmp	r2, r3
50007d0c:	da00000b 	ble	50007d40 <kprintf+0xa58>
/home/liwenhaosuper/data/trustkernel/tsee/tsee/lib/libutils/isoc/snprintf.c:402
50007d10:	e51b3024 	ldr	r3, [fp, #-36]	; 0xffffffdc
50007d14:	e50b3044 	str	r3, [fp, #-68]	; 0xffffffbc
50007d18:	ea000008 	b	50007d40 <kprintf+0xa58>
/home/liwenhaosuper/data/trustkernel/tsee/tsee/lib/libutils/isoc/snprintf.c:404
50007d1c:	e51b3024 	ldr	r3, [fp, #-36]	; 0xffffffdc
50007d20:	e50b3044 	str	r3, [fp, #-68]	; 0xffffffbc
50007d24:	ea000005 	b	50007d40 <kprintf+0xa58>
/home/liwenhaosuper/data/trustkernel/tsee/tsee/lib/libutils/isoc/snprintf.c:406
50007d28:	e51b0014 	ldr	r0, [fp, #-20]	; 0xffffffec
50007d2c:	e308393c 	movw	r3, #35132	; 0x893c
50007d30:	e3453000 	movt	r3, #20480	; 0x5000
50007d34:	e12fff33 	blx	r3
50007d38:	e1a03000 	mov	r3, r0
50007d3c:	e50b3044 	str	r3, [fp, #-68]	; 0xffffffbc
/home/liwenhaosuper/data/trustkernel/tsee/tsee/lib/libutils/isoc/snprintf.c:407
50007d40:	e3a03000 	mov	r3, #0
50007d44:	e54b3025 	strb	r3, [fp, #-37]	; 0xffffffdb
/home/liwenhaosuper/data/trustkernel/tsee/tsee/lib/libutils/isoc/snprintf.c:408
50007d48:	ea000154 	b	500082a0 <kprintf+0xfb8>
/home/liwenhaosuper/data/trustkernel/tsee/tsee/lib/libutils/isoc/snprintf.c:410
50007d4c:	e51b3018 	ldr	r3, [fp, #-24]	; 0xffffffe8
50007d50:	e3833010 	orr	r3, r3, #16
50007d54:	e50b3018 	str	r3, [fp, #-24]	; 0xffffffe8
/home/liwenhaosuper/data/trustkernel/tsee/tsee/lib/libutils/isoc/snprintf.c:413
50007d58:	e51b3018 	ldr	r3, [fp, #-24]	; 0xffffffe8
50007d5c:	e2033080 	and	r3, r3, #128	; 0x80
50007d60:	e3530000 	cmp	r3, #0
50007d64:	0a000006 	beq	50007d84 <kprintf+0xa9c>
50007d68:	e59b3004 	ldr	r3, [fp, #4]
50007d6c:	e2833007 	add	r3, r3, #7
50007d70:	e3c33007 	bic	r3, r3, #7
50007d74:	e2832008 	add	r2, r3, #8
50007d78:	e58b2004 	str	r2, [fp, #4]
50007d7c:	e1c320d0 	ldrd	r2, [r3]
50007d80:	ea00003e 	b	50007e80 <kprintf+0xb98>
50007d84:	e51b3018 	ldr	r3, [fp, #-24]	; 0xffffffe8
50007d88:	e2033c01 	and	r3, r3, #256	; 0x100
50007d8c:	e3530000 	cmp	r3, #0
50007d90:	0a000006 	beq	50007db0 <kprintf+0xac8>
50007d94:	e59b3004 	ldr	r3, [fp, #4]
50007d98:	e2832004 	add	r2, r3, #4
50007d9c:	e58b2004 	str	r2, [fp, #4]
50007da0:	e5933000 	ldr	r3, [r3]
50007da4:	e1a02003 	mov	r2, r3
50007da8:	e3a03000 	mov	r3, #0
50007dac:	ea000033 	b	50007e80 <kprintf+0xb98>
50007db0:	e51b3018 	ldr	r3, [fp, #-24]	; 0xffffffe8
50007db4:	e2033c02 	and	r3, r3, #512	; 0x200
50007db8:	e3530000 	cmp	r3, #0
50007dbc:	0a000006 	beq	50007ddc <kprintf+0xaf4>
50007dc0:	e59b3004 	ldr	r3, [fp, #4]
50007dc4:	e2832004 	add	r2, r3, #4
50007dc8:	e58b2004 	str	r2, [fp, #4]
50007dcc:	e5933000 	ldr	r3, [r3]
50007dd0:	e1a02003 	mov	r2, r3
50007dd4:	e3a03000 	mov	r3, #0
50007dd8:	ea000028 	b	50007e80 <kprintf+0xb98>
50007ddc:	e51b3018 	ldr	r3, [fp, #-24]	; 0xffffffe8
50007de0:	e2033020 	and	r3, r3, #32
50007de4:	e3530000 	cmp	r3, #0
50007de8:	0a000006 	beq	50007e08 <kprintf+0xb20>
50007dec:	e59b3004 	ldr	r3, [fp, #4]
50007df0:	e2833007 	add	r3, r3, #7
50007df4:	e3c33007 	bic	r3, r3, #7
50007df8:	e2832008 	add	r2, r3, #8
50007dfc:	e58b2004 	str	r2, [fp, #4]
50007e00:	e1c320d0 	ldrd	r2, [r3]
50007e04:	ea00001d 	b	50007e80 <kprintf+0xb98>
50007e08:	e51b3018 	ldr	r3, [fp, #-24]	; 0xffffffe8
50007e0c:	e2033010 	and	r3, r3, #16
50007e10:	e3530000 	cmp	r3, #0
50007e14:	0a000006 	beq	50007e34 <kprintf+0xb4c>
50007e18:	e59b3004 	ldr	r3, [fp, #4]
50007e1c:	e2832004 	add	r2, r3, #4
50007e20:	e58b2004 	str	r2, [fp, #4]
50007e24:	e5933000 	ldr	r3, [r3]
50007e28:	e1a02003 	mov	r2, r3
50007e2c:	e3a03000 	mov	r3, #0
50007e30:	ea000012 	b	50007e80 <kprintf+0xb98>
50007e34:	e51b3018 	ldr	r3, [fp, #-24]	; 0xffffffe8
50007e38:	e2033040 	and	r3, r3, #64	; 0x40
50007e3c:	e3530000 	cmp	r3, #0
50007e40:	0a000008 	beq	50007e68 <kprintf+0xb80>
50007e44:	e59b3004 	ldr	r3, [fp, #4]
50007e48:	e2832004 	add	r2, r3, #4
50007e4c:	e58b2004 	str	r2, [fp, #4]
50007e50:	e5933000 	ldr	r3, [r3]
50007e54:	e6ff1073 	uxth	r1, r3
50007e58:	e1a03001 	mov	r3, r1
50007e5c:	e1a02003 	mov	r2, r3
50007e60:	e3a03000 	mov	r3, #0
50007e64:	ea000005 	b	50007e80 <kprintf+0xb98>
50007e68:	e59b3004 	ldr	r3, [fp, #4]
50007e6c:	e2832004 	add	r2, r3, #4
50007e70:	e58b2004 	str	r2, [fp, #4]
50007e74:	e5933000 	ldr	r3, [r3]
50007e78:	e1a02003 	mov	r2, r3
50007e7c:	e3a03000 	mov	r3, #0
50007e80:	e14b23f4 	strd	r2, [fp, #-52]	; 0xffffffcc
/home/liwenhaosuper/data/trustkernel/tsee/tsee/lib/libutils/isoc/snprintf.c:414
50007e84:	e3a03001 	mov	r3, #1
50007e88:	e50b3038 	str	r3, [fp, #-56]	; 0xffffffc8
/home/liwenhaosuper/data/trustkernel/tsee/tsee/lib/libutils/isoc/snprintf.c:415
50007e8c:	ea00005e 	b	5000800c <kprintf+0xd24>
/home/liwenhaosuper/data/trustkernel/tsee/tsee/lib/libutils/isoc/snprintf.c:417
50007e90:	e30a354c 	movw	r3, #42316	; 0xa54c
50007e94:	e3453000 	movt	r3, #20480	; 0x5000
50007e98:	e50b3048 	str	r3, [fp, #-72]	; 0xffffffb8
/home/liwenhaosuper/data/trustkernel/tsee/tsee/lib/libutils/isoc/snprintf.c:418
50007e9c:	ea000002 	b	50007eac <kprintf+0xbc4>
/home/liwenhaosuper/data/trustkernel/tsee/tsee/lib/libutils/isoc/snprintf.c:420
50007ea0:	e30a3538 	movw	r3, #42296	; 0xa538
50007ea4:	e3453000 	movt	r3, #20480	; 0x5000
50007ea8:	e50b3048 	str	r3, [fp, #-72]	; 0xffffffb8
/home/liwenhaosuper/data/trustkernel/tsee/tsee/lib/libutils/isoc/snprintf.c:421
50007eac:	e51b3018 	ldr	r3, [fp, #-24]	; 0xffffffe8
50007eb0:	e2033080 	and	r3, r3, #128	; 0x80
50007eb4:	e3530000 	cmp	r3, #0
50007eb8:	0a000006 	beq	50007ed8 <kprintf+0xbf0>
50007ebc:	e59b3004 	ldr	r3, [fp, #4]
50007ec0:	e2833007 	add	r3, r3, #7
50007ec4:	e3c33007 	bic	r3, r3, #7
50007ec8:	e2832008 	add	r2, r3, #8
50007ecc:	e58b2004 	str	r2, [fp, #4]
50007ed0:	e1c320d0 	ldrd	r2, [r3]
50007ed4:	ea00003e 	b	50007fd4 <kprintf+0xcec>
50007ed8:	e51b3018 	ldr	r3, [fp, #-24]	; 0xffffffe8
50007edc:	e2033c01 	and	r3, r3, #256	; 0x100
50007ee0:	e3530000 	cmp	r3, #0
50007ee4:	0a000006 	beq	50007f04 <kprintf+0xc1c>
50007ee8:	e59b3004 	ldr	r3, [fp, #4]
50007eec:	e2832004 	add	r2, r3, #4
50007ef0:	e58b2004 	str	r2, [fp, #4]
50007ef4:	e5933000 	ldr	r3, [r3]
50007ef8:	e1a02003 	mov	r2, r3
50007efc:	e3a03000 	mov	r3, #0
50007f00:	ea000033 	b	50007fd4 <kprintf+0xcec>
50007f04:	e51b3018 	ldr	r3, [fp, #-24]	; 0xffffffe8
50007f08:	e2033c02 	and	r3, r3, #512	; 0x200
50007f0c:	e3530000 	cmp	r3, #0
50007f10:	0a000006 	beq	50007f30 <kprintf+0xc48>
50007f14:	e59b3004 	ldr	r3, [fp, #4]
50007f18:	e2832004 	add	r2, r3, #4
50007f1c:	e58b2004 	str	r2, [fp, #4]
50007f20:	e5933000 	ldr	r3, [r3]
50007f24:	e1a02003 	mov	r2, r3
50007f28:	e3a03000 	mov	r3, #0
50007f2c:	ea000028 	b	50007fd4 <kprintf+0xcec>
50007f30:	e51b3018 	ldr	r3, [fp, #-24]	; 0xffffffe8
50007f34:	e2033020 	and	r3, r3, #32
50007f38:	e3530000 	cmp	r3, #0
50007f3c:	0a000006 	beq	50007f5c <kprintf+0xc74>
50007f40:	e59b3004 	ldr	r3, [fp, #4]
50007f44:	e2833007 	add	r3, r3, #7
50007f48:	e3c33007 	bic	r3, r3, #7
50007f4c:	e2832008 	add	r2, r3, #8
50007f50:	e58b2004 	str	r2, [fp, #4]
50007f54:	e1c320d0 	ldrd	r2, [r3]
50007f58:	ea00001d 	b	50007fd4 <kprintf+0xcec>
50007f5c:	e51b3018 	ldr	r3, [fp, #-24]	; 0xffffffe8
50007f60:	e2033010 	and	r3, r3, #16
50007f64:	e3530000 	cmp	r3, #0
50007f68:	0a000006 	beq	50007f88 <kprintf+0xca0>
50007f6c:	e59b3004 	ldr	r3, [fp, #4]
50007f70:	e2832004 	add	r2, r3, #4
50007f74:	e58b2004 	str	r2, [fp, #4]
50007f78:	e5933000 	ldr	r3, [r3]
50007f7c:	e1a02003 	mov	r2, r3
50007f80:	e3a03000 	mov	r3, #0
50007f84:	ea000012 	b	50007fd4 <kprintf+0xcec>
50007f88:	e51b3018 	ldr	r3, [fp, #-24]	; 0xffffffe8
50007f8c:	e2033040 	and	r3, r3, #64	; 0x40
50007f90:	e3530000 	cmp	r3, #0
50007f94:	0a000008 	beq	50007fbc <kprintf+0xcd4>
50007f98:	e59b3004 	ldr	r3, [fp, #4]
50007f9c:	e2832004 	add	r2, r3, #4
50007fa0:	e58b2004 	str	r2, [fp, #4]
50007fa4:	e5933000 	ldr	r3, [r3]
50007fa8:	e6ff1073 	uxth	r1, r3
50007fac:	e1a03001 	mov	r3, r1
50007fb0:	e1a02003 	mov	r2, r3
50007fb4:	e3a03000 	mov	r3, #0
50007fb8:	ea000005 	b	50007fd4 <kprintf+0xcec>
50007fbc:	e59b3004 	ldr	r3, [fp, #4]
50007fc0:	e2832004 	add	r2, r3, #4
50007fc4:	e58b2004 	str	r2, [fp, #4]
50007fc8:	e5933000 	ldr	r3, [r3]
50007fcc:	e1a02003 	mov	r2, r3
50007fd0:	e3a03000 	mov	r3, #0
50007fd4:	e14b23f4 	strd	r2, [fp, #-52]	; 0xffffffcc
/home/liwenhaosuper/data/trustkernel/tsee/tsee/lib/libutils/isoc/snprintf.c:422
50007fd8:	e3a03002 	mov	r3, #2
50007fdc:	e50b3038 	str	r3, [fp, #-56]	; 0xffffffc8
/home/liwenhaosuper/data/trustkernel/tsee/tsee/lib/libutils/isoc/snprintf.c:424
50007fe0:	e51b3018 	ldr	r3, [fp, #-24]	; 0xffffffe8
50007fe4:	e2033001 	and	r3, r3, #1
50007fe8:	e6ef3073 	uxtb	r3, r3
50007fec:	e3530000 	cmp	r3, #0
50007ff0:	0a000005 	beq	5000800c <kprintf+0xd24>
50007ff4:	e14b23d4 	ldrd	r2, [fp, #-52]	; 0xffffffcc
50007ff8:	e1921003 	orrs	r1, r2, r3
50007ffc:	0a000002 	beq	5000800c <kprintf+0xd24>
/home/liwenhaosuper/data/trustkernel/tsee/tsee/lib/libutils/isoc/snprintf.c:425
50008000:	e51b3018 	ldr	r3, [fp, #-24]	; 0xffffffe8
50008004:	e3833002 	orr	r3, r3, #2
50008008:	e50b3018 	str	r3, [fp, #-24]	; 0xffffffe8
/home/liwenhaosuper/data/trustkernel/tsee/tsee/lib/libutils/isoc/snprintf.c:428
5000800c:	e3a03000 	mov	r3, #0
50008010:	e54b3025 	strb	r3, [fp, #-37]	; 0xffffffdb
/home/liwenhaosuper/data/trustkernel/tsee/tsee/lib/libutils/isoc/snprintf.c:434
50008014:	e51b3024 	ldr	r3, [fp, #-36]	; 0xffffffdc
50008018:	e50b303c 	str	r3, [fp, #-60]	; 0xffffffc4
5000801c:	e51b303c 	ldr	r3, [fp, #-60]	; 0xffffffc4
50008020:	e3530000 	cmp	r3, #0
50008024:	ba000002 	blt	50008034 <kprintf+0xd4c>
/home/liwenhaosuper/data/trustkernel/tsee/tsee/lib/libutils/isoc/snprintf.c:435
50008028:	e51b3018 	ldr	r3, [fp, #-24]	; 0xffffffe8
5000802c:	e3c33b01 	bic	r3, r3, #1024	; 0x400
50008030:	e50b3018 	str	r3, [fp, #-24]	; 0xffffffe8
/home/liwenhaosuper/data/trustkernel/tsee/tsee/lib/libutils/isoc/snprintf.c:442
50008034:	e24b3068 	sub	r3, fp, #104	; 0x68
50008038:	e2833017 	add	r3, r3, #23
5000803c:	e50b3014 	str	r3, [fp, #-20]	; 0xffffffec
/home/liwenhaosuper/data/trustkernel/tsee/tsee/lib/libutils/isoc/snprintf.c:443
50008040:	e14b23d4 	ldrd	r2, [fp, #-52]	; 0xffffffcc
50008044:	e1921003 	orrs	r1, r2, r3
50008048:	1a000002 	bne	50008058 <kprintf+0xd70>
5000804c:	e51b3024 	ldr	r3, [fp, #-36]	; 0xffffffdc
50008050:	e3530000 	cmp	r3, #0
50008054:	0a00007c 	beq	5000824c <kprintf+0xf64>
/home/liwenhaosuper/data/trustkernel/tsee/tsee/lib/libutils/isoc/snprintf.c:449
50008058:	e51b3038 	ldr	r3, [fp, #-56]	; 0xffffffc8
5000805c:	e3530001 	cmp	r3, #1
50008060:	0a000045 	beq	5000817c <kprintf+0xe94>
50008064:	e3530001 	cmp	r3, #1
50008068:	3a000002 	bcc	50008078 <kprintf+0xd90>
5000806c:	e3530002 	cmp	r3, #2
50008070:	0a000050 	beq	500081b8 <kprintf+0xed0>
50008074:	ea000066 	b	50008214 <kprintf+0xf2c>
/home/liwenhaosuper/data/trustkernel/tsee/tsee/lib/libutils/isoc/snprintf.c:452
50008078:	e51b3014 	ldr	r3, [fp, #-20]	; 0xffffffec
5000807c:	e2433001 	sub	r3, r3, #1
50008080:	e50b3014 	str	r3, [fp, #-20]	; 0xffffffec
50008084:	e55b3034 	ldrb	r3, [fp, #-52]	; 0xffffffcc
50008088:	e2033007 	and	r3, r3, #7
5000808c:	e6ef3073 	uxtb	r3, r3
50008090:	e2833030 	add	r3, r3, #48	; 0x30
50008094:	e6ef2073 	uxtb	r2, r3
50008098:	e51b3014 	ldr	r3, [fp, #-20]	; 0xffffffec
5000809c:	e5c32000 	strb	r2, [r3]
/home/liwenhaosuper/data/trustkernel/tsee/tsee/lib/libutils/isoc/snprintf.c:453
500080a0:	e51b3030 	ldr	r3, [fp, #-48]	; 0xffffffd0
500080a4:	e1a03e83 	lsl	r3, r3, #29
500080a8:	e51b2034 	ldr	r2, [fp, #-52]	; 0xffffffcc
500080ac:	e1a021a2 	lsr	r2, r2, #3
500080b0:	e1823003 	orr	r3, r2, r3
500080b4:	e50b3034 	str	r3, [fp, #-52]	; 0xffffffcc
500080b8:	e51b3030 	ldr	r3, [fp, #-48]	; 0xffffffd0
500080bc:	e1a031a3 	lsr	r3, r3, #3
500080c0:	e50b3030 	str	r3, [fp, #-48]	; 0xffffffd0
/home/liwenhaosuper/data/trustkernel/tsee/tsee/lib/libutils/isoc/snprintf.c:454
500080c4:	e14b23d4 	ldrd	r2, [fp, #-52]	; 0xffffffcc
500080c8:	e1921003 	orrs	r1, r2, r3
500080cc:	1affffe9 	bne	50008078 <kprintf+0xd90>
/home/liwenhaosuper/data/trustkernel/tsee/tsee/lib/libutils/isoc/snprintf.c:456
500080d0:	e51b3018 	ldr	r3, [fp, #-24]	; 0xffffffe8
500080d4:	e2033001 	and	r3, r3, #1
500080d8:	e6ef3073 	uxtb	r3, r3
500080dc:	e3530000 	cmp	r3, #0
500080e0:	0a000056 	beq	50008240 <kprintf+0xf58>
500080e4:	e51b3014 	ldr	r3, [fp, #-20]	; 0xffffffec
500080e8:	e5d33000 	ldrb	r3, [r3]
500080ec:	e3530030 	cmp	r3, #48	; 0x30
500080f0:	0a000054 	beq	50008248 <kprintf+0xf60>
/home/liwenhaosuper/data/trustkernel/tsee/tsee/lib/libutils/isoc/snprintf.c:457
500080f4:	e51b3014 	ldr	r3, [fp, #-20]	; 0xffffffec
500080f8:	e2433001 	sub	r3, r3, #1
500080fc:	e50b3014 	str	r3, [fp, #-20]	; 0xffffffec
50008100:	e51b3014 	ldr	r3, [fp, #-20]	; 0xffffffec
50008104:	e3a02030 	mov	r2, #48	; 0x30
50008108:	e5c32000 	strb	r2, [r3]
/home/liwenhaosuper/data/trustkernel/tsee/tsee/lib/libutils/isoc/snprintf.c:458
5000810c:	ea00004e 	b	5000824c <kprintf+0xf64>
/home/liwenhaosuper/data/trustkernel/tsee/tsee/lib/libutils/isoc/snprintf.c:463
50008110:	e51b3014 	ldr	r3, [fp, #-20]	; 0xffffffec
50008114:	e2433001 	sub	r3, r3, #1
50008118:	e50b3014 	str	r3, [fp, #-20]	; 0xffffffec
5000811c:	e14b23d4 	ldrd	r2, [fp, #-52]	; 0xffffffcc
50008120:	e308ca28 	movw	ip, #35368	; 0x8a28
50008124:	e345c000 	movt	ip, #20480	; 0x5000
50008128:	e1a00002 	mov	r0, r2
5000812c:	e1a01003 	mov	r1, r3
50008130:	e3a0200a 	mov	r2, #10
50008134:	e3a03000 	mov	r3, #0
50008138:	e12fff3c 	blx	ip
5000813c:	e6ef3072 	uxtb	r3, r2
50008140:	e2833030 	add	r3, r3, #48	; 0x30
50008144:	e6ef2073 	uxtb	r2, r3
50008148:	e51b3014 	ldr	r3, [fp, #-20]	; 0xffffffec
5000814c:	e5c32000 	strb	r2, [r3]
/home/liwenhaosuper/data/trustkernel/tsee/tsee/lib/libutils/isoc/snprintf.c:464
50008150:	e14b23d4 	ldrd	r2, [fp, #-52]	; 0xffffffcc
50008154:	e308ca28 	movw	ip, #35368	; 0x8a28
50008158:	e345c000 	movt	ip, #20480	; 0x5000
5000815c:	e1a00002 	mov	r0, r2
50008160:	e1a01003 	mov	r1, r3
50008164:	e3a0200a 	mov	r2, #10
50008168:	e3a03000 	mov	r3, #0
5000816c:	e12fff3c 	blx	ip
50008170:	e1a02000 	mov	r2, r0
50008174:	e1a03001 	mov	r3, r1
50008178:	e14b23f4 	strd	r2, [fp, #-52]	; 0xffffffcc
/home/liwenhaosuper/data/trustkernel/tsee/tsee/lib/libutils/isoc/snprintf.c:462
5000817c:	e14b23d4 	ldrd	r2, [fp, #-52]	; 0xffffffcc
50008180:	e3a00009 	mov	r0, #9
50008184:	e3a01000 	mov	r1, #0
50008188:	e1510003 	cmp	r1, r3
5000818c:	01500002 	cmpeq	r0, r2
50008190:	3affffde 	bcc	50008110 <kprintf+0xe28>
/home/liwenhaosuper/data/trustkernel/tsee/tsee/lib/libutils/isoc/snprintf.c:466
50008194:	e51b3014 	ldr	r3, [fp, #-20]	; 0xffffffec
50008198:	e2433001 	sub	r3, r3, #1
5000819c:	e50b3014 	str	r3, [fp, #-20]	; 0xffffffec
500081a0:	e55b3034 	ldrb	r3, [fp, #-52]	; 0xffffffcc
500081a4:	e2833030 	add	r3, r3, #48	; 0x30
500081a8:	e6ef2073 	uxtb	r2, r3
500081ac:	e51b3014 	ldr	r3, [fp, #-20]	; 0xffffffec
500081b0:	e5c32000 	strb	r2, [r3]
/home/liwenhaosuper/data/trustkernel/tsee/tsee/lib/libutils/isoc/snprintf.c:467
500081b4:	ea000024 	b	5000824c <kprintf+0xf64>
/home/liwenhaosuper/data/trustkernel/tsee/tsee/lib/libutils/isoc/snprintf.c:471
500081b8:	e51b3014 	ldr	r3, [fp, #-20]	; 0xffffffec
500081bc:	e2433001 	sub	r3, r3, #1
500081c0:	e50b3014 	str	r3, [fp, #-20]	; 0xffffffec
500081c4:	e51b3034 	ldr	r3, [fp, #-52]	; 0xffffffcc
500081c8:	e203300f 	and	r3, r3, #15
500081cc:	e51b2048 	ldr	r2, [fp, #-72]	; 0xffffffb8
500081d0:	e0823003 	add	r3, r2, r3
500081d4:	e5d32000 	ldrb	r2, [r3]
500081d8:	e51b3014 	ldr	r3, [fp, #-20]	; 0xffffffec
500081dc:	e5c32000 	strb	r2, [r3]
/home/liwenhaosuper/data/trustkernel/tsee/tsee/lib/libutils/isoc/snprintf.c:472
500081e0:	e51b3030 	ldr	r3, [fp, #-48]	; 0xffffffd0
500081e4:	e1a03e03 	lsl	r3, r3, #28
500081e8:	e51b2034 	ldr	r2, [fp, #-52]	; 0xffffffcc
500081ec:	e1a02222 	lsr	r2, r2, #4
500081f0:	e1823003 	orr	r3, r2, r3
500081f4:	e50b3034 	str	r3, [fp, #-52]	; 0xffffffcc
500081f8:	e51b3030 	ldr	r3, [fp, #-48]	; 0xffffffd0
500081fc:	e1a03223 	lsr	r3, r3, #4
50008200:	e50b3030 	str	r3, [fp, #-48]	; 0xffffffd0
/home/liwenhaosuper/data/trustkernel/tsee/tsee/lib/libutils/isoc/snprintf.c:473
50008204:	e14b23d4 	ldrd	r2, [fp, #-52]	; 0xffffffcc
50008208:	e1921003 	orrs	r1, r2, r3
5000820c:	1affffe9 	bne	500081b8 <kprintf+0xed0>
/home/liwenhaosuper/data/trustkernel/tsee/tsee/lib/libutils/isoc/snprintf.c:474
50008210:	ea00000d 	b	5000824c <kprintf+0xf64>
/home/liwenhaosuper/data/trustkernel/tsee/tsee/lib/libutils/isoc/snprintf.c:478
50008214:	e30a3568 	movw	r3, #42344	; 0xa568
50008218:	e3453000 	movt	r3, #20480	; 0x5000
5000821c:	e50b3014 	str	r3, [fp, #-20]	; 0xffffffec
/home/liwenhaosuper/data/trustkernel/tsee/tsee/lib/libutils/isoc/snprintf.c:479
50008220:	e51b0014 	ldr	r0, [fp, #-20]	; 0xffffffec
50008224:	e308393c 	movw	r3, #35132	; 0x893c
50008228:	e3453000 	movt	r3, #20480	; 0x5000
5000822c:	e12fff33 	blx	r3
50008230:	e1a03000 	mov	r3, r0
50008234:	e50b3044 	str	r3, [fp, #-68]	; 0xffffffbc
/home/liwenhaosuper/data/trustkernel/tsee/tsee/lib/libutils/isoc/snprintf.c:480
50008238:	e1a00000 	nop			; (mov r0, r0)
/home/liwenhaosuper/data/trustkernel/tsee/tsee/lib/libutils/isoc/snprintf.c:485
5000823c:	ea000017 	b	500082a0 <kprintf+0xfb8>
/home/liwenhaosuper/data/trustkernel/tsee/tsee/lib/libutils/isoc/snprintf.c:458
50008240:	e1a00000 	nop			; (mov r0, r0)
50008244:	ea000000 	b	5000824c <kprintf+0xf64>
50008248:	e1a00000 	nop			; (mov r0, r0)
/home/liwenhaosuper/data/trustkernel/tsee/tsee/lib/libutils/isoc/snprintf.c:483
5000824c:	e24b3068 	sub	r3, fp, #104	; 0x68
50008250:	e2833017 	add	r3, r3, #23
50008254:	e1a02003 	mov	r2, r3
50008258:	e51b3014 	ldr	r3, [fp, #-20]	; 0xffffffec
5000825c:	e0633002 	rsb	r3, r3, r2
50008260:	e50b3044 	str	r3, [fp, #-68]	; 0xffffffbc
/home/liwenhaosuper/data/trustkernel/tsee/tsee/lib/libutils/isoc/snprintf.c:485
50008264:	ea00000d 	b	500082a0 <kprintf+0xfb8>
/home/liwenhaosuper/data/trustkernel/tsee/tsee/lib/libutils/isoc/snprintf.c:487
50008268:	e51b300c 	ldr	r3, [fp, #-12]
5000826c:	e3530000 	cmp	r3, #0
50008270:	0a000124 	beq	50008708 <kprintf+0x1420>
/home/liwenhaosuper/data/trustkernel/tsee/tsee/lib/libutils/isoc/snprintf.c:490
50008274:	e24b3068 	sub	r3, fp, #104	; 0x68
50008278:	e50b3014 	str	r3, [fp, #-20]	; 0xffffffec
/home/liwenhaosuper/data/trustkernel/tsee/tsee/lib/libutils/isoc/snprintf.c:491
5000827c:	e51b300c 	ldr	r3, [fp, #-12]
50008280:	e6ef2073 	uxtb	r2, r3
50008284:	e51b3014 	ldr	r3, [fp, #-20]	; 0xffffffec
50008288:	e5c32000 	strb	r2, [r3]
/home/liwenhaosuper/data/trustkernel/tsee/tsee/lib/libutils/isoc/snprintf.c:492
5000828c:	e3a03001 	mov	r3, #1
50008290:	e50b3044 	str	r3, [fp, #-68]	; 0xffffffbc
/home/liwenhaosuper/data/trustkernel/tsee/tsee/lib/libutils/isoc/snprintf.c:493
50008294:	e3a03000 	mov	r3, #0
50008298:	e54b3025 	strb	r3, [fp, #-37]	; 0xffffffdb
/home/liwenhaosuper/data/trustkernel/tsee/tsee/lib/libutils/isoc/snprintf.c:494
5000829c:	e1a00000 	nop			; (mov r0, r0)
/home/liwenhaosuper/data/trustkernel/tsee/tsee/lib/libutils/isoc/snprintf.c:511
500082a0:	e51b2044 	ldr	r2, [fp, #-68]	; 0xffffffbc
500082a4:	e51b303c 	ldr	r3, [fp, #-60]	; 0xffffffc4
500082a8:	e1520003 	cmp	r2, r3
500082ac:	a1a03002 	movge	r3, r2
500082b0:	b1a03003 	movlt	r3, r3
500082b4:	e50b3040 	str	r3, [fp, #-64]	; 0xffffffc0
/home/liwenhaosuper/data/trustkernel/tsee/tsee/lib/libutils/isoc/snprintf.c:512
500082b8:	e55b3025 	ldrb	r3, [fp, #-37]	; 0xffffffdb
500082bc:	e3530000 	cmp	r3, #0
500082c0:	0a000003 	beq	500082d4 <kprintf+0xfec>
/home/liwenhaosuper/data/trustkernel/tsee/tsee/lib/libutils/isoc/snprintf.c:513
500082c4:	e51b3040 	ldr	r3, [fp, #-64]	; 0xffffffc0
500082c8:	e2833001 	add	r3, r3, #1
500082cc:	e50b3040 	str	r3, [fp, #-64]	; 0xffffffc0
500082d0:	ea000006 	b	500082f0 <kprintf+0x1008>
/home/liwenhaosuper/data/trustkernel/tsee/tsee/lib/libutils/isoc/snprintf.c:514
500082d4:	e51b3018 	ldr	r3, [fp, #-24]	; 0xffffffe8
500082d8:	e2033002 	and	r3, r3, #2
500082dc:	e3530000 	cmp	r3, #0
500082e0:	0a000002 	beq	500082f0 <kprintf+0x1008>
/home/liwenhaosuper/data/trustkernel/tsee/tsee/lib/libutils/isoc/snprintf.c:515
500082e4:	e51b3040 	ldr	r3, [fp, #-64]	; 0xffffffc0
500082e8:	e2833002 	add	r3, r3, #2
500082ec:	e50b3040 	str	r3, [fp, #-64]	; 0xffffffc0
/home/liwenhaosuper/data/trustkernel/tsee/tsee/lib/libutils/isoc/snprintf.c:518
500082f0:	e51b2040 	ldr	r2, [fp, #-64]	; 0xffffffc0
500082f4:	e51b3020 	ldr	r3, [fp, #-32]	; 0xffffffe0
500082f8:	e1520003 	cmp	r2, r3
500082fc:	a1a03002 	movge	r3, r2
50008300:	b1a03003 	movlt	r3, r3
50008304:	e51b201c 	ldr	r2, [fp, #-28]	; 0xffffffe4
50008308:	e0823003 	add	r3, r2, r3
5000830c:	e50b301c 	str	r3, [fp, #-28]	; 0xffffffe4
/home/liwenhaosuper/data/trustkernel/tsee/tsee/lib/libutils/isoc/snprintf.c:521
50008310:	e51b2018 	ldr	r2, [fp, #-24]	; 0xffffffe8
50008314:	e3003404 	movw	r3, #1028	; 0x404
50008318:	e0023003 	and	r3, r2, r3
5000831c:	e3530000 	cmp	r3, #0
50008320:	1a000021 	bne	500083ac <kprintf+0x10c4>
/home/liwenhaosuper/data/trustkernel/tsee/tsee/lib/libutils/isoc/snprintf.c:522
50008324:	e51b2020 	ldr	r2, [fp, #-32]	; 0xffffffe0
50008328:	e51b3040 	ldr	r3, [fp, #-64]	; 0xffffffc0
5000832c:	e0633002 	rsb	r3, r3, r2
50008330:	e50b3010 	str	r3, [fp, #-16]
/home/liwenhaosuper/data/trustkernel/tsee/tsee/lib/libutils/isoc/snprintf.c:523
50008334:	ea000012 	b	50008384 <kprintf+0x109c>
/home/liwenhaosuper/data/trustkernel/tsee/tsee/lib/libutils/isoc/snprintf.c:524
50008338:	e51b3074 	ldr	r3, [fp, #-116]	; 0xffffff8c
5000833c:	e3530008 	cmp	r3, #8
50008340:	1a00000f 	bne	50008384 <kprintf+0x109c>
50008344:	e51b307c 	ldr	r3, [fp, #-124]	; 0xffffff84
50008348:	e3530000 	cmp	r3, #0
5000834c:	0a00000c 	beq	50008384 <kprintf+0x109c>
50008350:	e51b3078 	ldr	r3, [fp, #-120]	; 0xffffff88
50008354:	e3530000 	cmp	r3, #0
50008358:	0a000003 	beq	5000836c <kprintf+0x1084>
5000835c:	e51b207c 	ldr	r2, [fp, #-124]	; 0xffffff84
50008360:	e51b304c 	ldr	r3, [fp, #-76]	; 0xffffffb4
50008364:	e1520003 	cmp	r2, r3
50008368:	2a000005 	bcs	50008384 <kprintf+0x109c>
5000836c:	e51b307c 	ldr	r3, [fp, #-124]	; 0xffffff84
50008370:	e3a02020 	mov	r2, #32
50008374:	e5c32000 	strb	r2, [r3]
50008378:	e51b307c 	ldr	r3, [fp, #-124]	; 0xffffff84
5000837c:	e2833001 	add	r3, r3, #1
50008380:	e50b307c 	str	r3, [fp, #-124]	; 0xffffff84
/home/liwenhaosuper/data/trustkernel/tsee/tsee/lib/libutils/isoc/snprintf.c:523
50008384:	e51b3010 	ldr	r3, [fp, #-16]
50008388:	e3530000 	cmp	r3, #0
5000838c:	d3a03000 	movle	r3, #0
50008390:	c3a03001 	movgt	r3, #1
50008394:	e6ef3073 	uxtb	r3, r3
50008398:	e51b2010 	ldr	r2, [fp, #-16]
5000839c:	e2422001 	sub	r2, r2, #1
500083a0:	e50b2010 	str	r2, [fp, #-16]
500083a4:	e3530000 	cmp	r3, #0
500083a8:	1affffe2 	bne	50008338 <kprintf+0x1050>
/home/liwenhaosuper/data/trustkernel/tsee/tsee/lib/libutils/isoc/snprintf.c:528
500083ac:	e55b3025 	ldrb	r3, [fp, #-37]	; 0xffffffdb
500083b0:	e3530000 	cmp	r3, #0
500083b4:	0a000013 	beq	50008408 <kprintf+0x1120>
/home/liwenhaosuper/data/trustkernel/tsee/tsee/lib/libutils/isoc/snprintf.c:529
500083b8:	e51b3074 	ldr	r3, [fp, #-116]	; 0xffffff8c
500083bc:	e3530008 	cmp	r3, #8
500083c0:	1a00003b 	bne	500084b4 <kprintf+0x11cc>
500083c4:	e51b307c 	ldr	r3, [fp, #-124]	; 0xffffff84
500083c8:	e3530000 	cmp	r3, #0
500083cc:	0a000038 	beq	500084b4 <kprintf+0x11cc>
500083d0:	e51b3078 	ldr	r3, [fp, #-120]	; 0xffffff88
500083d4:	e3530000 	cmp	r3, #0
500083d8:	0a000003 	beq	500083ec <kprintf+0x1104>
500083dc:	e51b207c 	ldr	r2, [fp, #-124]	; 0xffffff84
500083e0:	e51b304c 	ldr	r3, [fp, #-76]	; 0xffffffb4
500083e4:	e1520003 	cmp	r2, r3
500083e8:	2a000031 	bcs	500084b4 <kprintf+0x11cc>
500083ec:	e51b307c 	ldr	r3, [fp, #-124]	; 0xffffff84
500083f0:	e55b2025 	ldrb	r2, [fp, #-37]	; 0xffffffdb
500083f4:	e5c32000 	strb	r2, [r3]
500083f8:	e51b307c 	ldr	r3, [fp, #-124]	; 0xffffff84
500083fc:	e2833001 	add	r3, r3, #1
50008400:	e50b307c 	str	r3, [fp, #-124]	; 0xffffff84
50008404:	ea00002a 	b	500084b4 <kprintf+0x11cc>
/home/liwenhaosuper/data/trustkernel/tsee/tsee/lib/libutils/isoc/snprintf.c:530
50008408:	e51b3018 	ldr	r3, [fp, #-24]	; 0xffffffe8
5000840c:	e2033002 	and	r3, r3, #2
50008410:	e3530000 	cmp	r3, #0
50008414:	0a000026 	beq	500084b4 <kprintf+0x11cc>
/home/liwenhaosuper/data/trustkernel/tsee/tsee/lib/libutils/isoc/snprintf.c:531
50008418:	e51b3074 	ldr	r3, [fp, #-116]	; 0xffffff8c
5000841c:	e3530008 	cmp	r3, #8
50008420:	1a00000f 	bne	50008464 <kprintf+0x117c>
50008424:	e51b307c 	ldr	r3, [fp, #-124]	; 0xffffff84
50008428:	e3530000 	cmp	r3, #0
5000842c:	0a00000c 	beq	50008464 <kprintf+0x117c>
50008430:	e51b3078 	ldr	r3, [fp, #-120]	; 0xffffff88
50008434:	e3530000 	cmp	r3, #0
50008438:	0a000003 	beq	5000844c <kprintf+0x1164>
5000843c:	e51b207c 	ldr	r2, [fp, #-124]	; 0xffffff84
50008440:	e51b304c 	ldr	r3, [fp, #-76]	; 0xffffffb4
50008444:	e1520003 	cmp	r2, r3
50008448:	2a000005 	bcs	50008464 <kprintf+0x117c>
5000844c:	e51b307c 	ldr	r3, [fp, #-124]	; 0xffffff84
50008450:	e3a02030 	mov	r2, #48	; 0x30
50008454:	e5c32000 	strb	r2, [r3]
50008458:	e51b307c 	ldr	r3, [fp, #-124]	; 0xffffff84
5000845c:	e2833001 	add	r3, r3, #1
50008460:	e50b307c 	str	r3, [fp, #-124]	; 0xffffff84
/home/liwenhaosuper/data/trustkernel/tsee/tsee/lib/libutils/isoc/snprintf.c:532
50008464:	e51b3074 	ldr	r3, [fp, #-116]	; 0xffffff8c
50008468:	e3530008 	cmp	r3, #8
5000846c:	1a000010 	bne	500084b4 <kprintf+0x11cc>
50008470:	e51b307c 	ldr	r3, [fp, #-124]	; 0xffffff84
50008474:	e3530000 	cmp	r3, #0
50008478:	0a00000d 	beq	500084b4 <kprintf+0x11cc>
5000847c:	e51b3078 	ldr	r3, [fp, #-120]	; 0xffffff88
50008480:	e3530000 	cmp	r3, #0
50008484:	0a000003 	beq	50008498 <kprintf+0x11b0>
50008488:	e51b207c 	ldr	r2, [fp, #-124]	; 0xffffff84
5000848c:	e51b304c 	ldr	r3, [fp, #-76]	; 0xffffffb4
50008490:	e1520003 	cmp	r2, r3
50008494:	2a000006 	bcs	500084b4 <kprintf+0x11cc>
50008498:	e51b300c 	ldr	r3, [fp, #-12]
5000849c:	e6ef2073 	uxtb	r2, r3
500084a0:	e51b307c 	ldr	r3, [fp, #-124]	; 0xffffff84
500084a4:	e5c32000 	strb	r2, [r3]
500084a8:	e51b307c 	ldr	r3, [fp, #-124]	; 0xffffff84
500084ac:	e2833001 	add	r3, r3, #1
500084b0:	e50b307c 	str	r3, [fp, #-124]	; 0xffffff84
/home/liwenhaosuper/data/trustkernel/tsee/tsee/lib/libutils/isoc/snprintf.c:536
500084b4:	e51b2018 	ldr	r2, [fp, #-24]	; 0xffffffe8
500084b8:	e3003404 	movw	r3, #1028	; 0x404
500084bc:	e0023003 	and	r3, r2, r3
500084c0:	e3530b01 	cmp	r3, #1024	; 0x400
500084c4:	1a000021 	bne	50008550 <kprintf+0x1268>
/home/liwenhaosuper/data/trustkernel/tsee/tsee/lib/libutils/isoc/snprintf.c:537
500084c8:	e51b2020 	ldr	r2, [fp, #-32]	; 0xffffffe0
500084cc:	e51b3040 	ldr	r3, [fp, #-64]	; 0xffffffc0
500084d0:	e0633002 	rsb	r3, r3, r2
500084d4:	e50b3010 	str	r3, [fp, #-16]
/home/liwenhaosuper/data/trustkernel/tsee/tsee/lib/libutils/isoc/snprintf.c:538
500084d8:	ea000012 	b	50008528 <kprintf+0x1240>
/home/liwenhaosuper/data/trustkernel/tsee/tsee/lib/libutils/isoc/snprintf.c:539
500084dc:	e51b3074 	ldr	r3, [fp, #-116]	; 0xffffff8c
500084e0:	e3530008 	cmp	r3, #8
500084e4:	1a00000f 	bne	50008528 <kprintf+0x1240>
500084e8:	e51b307c 	ldr	r3, [fp, #-124]	; 0xffffff84
500084ec:	e3530000 	cmp	r3, #0
500084f0:	0a00000c 	beq	50008528 <kprintf+0x1240>
500084f4:	e51b3078 	ldr	r3, [fp, #-120]	; 0xffffff88
500084f8:	e3530000 	cmp	r3, #0
500084fc:	0a000003 	beq	50008510 <kprintf+0x1228>
50008500:	e51b207c 	ldr	r2, [fp, #-124]	; 0xffffff84
50008504:	e51b304c 	ldr	r3, [fp, #-76]	; 0xffffffb4
50008508:	e1520003 	cmp	r2, r3
5000850c:	2a000005 	bcs	50008528 <kprintf+0x1240>
50008510:	e51b307c 	ldr	r3, [fp, #-124]	; 0xffffff84
50008514:	e3a02030 	mov	r2, #48	; 0x30
50008518:	e5c32000 	strb	r2, [r3]
5000851c:	e51b307c 	ldr	r3, [fp, #-124]	; 0xffffff84
50008520:	e2833001 	add	r3, r3, #1
50008524:	e50b307c 	str	r3, [fp, #-124]	; 0xffffff84
/home/liwenhaosuper/data/trustkernel/tsee/tsee/lib/libutils/isoc/snprintf.c:538
50008528:	e51b3010 	ldr	r3, [fp, #-16]
5000852c:	e3530000 	cmp	r3, #0
50008530:	d3a03000 	movle	r3, #0
50008534:	c3a03001 	movgt	r3, #1
50008538:	e6ef3073 	uxtb	r3, r3
5000853c:	e51b2010 	ldr	r2, [fp, #-16]
50008540:	e2422001 	sub	r2, r2, #1
50008544:	e50b2010 	str	r2, [fp, #-16]
50008548:	e3530000 	cmp	r3, #0
5000854c:	1affffe2 	bne	500084dc <kprintf+0x11f4>
/home/liwenhaosuper/data/trustkernel/tsee/tsee/lib/libutils/isoc/snprintf.c:543
50008550:	e51b203c 	ldr	r2, [fp, #-60]	; 0xffffffc4
50008554:	e51b3044 	ldr	r3, [fp, #-68]	; 0xffffffbc
50008558:	e0633002 	rsb	r3, r3, r2
5000855c:	e50b3010 	str	r3, [fp, #-16]
/home/liwenhaosuper/data/trustkernel/tsee/tsee/lib/libutils/isoc/snprintf.c:544
50008560:	ea000012 	b	500085b0 <kprintf+0x12c8>
/home/liwenhaosuper/data/trustkernel/tsee/tsee/lib/libutils/isoc/snprintf.c:545
50008564:	e51b3074 	ldr	r3, [fp, #-116]	; 0xffffff8c
50008568:	e3530008 	cmp	r3, #8
5000856c:	1a00000f 	bne	500085b0 <kprintf+0x12c8>
50008570:	e51b307c 	ldr	r3, [fp, #-124]	; 0xffffff84
50008574:	e3530000 	cmp	r3, #0
50008578:	0a00000c 	beq	500085b0 <kprintf+0x12c8>
5000857c:	e51b3078 	ldr	r3, [fp, #-120]	; 0xffffff88
50008580:	e3530000 	cmp	r3, #0
50008584:	0a000003 	beq	50008598 <kprintf+0x12b0>
50008588:	e51b207c 	ldr	r2, [fp, #-124]	; 0xffffff84
5000858c:	e51b304c 	ldr	r3, [fp, #-76]	; 0xffffffb4
50008590:	e1520003 	cmp	r2, r3
50008594:	2a000005 	bcs	500085b0 <kprintf+0x12c8>
50008598:	e51b307c 	ldr	r3, [fp, #-124]	; 0xffffff84
5000859c:	e3a02030 	mov	r2, #48	; 0x30
500085a0:	e5c32000 	strb	r2, [r3]
500085a4:	e51b307c 	ldr	r3, [fp, #-124]	; 0xffffff84
500085a8:	e2833001 	add	r3, r3, #1
500085ac:	e50b307c 	str	r3, [fp, #-124]	; 0xffffff84
/home/liwenhaosuper/data/trustkernel/tsee/tsee/lib/libutils/isoc/snprintf.c:544
500085b0:	e51b3010 	ldr	r3, [fp, #-16]
500085b4:	e3530000 	cmp	r3, #0
500085b8:	d3a03000 	movle	r3, #0
500085bc:	c3a03001 	movgt	r3, #1
500085c0:	e6ef3073 	uxtb	r3, r3
500085c4:	e51b2010 	ldr	r2, [fp, #-16]
500085c8:	e2422001 	sub	r2, r2, #1
500085cc:	e50b2010 	str	r2, [fp, #-16]
500085d0:	e3530000 	cmp	r3, #0
500085d4:	1affffe2 	bne	50008564 <kprintf+0x127c>
/home/liwenhaosuper/data/trustkernel/tsee/tsee/lib/libutils/isoc/snprintf.c:548
500085d8:	ea000016 	b	50008638 <kprintf+0x1350>
/home/liwenhaosuper/data/trustkernel/tsee/tsee/lib/libutils/isoc/snprintf.c:549
500085dc:	e51b3074 	ldr	r3, [fp, #-116]	; 0xffffff8c
500085e0:	e3530008 	cmp	r3, #8
500085e4:	1a000010 	bne	5000862c <kprintf+0x1344>
500085e8:	e51b307c 	ldr	r3, [fp, #-124]	; 0xffffff84
500085ec:	e3530000 	cmp	r3, #0
500085f0:	0a00000d 	beq	5000862c <kprintf+0x1344>
500085f4:	e51b3078 	ldr	r3, [fp, #-120]	; 0xffffff88
500085f8:	e3530000 	cmp	r3, #0
500085fc:	0a000003 	beq	50008610 <kprintf+0x1328>
50008600:	e51b207c 	ldr	r2, [fp, #-124]	; 0xffffff84
50008604:	e51b304c 	ldr	r3, [fp, #-76]	; 0xffffffb4
50008608:	e1520003 	cmp	r2, r3
5000860c:	2a000006 	bcs	5000862c <kprintf+0x1344>
50008610:	e51b3014 	ldr	r3, [fp, #-20]	; 0xffffffec
50008614:	e5d32000 	ldrb	r2, [r3]
50008618:	e51b307c 	ldr	r3, [fp, #-124]	; 0xffffff84
5000861c:	e5c32000 	strb	r2, [r3]
50008620:	e51b307c 	ldr	r3, [fp, #-124]	; 0xffffff84
50008624:	e2833001 	add	r3, r3, #1
50008628:	e50b307c 	str	r3, [fp, #-124]	; 0xffffff84
/home/liwenhaosuper/data/trustkernel/tsee/tsee/lib/libutils/isoc/snprintf.c:548
5000862c:	e51b3014 	ldr	r3, [fp, #-20]	; 0xffffffec
50008630:	e2833001 	add	r3, r3, #1
50008634:	e50b3014 	str	r3, [fp, #-20]	; 0xffffffec
50008638:	e51b3044 	ldr	r3, [fp, #-68]	; 0xffffffbc
5000863c:	e3530000 	cmp	r3, #0
50008640:	03a03000 	moveq	r3, #0
50008644:	13a03001 	movne	r3, #1
50008648:	e6ef3073 	uxtb	r3, r3
5000864c:	e51b2044 	ldr	r2, [fp, #-68]	; 0xffffffbc
50008650:	e2422001 	sub	r2, r2, #1
50008654:	e50b2044 	str	r2, [fp, #-68]	; 0xffffffbc
50008658:	e3530000 	cmp	r3, #0
5000865c:	1affffde 	bne	500085dc <kprintf+0x12f4>
/home/liwenhaosuper/data/trustkernel/tsee/tsee/lib/libutils/isoc/snprintf.c:551
50008660:	e51b3018 	ldr	r3, [fp, #-24]	; 0xffffffe8
50008664:	e2033004 	and	r3, r3, #4
50008668:	e3530000 	cmp	r3, #0
5000866c:	0a000021 	beq	500086f8 <kprintf+0x1410>
/home/liwenhaosuper/data/trustkernel/tsee/tsee/lib/libutils/isoc/snprintf.c:552
50008670:	e51b2020 	ldr	r2, [fp, #-32]	; 0xffffffe0
50008674:	e51b3040 	ldr	r3, [fp, #-64]	; 0xffffffc0
50008678:	e0633002 	rsb	r3, r3, r2
5000867c:	e50b3010 	str	r3, [fp, #-16]
/home/liwenhaosuper/data/trustkernel/tsee/tsee/lib/libutils/isoc/snprintf.c:553
50008680:	ea000012 	b	500086d0 <kprintf+0x13e8>
/home/liwenhaosuper/data/trustkernel/tsee/tsee/lib/libutils/isoc/snprintf.c:554
50008684:	e51b3074 	ldr	r3, [fp, #-116]	; 0xffffff8c
50008688:	e3530008 	cmp	r3, #8
5000868c:	1a00000f 	bne	500086d0 <kprintf+0x13e8>
50008690:	e51b307c 	ldr	r3, [fp, #-124]	; 0xffffff84
50008694:	e3530000 	cmp	r3, #0
50008698:	0a00000c 	beq	500086d0 <kprintf+0x13e8>
5000869c:	e51b3078 	ldr	r3, [fp, #-120]	; 0xffffff88
500086a0:	e3530000 	cmp	r3, #0
500086a4:	0a000003 	beq	500086b8 <kprintf+0x13d0>
500086a8:	e51b207c 	ldr	r2, [fp, #-124]	; 0xffffff84
500086ac:	e51b304c 	ldr	r3, [fp, #-76]	; 0xffffffb4
500086b0:	e1520003 	cmp	r2, r3
500086b4:	2a000005 	bcs	500086d0 <kprintf+0x13e8>
500086b8:	e51b307c 	ldr	r3, [fp, #-124]	; 0xffffff84
500086bc:	e3a02020 	mov	r2, #32
500086c0:	e5c32000 	strb	r2, [r3]
500086c4:	e51b307c 	ldr	r3, [fp, #-124]	; 0xffffff84
500086c8:	e2833001 	add	r3, r3, #1
500086cc:	e50b307c 	str	r3, [fp, #-124]	; 0xffffff84
/home/liwenhaosuper/data/trustkernel/tsee/tsee/lib/libutils/isoc/snprintf.c:553
500086d0:	e51b3010 	ldr	r3, [fp, #-16]
500086d4:	e3530000 	cmp	r3, #0
500086d8:	d3a03000 	movle	r3, #0
500086dc:	c3a03001 	movgt	r3, #1
500086e0:	e6ef3073 	uxtb	r3, r3
500086e4:	e51b2010 	ldr	r2, [fp, #-16]
500086e8:	e2422001 	sub	r2, r2, #1
500086ec:	e50b2010 	str	r2, [fp, #-16]
500086f0:	e3530000 	cmp	r3, #0
500086f4:	1affffe2 	bne	50008684 <kprintf+0x139c>
/home/liwenhaosuper/data/trustkernel/tsee/tsee/lib/libutils/isoc/snprintf.c:556
500086f8:	e1a00000 	nop			; (mov r0, r0)
/home/liwenhaosuper/data/trustkernel/tsee/tsee/lib/libutils/isoc/snprintf.c:233
500086fc:	eafffb31 	b	500073c8 <kprintf+0xe0>
/home/liwenhaosuper/data/trustkernel/tsee/tsee/lib/libutils/isoc/snprintf.c:238
50008700:	e1a00000 	nop			; (mov r0, r0)
50008704:	ea000000 	b	5000870c <kprintf+0x1424>
/home/liwenhaosuper/data/trustkernel/tsee/tsee/lib/libutils/isoc/snprintf.c:488
50008708:	e1a00000 	nop			; (mov r0, r0)
/home/liwenhaosuper/data/trustkernel/tsee/tsee/lib/libutils/isoc/snprintf.c:559
5000870c:	e51b3074 	ldr	r3, [fp, #-116]	; 0xffffff8c
50008710:	e3530008 	cmp	r3, #8
50008714:	1a000005 	bne	50008730 <kprintf+0x1448>
50008718:	e51b3078 	ldr	r3, [fp, #-120]	; 0xffffff88
5000871c:	e3530000 	cmp	r3, #0
50008720:	0a000002 	beq	50008730 <kprintf+0x1448>
/home/liwenhaosuper/data/trustkernel/tsee/tsee/lib/libutils/isoc/snprintf.c:560
50008724:	e51b3078 	ldr	r3, [fp, #-120]	; 0xffffff88
50008728:	e51b207c 	ldr	r2, [fp, #-124]	; 0xffffff84
5000872c:	e5832000 	str	r2, [r3]
/home/liwenhaosuper/data/trustkernel/tsee/tsee/lib/libutils/isoc/snprintf.c:561
50008730:	e51b301c 	ldr	r3, [fp, #-28]	; 0xffffffe4
/home/liwenhaosuper/data/trustkernel/tsee/tsee/lib/libutils/isoc/snprintf.c:562
50008734:	e1a00003 	mov	r0, r3
50008738:	e24bd004 	sub	sp, fp, #4
5000873c:	e8bd8800 	pop	{fp, pc}

50008740 <memchr>:
memchr():
/home/liwenhaosuper/data/trustkernel/tsee/tsee/lib/libutils/isoc/newlib/memchr.c:117
50008740:	e52db004 	push	{fp}		; (str fp, [sp, #-4]!)
50008744:	e28db000 	add	fp, sp, #0
50008748:	e24dd02c 	sub	sp, sp, #44	; 0x2c
5000874c:	e50b0020 	str	r0, [fp, #-32]	; 0xffffffe0
50008750:	e50b1024 	str	r1, [fp, #-36]	; 0xffffffdc
50008754:	e50b2028 	str	r2, [fp, #-40]	; 0xffffffd8
/home/liwenhaosuper/data/trustkernel/tsee/tsee/lib/libutils/isoc/newlib/memchr.c:118
50008758:	e51b3020 	ldr	r3, [fp, #-32]	; 0xffffffe0
5000875c:	e50b3008 	str	r3, [fp, #-8]
/home/liwenhaosuper/data/trustkernel/tsee/tsee/lib/libutils/isoc/newlib/memchr.c:119
50008760:	e51b3024 	ldr	r3, [fp, #-36]	; 0xffffffdc
50008764:	e54b3015 	strb	r3, [fp, #-21]	; 0xffffffeb
/home/liwenhaosuper/data/trustkernel/tsee/tsee/lib/libutils/isoc/newlib/memchr.c:126
50008768:	ea000015 	b	500087c4 <memchr+0x84>
/home/liwenhaosuper/data/trustkernel/tsee/tsee/lib/libutils/isoc/newlib/memchr.c:127
5000876c:	e51b3028 	ldr	r3, [fp, #-40]	; 0xffffffd8
50008770:	e3530000 	cmp	r3, #0
50008774:	13a03000 	movne	r3, #0
50008778:	03a03001 	moveq	r3, #1
5000877c:	e6ef3073 	uxtb	r3, r3
50008780:	e51b2028 	ldr	r2, [fp, #-40]	; 0xffffffd8
50008784:	e2422001 	sub	r2, r2, #1
50008788:	e50b2028 	str	r2, [fp, #-40]	; 0xffffffd8
5000878c:	e3530000 	cmp	r3, #0
50008790:	0a000001 	beq	5000879c <memchr+0x5c>
/home/liwenhaosuper/data/trustkernel/tsee/tsee/lib/libutils/isoc/newlib/memchr.c:128
50008794:	e3a03000 	mov	r3, #0
50008798:	ea000063 	b	5000892c <memchr+0x1ec>
/home/liwenhaosuper/data/trustkernel/tsee/tsee/lib/libutils/isoc/newlib/memchr.c:129
5000879c:	e51b3008 	ldr	r3, [fp, #-8]
500087a0:	e5d33000 	ldrb	r3, [r3]
500087a4:	e55b2015 	ldrb	r2, [fp, #-21]	; 0xffffffeb
500087a8:	e1520003 	cmp	r2, r3
500087ac:	1a000001 	bne	500087b8 <memchr+0x78>
/home/liwenhaosuper/data/trustkernel/tsee/tsee/lib/libutils/isoc/newlib/memchr.c:130
500087b0:	e51b3008 	ldr	r3, [fp, #-8]
500087b4:	ea00005c 	b	5000892c <memchr+0x1ec>
/home/liwenhaosuper/data/trustkernel/tsee/tsee/lib/libutils/isoc/newlib/memchr.c:131
500087b8:	e51b3008 	ldr	r3, [fp, #-8]
500087bc:	e2833001 	add	r3, r3, #1
500087c0:	e50b3008 	str	r3, [fp, #-8]
/home/liwenhaosuper/data/trustkernel/tsee/tsee/lib/libutils/isoc/newlib/memchr.c:126
500087c4:	e51b3008 	ldr	r3, [fp, #-8]
500087c8:	e2033003 	and	r3, r3, #3
500087cc:	e3530000 	cmp	r3, #0
500087d0:	1affffe5 	bne	5000876c <memchr+0x2c>
/home/liwenhaosuper/data/trustkernel/tsee/tsee/lib/libutils/isoc/newlib/memchr.c:134
500087d4:	e51b3028 	ldr	r3, [fp, #-40]	; 0xffffffd8
500087d8:	e3530003 	cmp	r3, #3
500087dc:	9a000046 	bls	500088fc <memchr+0x1bc>
/home/liwenhaosuper/data/trustkernel/tsee/tsee/lib/libutils/isoc/newlib/memchr.c:143
500087e0:	e51b3008 	ldr	r3, [fp, #-8]
500087e4:	e50b300c 	str	r3, [fp, #-12]
/home/liwenhaosuper/data/trustkernel/tsee/tsee/lib/libutils/isoc/newlib/memchr.c:144
500087e8:	e55b3015 	ldrb	r3, [fp, #-21]	; 0xffffffeb
500087ec:	e1a02403 	lsl	r2, r3, #8
500087f0:	e55b3015 	ldrb	r3, [fp, #-21]	; 0xffffffeb
500087f4:	e1823003 	orr	r3, r2, r3
500087f8:	e50b3010 	str	r3, [fp, #-16]
/home/liwenhaosuper/data/trustkernel/tsee/tsee/lib/libutils/isoc/newlib/memchr.c:145
500087fc:	e51b3010 	ldr	r3, [fp, #-16]
50008800:	e1a03803 	lsl	r3, r3, #16
50008804:	e51b2010 	ldr	r2, [fp, #-16]
50008808:	e1823003 	orr	r3, r2, r3
5000880c:	e50b3010 	str	r3, [fp, #-16]
/home/liwenhaosuper/data/trustkernel/tsee/tsee/lib/libutils/isoc/newlib/memchr.c:146
50008810:	e3a03020 	mov	r3, #32
50008814:	e50b3014 	str	r3, [fp, #-20]	; 0xffffffec
50008818:	ea000008 	b	50008840 <memchr+0x100>
/home/liwenhaosuper/data/trustkernel/tsee/tsee/lib/libutils/isoc/newlib/memchr.c:147
5000881c:	e51b2010 	ldr	r2, [fp, #-16]
50008820:	e51b3014 	ldr	r3, [fp, #-20]	; 0xffffffec
50008824:	e1a03312 	lsl	r3, r2, r3
50008828:	e51b2010 	ldr	r2, [fp, #-16]
5000882c:	e1823003 	orr	r3, r2, r3
50008830:	e50b3010 	str	r3, [fp, #-16]
/home/liwenhaosuper/data/trustkernel/tsee/tsee/lib/libutils/isoc/newlib/memchr.c:146
50008834:	e51b3014 	ldr	r3, [fp, #-20]	; 0xffffffec
50008838:	e1a03083 	lsl	r3, r3, #1
5000883c:	e50b3014 	str	r3, [fp, #-20]	; 0xffffffec
50008840:	e51b3014 	ldr	r3, [fp, #-20]	; 0xffffffec
50008844:	e353001f 	cmp	r3, #31
50008848:	9afffff3 	bls	5000881c <memchr+0xdc>
/home/liwenhaosuper/data/trustkernel/tsee/tsee/lib/libutils/isoc/newlib/memchr.c:149
5000884c:	ea000017 	b	500088b0 <memchr+0x170>
/home/liwenhaosuper/data/trustkernel/tsee/tsee/lib/libutils/isoc/newlib/memchr.c:150
50008850:	e51b300c 	ldr	r3, [fp, #-12]
50008854:	e5932000 	ldr	r2, [r3]
50008858:	e51b3010 	ldr	r3, [fp, #-16]
5000885c:	e0222003 	eor	r2, r2, r3
50008860:	e30f3eff 	movw	r3, #65279	; 0xfeff
50008864:	e34f3efe 	movt	r3, #65278	; 0xfefe
50008868:	e0823003 	add	r3, r2, r3
5000886c:	e51b200c 	ldr	r2, [fp, #-12]
50008870:	e5921000 	ldr	r1, [r2]
50008874:	e51b2010 	ldr	r2, [fp, #-16]
50008878:	e0212002 	eor	r2, r1, r2
5000887c:	e1e02002 	mvn	r2, r2
50008880:	e0032002 	and	r2, r3, r2
50008884:	e3083080 	movw	r3, #32896	; 0x8080
50008888:	e3483080 	movt	r3, #32896	; 0x8080
5000888c:	e0023003 	and	r3, r2, r3
50008890:	e3530000 	cmp	r3, #0
50008894:	1a000009 	bne	500088c0 <memchr+0x180>
/home/liwenhaosuper/data/trustkernel/tsee/tsee/lib/libutils/isoc/newlib/memchr.c:152
50008898:	e51b3028 	ldr	r3, [fp, #-40]	; 0xffffffd8
5000889c:	e2433004 	sub	r3, r3, #4
500088a0:	e50b3028 	str	r3, [fp, #-40]	; 0xffffffd8
/home/liwenhaosuper/data/trustkernel/tsee/tsee/lib/libutils/isoc/newlib/memchr.c:153
500088a4:	e51b300c 	ldr	r3, [fp, #-12]
500088a8:	e2833004 	add	r3, r3, #4
500088ac:	e50b300c 	str	r3, [fp, #-12]
/home/liwenhaosuper/data/trustkernel/tsee/tsee/lib/libutils/isoc/newlib/memchr.c:149
500088b0:	e51b3028 	ldr	r3, [fp, #-40]	; 0xffffffd8
500088b4:	e3530003 	cmp	r3, #3
500088b8:	8affffe4 	bhi	50008850 <memchr+0x110>
500088bc:	ea000000 	b	500088c4 <memchr+0x184>
/home/liwenhaosuper/data/trustkernel/tsee/tsee/lib/libutils/isoc/newlib/memchr.c:151
500088c0:	e1a00000 	nop			; (mov r0, r0)
/home/liwenhaosuper/data/trustkernel/tsee/tsee/lib/libutils/isoc/newlib/memchr.c:159
500088c4:	e51b300c 	ldr	r3, [fp, #-12]
500088c8:	e50b3008 	str	r3, [fp, #-8]
/home/liwenhaosuper/data/trustkernel/tsee/tsee/lib/libutils/isoc/newlib/memchr.c:163
500088cc:	ea00000b 	b	50008900 <memchr+0x1c0>
/home/liwenhaosuper/data/trustkernel/tsee/tsee/lib/libutils/isoc/newlib/memchr.c:164
500088d0:	e51b3008 	ldr	r3, [fp, #-8]
500088d4:	e5d33000 	ldrb	r3, [r3]
500088d8:	e55b2015 	ldrb	r2, [fp, #-21]	; 0xffffffeb
500088dc:	e1520003 	cmp	r2, r3
500088e0:	1a000001 	bne	500088ec <memchr+0x1ac>
/home/liwenhaosuper/data/trustkernel/tsee/tsee/lib/libutils/isoc/newlib/memchr.c:165
500088e4:	e51b3008 	ldr	r3, [fp, #-8]
500088e8:	ea00000f 	b	5000892c <memchr+0x1ec>
/home/liwenhaosuper/data/trustkernel/tsee/tsee/lib/libutils/isoc/newlib/memchr.c:166
500088ec:	e51b3008 	ldr	r3, [fp, #-8]
500088f0:	e2833001 	add	r3, r3, #1
500088f4:	e50b3008 	str	r3, [fp, #-8]
500088f8:	ea000000 	b	50008900 <memchr+0x1c0>
/home/liwenhaosuper/data/trustkernel/tsee/tsee/lib/libutils/isoc/newlib/memchr.c:163
500088fc:	e1a00000 	nop			; (mov r0, r0)
50008900:	e51b3028 	ldr	r3, [fp, #-40]	; 0xffffffd8
50008904:	e3530000 	cmp	r3, #0
50008908:	03a03000 	moveq	r3, #0
5000890c:	13a03001 	movne	r3, #1
50008910:	e6ef3073 	uxtb	r3, r3
50008914:	e51b2028 	ldr	r2, [fp, #-40]	; 0xffffffd8
50008918:	e2422001 	sub	r2, r2, #1
5000891c:	e50b2028 	str	r2, [fp, #-40]	; 0xffffffd8
50008920:	e3530000 	cmp	r3, #0
50008924:	1affffe9 	bne	500088d0 <memchr+0x190>
/home/liwenhaosuper/data/trustkernel/tsee/tsee/lib/libutils/isoc/newlib/memchr.c:169
50008928:	e3a03000 	mov	r3, #0
/home/liwenhaosuper/data/trustkernel/tsee/tsee/lib/libutils/isoc/newlib/memchr.c:170
5000892c:	e1a00003 	mov	r0, r3
50008930:	e28bd000 	add	sp, fp, #0
50008934:	e49db004 	pop	{fp}		; (ldr fp, [sp], #4)
50008938:	e12fff1e 	bx	lr

5000893c <strlen>:
strlen():
/home/liwenhaosuper/data/trustkernel/tsee/tsee/lib/libutils/isoc/newlib/strlen.c:102
5000893c:	e52db004 	push	{fp}		; (str fp, [sp, #-4]!)
50008940:	e28db000 	add	fp, sp, #0
50008944:	e24dd014 	sub	sp, sp, #20
50008948:	e50b0010 	str	r0, [fp, #-16]
/home/liwenhaosuper/data/trustkernel/tsee/tsee/lib/libutils/isoc/newlib/strlen.c:103
5000894c:	e51b3010 	ldr	r3, [fp, #-16]
50008950:	e50b300c 	str	r3, [fp, #-12]
/home/liwenhaosuper/data/trustkernel/tsee/tsee/lib/libutils/isoc/newlib/strlen.c:109
50008954:	ea00000a 	b	50008984 <strlen+0x48>
/home/liwenhaosuper/data/trustkernel/tsee/tsee/lib/libutils/isoc/newlib/strlen.c:110
50008958:	e51b3010 	ldr	r3, [fp, #-16]
5000895c:	e5d33000 	ldrb	r3, [r3]
50008960:	e3530000 	cmp	r3, #0
50008964:	1a000003 	bne	50008978 <strlen+0x3c>
/home/liwenhaosuper/data/trustkernel/tsee/tsee/lib/libutils/isoc/newlib/strlen.c:111
50008968:	e51b2010 	ldr	r2, [fp, #-16]
5000896c:	e51b300c 	ldr	r3, [fp, #-12]
50008970:	e0633002 	rsb	r3, r3, r2
50008974:	ea000027 	b	50008a18 <strlen+0xdc>
/home/liwenhaosuper/data/trustkernel/tsee/tsee/lib/libutils/isoc/newlib/strlen.c:112
50008978:	e51b3010 	ldr	r3, [fp, #-16]
5000897c:	e2833001 	add	r3, r3, #1
50008980:	e50b3010 	str	r3, [fp, #-16]
/home/liwenhaosuper/data/trustkernel/tsee/tsee/lib/libutils/isoc/newlib/strlen.c:109
50008984:	e51b3010 	ldr	r3, [fp, #-16]
50008988:	e2033003 	and	r3, r3, #3
5000898c:	e3530000 	cmp	r3, #0
50008990:	1afffff0 	bne	50008958 <strlen+0x1c>
/home/liwenhaosuper/data/trustkernel/tsee/tsee/lib/libutils/isoc/newlib/strlen.c:117
50008994:	e51b3010 	ldr	r3, [fp, #-16]
50008998:	e50b3008 	str	r3, [fp, #-8]
/home/liwenhaosuper/data/trustkernel/tsee/tsee/lib/libutils/isoc/newlib/strlen.c:118
5000899c:	ea000002 	b	500089ac <strlen+0x70>
/home/liwenhaosuper/data/trustkernel/tsee/tsee/lib/libutils/isoc/newlib/strlen.c:119
500089a0:	e51b3008 	ldr	r3, [fp, #-8]
500089a4:	e2833004 	add	r3, r3, #4
500089a8:	e50b3008 	str	r3, [fp, #-8]
/home/liwenhaosuper/data/trustkernel/tsee/tsee/lib/libutils/isoc/newlib/strlen.c:118
500089ac:	e51b3008 	ldr	r3, [fp, #-8]
500089b0:	e5932000 	ldr	r2, [r3]
500089b4:	e30f3eff 	movw	r3, #65279	; 0xfeff
500089b8:	e34f3efe 	movt	r3, #65278	; 0xfefe
500089bc:	e0823003 	add	r3, r2, r3
500089c0:	e51b2008 	ldr	r2, [fp, #-8]
500089c4:	e5922000 	ldr	r2, [r2]
500089c8:	e1e02002 	mvn	r2, r2
500089cc:	e0032002 	and	r2, r3, r2
500089d0:	e3083080 	movw	r3, #32896	; 0x8080
500089d4:	e3483080 	movt	r3, #32896	; 0x8080
500089d8:	e0023003 	and	r3, r2, r3
500089dc:	e3530000 	cmp	r3, #0
500089e0:	0affffee 	beq	500089a0 <strlen+0x64>
/home/liwenhaosuper/data/trustkernel/tsee/tsee/lib/libutils/isoc/newlib/strlen.c:123
500089e4:	e51b3008 	ldr	r3, [fp, #-8]
500089e8:	e50b3010 	str	r3, [fp, #-16]
/home/liwenhaosuper/data/trustkernel/tsee/tsee/lib/libutils/isoc/newlib/strlen.c:127
500089ec:	ea000002 	b	500089fc <strlen+0xc0>
/home/liwenhaosuper/data/trustkernel/tsee/tsee/lib/libutils/isoc/newlib/strlen.c:128
500089f0:	e51b3010 	ldr	r3, [fp, #-16]
500089f4:	e2833001 	add	r3, r3, #1
500089f8:	e50b3010 	str	r3, [fp, #-16]
/home/liwenhaosuper/data/trustkernel/tsee/tsee/lib/libutils/isoc/newlib/strlen.c:127
500089fc:	e51b3010 	ldr	r3, [fp, #-16]
50008a00:	e5d33000 	ldrb	r3, [r3]
50008a04:	e3530000 	cmp	r3, #0
50008a08:	1afffff8 	bne	500089f0 <strlen+0xb4>
/home/liwenhaosuper/data/trustkernel/tsee/tsee/lib/libutils/isoc/newlib/strlen.c:129
50008a0c:	e51b2010 	ldr	r2, [fp, #-16]
50008a10:	e51b300c 	ldr	r3, [fp, #-12]
50008a14:	e0633002 	rsb	r3, r3, r2
/home/liwenhaosuper/data/trustkernel/tsee/tsee/lib/libutils/isoc/newlib/strlen.c:130
50008a18:	e1a00003 	mov	r0, r3
50008a1c:	e28bd000 	add	sp, fp, #0
50008a20:	e49db004 	pop	{fp}		; (ldr fp, [sp], #4)
50008a24:	e12fff1e 	bx	lr

50008a28 <__aeabi_uldivmod>:
__aeabi_uldivmod():
/home/gopu/wdir/toolchain/gopu/build/gcc/arm-none-eabi/libgcc/../../../../gcc-4.5-2010.09/libgcc/../gcc/config/arm/bpabi.S:93
50008a28:	e3530000 	cmp	r3, #0
50008a2c:	03520000 	cmpeq	r2, #0
50008a30:	1a000004 	bne	50008a48 <__aeabi_uldivmod+0x20>
50008a34:	e3510000 	cmp	r1, #0
50008a38:	03500000 	cmpeq	r0, #0
50008a3c:	13e01000 	mvnne	r1, #0
50008a40:	13e00000 	mvnne	r0, #0
50008a44:	ea000026 	b	50008ae4 <__aeabi_idiv0>
/home/gopu/wdir/toolchain/gopu/build/gcc/arm-none-eabi/libgcc/../../../../gcc-4.5-2010.09/libgcc/../gcc/config/arm/bpabi.S:139
50008a48:	e24dd008 	sub	sp, sp, #8
/home/gopu/wdir/toolchain/gopu/build/gcc/arm-none-eabi/libgcc/../../../../gcc-4.5-2010.09/libgcc/../gcc/config/arm/bpabi.S:145
50008a4c:	e92d6000 	push	{sp, lr}
/home/gopu/wdir/toolchain/gopu/build/gcc/arm-none-eabi/libgcc/../../../../gcc-4.5-2010.09/libgcc/../gcc/config/arm/bpabi.S:147
50008a50:	eb000013 	bl	50008aa4 <__gnu_uldivmod_helper>
/home/gopu/wdir/toolchain/gopu/build/gcc/arm-none-eabi/libgcc/../../../../gcc-4.5-2010.09/libgcc/../gcc/config/arm/bpabi.S:148
50008a54:	e59de004 	ldr	lr, [sp, #4]
/home/gopu/wdir/toolchain/gopu/build/gcc/arm-none-eabi/libgcc/../../../../gcc-4.5-2010.09/libgcc/../gcc/config/arm/bpabi.S:149
50008a58:	e28dd008 	add	sp, sp, #8
/home/gopu/wdir/toolchain/gopu/build/gcc/arm-none-eabi/libgcc/../../../../gcc-4.5-2010.09/libgcc/../gcc/config/arm/bpabi.S:150
50008a5c:	e8bd000c 	pop	{r2, r3}
/home/gopu/wdir/toolchain/gopu/build/gcc/arm-none-eabi/libgcc/../../../../gcc-4.5-2010.09/libgcc/../gcc/config/arm/bpabi.S:151
50008a60:	e12fff1e 	bx	lr

50008a64 <__gnu_ldivmod_helper>:
__gnu_ldivmod_helper():
/home/gopu/wdir/toolchain/gopu/build/gcc/arm-none-eabi/libgcc/../../../../gcc-4.5-2010.09/libgcc/../gcc/config/arm/bpabi.c:38
50008a64:	e92d40f8 	push	{r3, r4, r5, r6, r7, lr}
50008a68:	e1a04002 	mov	r4, r2
50008a6c:	e1a07003 	mov	r7, r3
50008a70:	e1a05000 	mov	r5, r0
50008a74:	e1a06001 	mov	r6, r1
/home/gopu/wdir/toolchain/gopu/build/gcc/arm-none-eabi/libgcc/../../../../gcc-4.5-2010.09/libgcc/../gcc/config/arm/bpabi.c:41
50008a78:	eb00001a 	bl	50008ae8 <__divdi3>
/home/gopu/wdir/toolchain/gopu/build/gcc/arm-none-eabi/libgcc/../../../../gcc-4.5-2010.09/libgcc/../gcc/config/arm/bpabi.c:42
50008a7c:	e0070790 	mul	r7, r0, r7
50008a80:	e0832490 	umull	r2, r3, r0, r4
50008a84:	e0247491 	mla	r4, r1, r4, r7
50008a88:	e0843003 	add	r3, r4, r3
50008a8c:	e0555002 	subs	r5, r5, r2
50008a90:	e0c66003 	sbc	r6, r6, r3
50008a94:	e59d3018 	ldr	r3, [sp, #24]
50008a98:	e8830060 	stm	r3, {r5, r6}
/home/gopu/wdir/toolchain/gopu/build/gcc/arm-none-eabi/libgcc/../../../../gcc-4.5-2010.09/libgcc/../gcc/config/arm/bpabi.c:44
50008a9c:	e8bd40f8 	pop	{r3, r4, r5, r6, r7, lr}
50008aa0:	e12fff1e 	bx	lr

50008aa4 <__gnu_uldivmod_helper>:
__gnu_uldivmod_helper():
/home/gopu/wdir/toolchain/gopu/build/gcc/arm-none-eabi/libgcc/../../../../gcc-4.5-2010.09/libgcc/../gcc/config/arm/bpabi.c:50
50008aa4:	e92d40f8 	push	{r3, r4, r5, r6, r7, lr}
50008aa8:	e1a04002 	mov	r4, r2
50008aac:	e1a07003 	mov	r7, r3
50008ab0:	e1a05000 	mov	r5, r0
50008ab4:	e1a06001 	mov	r6, r1
/home/gopu/wdir/toolchain/gopu/build/gcc/arm-none-eabi/libgcc/../../../../gcc-4.5-2010.09/libgcc/../gcc/config/arm/bpabi.c:53
50008ab8:	eb000134 	bl	50008f90 <__udivdi3>
/home/gopu/wdir/toolchain/gopu/build/gcc/arm-none-eabi/libgcc/../../../../gcc-4.5-2010.09/libgcc/../gcc/config/arm/bpabi.c:54
50008abc:	e0070790 	mul	r7, r0, r7
50008ac0:	e0832490 	umull	r2, r3, r0, r4
50008ac4:	e0247491 	mla	r4, r1, r4, r7
50008ac8:	e0843003 	add	r3, r4, r3
50008acc:	e0555002 	subs	r5, r5, r2
50008ad0:	e0c66003 	sbc	r6, r6, r3
50008ad4:	e59d3018 	ldr	r3, [sp, #24]
50008ad8:	e8830060 	stm	r3, {r5, r6}
/home/gopu/wdir/toolchain/gopu/build/gcc/arm-none-eabi/libgcc/../../../../gcc-4.5-2010.09/libgcc/../gcc/config/arm/bpabi.c:56
50008adc:	e8bd40f8 	pop	{r3, r4, r5, r6, r7, lr}
50008ae0:	e12fff1e 	bx	lr

50008ae4 <__aeabi_idiv0>:
__aeabi_idiv0():
/home/gopu/wdir/toolchain/gopu/build/gcc/arm-none-eabi/libgcc/../../../../gcc-4.5-2010.09/libgcc/../gcc/config/arm/lib1funcs.asm:1275
50008ae4:	e12fff1e 	bx	lr

50008ae8 <__divdi3>:
__divdi3():
/home/gopu/wdir/toolchain/gopu/build/gcc/arm-none-eabi/libgcc/../../../../gcc-4.5-2010.09/libgcc/../gcc/libgcc2.c:1080
50008ae8:	e92d4ff0 	push	{r4, r5, r6, r7, r8, r9, sl, fp, lr}
/home/gopu/wdir/toolchain/gopu/build/gcc/arm-none-eabi/libgcc/../../../../gcc-4.5-2010.09/libgcc/../gcc/libgcc2.c:1086
50008aec:	e3510000 	cmp	r1, #0
/home/gopu/wdir/toolchain/gopu/build/gcc/arm-none-eabi/libgcc/../../../../gcc-4.5-2010.09/libgcc/../gcc/libgcc2.c:1080
50008af0:	e24dd014 	sub	sp, sp, #20
/home/gopu/wdir/toolchain/gopu/build/gcc/arm-none-eabi/libgcc/../../../../gcc-4.5-2010.09/libgcc/../gcc/libgcc2.c:1083
50008af4:	e1a0c003 	mov	ip, r3
/home/gopu/wdir/toolchain/gopu/build/gcc/arm-none-eabi/libgcc/../../../../gcc-4.5-2010.09/libgcc/../gcc/libgcc2.c:1081
50008af8:	a3a07000 	movge	r7, #0
/home/gopu/wdir/toolchain/gopu/build/gcc/arm-none-eabi/libgcc/../../../../gcc-4.5-2010.09/libgcc/../gcc/libgcc2.c:1086
50008afc:	ba000094 	blt	50008d54 <__divdi3+0x26c>
/home/gopu/wdir/toolchain/gopu/build/gcc/arm-none-eabi/libgcc/../../../../gcc-4.5-2010.09/libgcc/../gcc/libgcc2.c:1089
50008b00:	e35c0000 	cmp	ip, #0
50008b04:	ba00008e 	blt	50008d44 <__divdi3+0x25c>
__udivmoddi4():
/home/gopu/wdir/toolchain/gopu/build/gcc/arm-none-eabi/libgcc/../../../../gcc-4.5-2010.09/libgcc/../gcc/libgcc2.c:913
50008b08:	e253a000 	subs	sl, r3, #0
/home/gopu/wdir/toolchain/gopu/build/gcc/arm-none-eabi/libgcc/../../../../gcc-4.5-2010.09/libgcc/../gcc/libgcc2.c:866
50008b0c:	e1a0b000 	mov	fp, r0
50008b10:	e1a08001 	mov	r8, r1
/home/gopu/wdir/toolchain/gopu/build/gcc/arm-none-eabi/libgcc/../../../../gcc-4.5-2010.09/libgcc/../gcc/libgcc2.c:867
50008b14:	e1a09002 	mov	r9, r2
/home/gopu/wdir/toolchain/gopu/build/gcc/arm-none-eabi/libgcc/../../../../gcc-4.5-2010.09/libgcc/../gcc/libgcc2.c:873
50008b18:	e1a04002 	mov	r4, r2
/home/gopu/wdir/toolchain/gopu/build/gcc/arm-none-eabi/libgcc/../../../../gcc-4.5-2010.09/libgcc/../gcc/libgcc2.c:875
50008b1c:	e1a05000 	mov	r5, r0
/home/gopu/wdir/toolchain/gopu/build/gcc/arm-none-eabi/libgcc/../../../../gcc-4.5-2010.09/libgcc/../gcc/libgcc2.c:876
50008b20:	e1a06001 	mov	r6, r1
/home/gopu/wdir/toolchain/gopu/build/gcc/arm-none-eabi/libgcc/../../../../gcc-4.5-2010.09/libgcc/../gcc/libgcc2.c:913
50008b24:	1a00003e 	bne	50008c24 <__divdi3+0x13c>
/home/gopu/wdir/toolchain/gopu/build/gcc/arm-none-eabi/libgcc/../../../../gcc-4.5-2010.09/libgcc/../gcc/libgcc2.c:915
50008b28:	e1520001 	cmp	r2, r1
50008b2c:	9a00004c 	bls	50008c64 <__divdi3+0x17c>
/home/gopu/wdir/toolchain/gopu/build/gcc/arm-none-eabi/libgcc/../../../../gcc-4.5-2010.09/libgcc/../gcc/libgcc2.c:919
50008b30:	e1a00002 	mov	r0, r2
50008b34:	eb000268 	bl	500094dc <__clzsi2>
/home/gopu/wdir/toolchain/gopu/build/gcc/arm-none-eabi/libgcc/../../../../gcc-4.5-2010.09/libgcc/../gcc/libgcc2.c:921
50008b38:	e3500000 	cmp	r0, #0
/home/gopu/wdir/toolchain/gopu/build/gcc/arm-none-eabi/libgcc/../../../../gcc-4.5-2010.09/libgcc/../gcc/libgcc2.c:927
50008b3c:	12603020 	rsbne	r3, r0, #32
50008b40:	11a0333b 	lsrne	r3, fp, r3
/home/gopu/wdir/toolchain/gopu/build/gcc/arm-none-eabi/libgcc/../../../../gcc-4.5-2010.09/libgcc/../gcc/libgcc2.c:926
50008b44:	11a04019 	lslne	r4, r9, r0
/home/gopu/wdir/toolchain/gopu/build/gcc/arm-none-eabi/libgcc/../../../../gcc-4.5-2010.09/libgcc/../gcc/libgcc2.c:927
50008b48:	11836018 	orrne	r6, r3, r8, lsl r0
/home/gopu/wdir/toolchain/gopu/build/gcc/arm-none-eabi/libgcc/../../../../gcc-4.5-2010.09/libgcc/../gcc/libgcc2.c:931
50008b4c:	e1a09824 	lsr	r9, r4, #16
/home/gopu/wdir/toolchain/gopu/build/gcc/arm-none-eabi/libgcc/../../../../gcc-4.5-2010.09/libgcc/../gcc/libgcc2.c:928
50008b50:	11a0501b 	lslne	r5, fp, r0
/home/gopu/wdir/toolchain/gopu/build/gcc/arm-none-eabi/libgcc/../../../../gcc-4.5-2010.09/libgcc/../gcc/libgcc2.c:931
50008b54:	e1a01009 	mov	r1, r9
50008b58:	e1a00006 	mov	r0, r6
50008b5c:	eb000219 	bl	500093c8 <__aeabi_uidiv>
50008b60:	e1a01009 	mov	r1, r9
50008b64:	e1a0a000 	mov	sl, r0
50008b68:	e1a00006 	mov	r0, r6
50008b6c:	eb000252 	bl	500094bc <__aeabi_uidivmod>
50008b70:	e1a08804 	lsl	r8, r4, #16
50008b74:	e1a08828 	lsr	r8, r8, #16
50008b78:	e0030a98 	mul	r3, r8, sl
50008b7c:	e1a0b825 	lsr	fp, r5, #16
50008b80:	e18bb801 	orr	fp, fp, r1, lsl #16
50008b84:	e153000b 	cmp	r3, fp
50008b88:	9a000005 	bls	50008ba4 <__divdi3+0xbc>
50008b8c:	e09bb004 	adds	fp, fp, r4
50008b90:	e24aa001 	sub	sl, sl, #1
50008b94:	2a000002 	bcs	50008ba4 <__divdi3+0xbc>
50008b98:	e153000b 	cmp	r3, fp
50008b9c:	824aa001 	subhi	sl, sl, #1
50008ba0:	808bb004 	addhi	fp, fp, r4
50008ba4:	e063b00b 	rsb	fp, r3, fp
50008ba8:	e1a01009 	mov	r1, r9
50008bac:	e1a0000b 	mov	r0, fp
50008bb0:	eb000204 	bl	500093c8 <__aeabi_uidiv>
50008bb4:	e1a01009 	mov	r1, r9
50008bb8:	e1a06000 	mov	r6, r0
50008bbc:	e1a0000b 	mov	r0, fp
50008bc0:	eb00023d 	bl	500094bc <__aeabi_uidivmod>
50008bc4:	e0080896 	mul	r8, r6, r8
50008bc8:	e1a00805 	lsl	r0, r5, #16
50008bcc:	e1a05820 	lsr	r5, r0, #16
50008bd0:	e1855801 	orr	r5, r5, r1, lsl #16
50008bd4:	e1580005 	cmp	r8, r5
50008bd8:	9a000004 	bls	50008bf0 <__divdi3+0x108>
50008bdc:	e0955004 	adds	r5, r5, r4
50008be0:	e2466001 	sub	r6, r6, #1
50008be4:	2a000001 	bcs	50008bf0 <__divdi3+0x108>
50008be8:	e1580005 	cmp	r8, r5
50008bec:	82466001 	subhi	r6, r6, #1
50008bf0:	e186680a 	orr	r6, r6, sl, lsl #16
50008bf4:	e3a09000 	mov	r9, #0
__divdi3():
/home/gopu/wdir/toolchain/gopu/build/gcc/arm-none-eabi/libgcc/../../../../gcc-4.5-2010.09/libgcc/../gcc/libgcc2.c:1094
50008bf8:	e3570000 	cmp	r7, #0
__udivmoddi4():
/home/gopu/wdir/toolchain/gopu/build/gcc/arm-none-eabi/libgcc/../../../../gcc-4.5-2010.09/libgcc/../gcc/libgcc2.c:1072
50008bfc:	e1a03006 	mov	r3, r6
50008c00:	e1a04009 	mov	r4, r9
__divdi3():
/home/gopu/wdir/toolchain/gopu/build/gcc/arm-none-eabi/libgcc/../../../../gcc-4.5-2010.09/libgcc/../gcc/libgcc2.c:1094
50008c04:	0a000001 	beq	50008c10 <__divdi3+0x128>
/home/gopu/wdir/toolchain/gopu/build/gcc/arm-none-eabi/libgcc/../../../../gcc-4.5-2010.09/libgcc/../gcc/libgcc2.c:1095
50008c08:	e2733000 	rsbs	r3, r3, #0
50008c0c:	e2e44000 	rsc	r4, r4, #0
/home/gopu/wdir/toolchain/gopu/build/gcc/arm-none-eabi/libgcc/../../../../gcc-4.5-2010.09/libgcc/../gcc/libgcc2.c:1098
50008c10:	e1a00003 	mov	r0, r3
50008c14:	e1a01004 	mov	r1, r4
50008c18:	e28dd014 	add	sp, sp, #20
50008c1c:	e8bd4ff0 	pop	{r4, r5, r6, r7, r8, r9, sl, fp, lr}
50008c20:	e12fff1e 	bx	lr
__udivmoddi4():
/home/gopu/wdir/toolchain/gopu/build/gcc/arm-none-eabi/libgcc/../../../../gcc-4.5-2010.09/libgcc/../gcc/libgcc2.c:989
50008c24:	e15a0001 	cmp	sl, r1
50008c28:	83a09000 	movhi	r9, #0
50008c2c:	81a06009 	movhi	r6, r9
50008c30:	8afffff0 	bhi	50008bf8 <__divdi3+0x110>
/home/gopu/wdir/toolchain/gopu/build/gcc/arm-none-eabi/libgcc/../../../../gcc-4.5-2010.09/libgcc/../gcc/libgcc2.c:1008
50008c34:	e1a00003 	mov	r0, r3
50008c38:	eb000227 	bl	500094dc <__clzsi2>
/home/gopu/wdir/toolchain/gopu/build/gcc/arm-none-eabi/libgcc/../../../../gcc-4.5-2010.09/libgcc/../gcc/libgcc2.c:1009
50008c3c:	e2504000 	subs	r4, r0, #0
50008c40:	1a00007a 	bne	50008e30 <__divdi3+0x348>
/home/gopu/wdir/toolchain/gopu/build/gcc/arm-none-eabi/libgcc/../../../../gcc-4.5-2010.09/libgcc/../gcc/libgcc2.c:1019
50008c44:	e15a0008 	cmp	sl, r8
50008c48:	2159000b 	cmpcs	r9, fp
50008c4c:	83a09000 	movhi	r9, #0
50008c50:	93a09001 	movls	r9, #1
/home/gopu/wdir/toolchain/gopu/build/gcc/arm-none-eabi/libgcc/../../../../gcc-4.5-2010.09/libgcc/../gcc/libgcc2.c:1022
50008c54:	93a06001 	movls	r6, #1
50008c58:	91a09004 	movls	r9, r4
/home/gopu/wdir/toolchain/gopu/build/gcc/arm-none-eabi/libgcc/../../../../gcc-4.5-2010.09/libgcc/../gcc/libgcc2.c:1019
50008c5c:	81a06009 	movhi	r6, r9
50008c60:	eaffffe4 	b	50008bf8 <__divdi3+0x110>
/home/gopu/wdir/toolchain/gopu/build/gcc/arm-none-eabi/libgcc/../../../../gcc-4.5-2010.09/libgcc/../gcc/libgcc2.c:940
50008c64:	e3520000 	cmp	r2, #0
50008c68:	1a000003 	bne	50008c7c <__divdi3+0x194>
/home/gopu/wdir/toolchain/gopu/build/gcc/arm-none-eabi/libgcc/../../../../gcc-4.5-2010.09/libgcc/../gcc/libgcc2.c:941
50008c6c:	e3a00001 	mov	r0, #1
50008c70:	e1a01002 	mov	r1, r2
50008c74:	eb0001d3 	bl	500093c8 <__aeabi_uidiv>
50008c78:	e1a04000 	mov	r4, r0
/home/gopu/wdir/toolchain/gopu/build/gcc/arm-none-eabi/libgcc/../../../../gcc-4.5-2010.09/libgcc/../gcc/libgcc2.c:943
50008c7c:	e1a00004 	mov	r0, r4
50008c80:	eb000215 	bl	500094dc <__clzsi2>
/home/gopu/wdir/toolchain/gopu/build/gcc/arm-none-eabi/libgcc/../../../../gcc-4.5-2010.09/libgcc/../gcc/libgcc2.c:945
50008c84:	e2503000 	subs	r3, r0, #0
50008c88:	1a000035 	bne	50008d64 <__divdi3+0x27c>
/home/gopu/wdir/toolchain/gopu/build/gcc/arm-none-eabi/libgcc/../../../../gcc-4.5-2010.09/libgcc/../gcc/libgcc2.c:955
50008c8c:	e3a01001 	mov	r1, #1
/home/gopu/wdir/toolchain/gopu/build/gcc/arm-none-eabi/libgcc/../../../../gcc-4.5-2010.09/libgcc/../gcc/libgcc2.c:954
50008c90:	e1a09804 	lsl	r9, r4, #16
/home/gopu/wdir/toolchain/gopu/build/gcc/arm-none-eabi/libgcc/../../../../gcc-4.5-2010.09/libgcc/../gcc/libgcc2.c:955
50008c94:	e58d1008 	str	r1, [sp, #8]
/home/gopu/wdir/toolchain/gopu/build/gcc/arm-none-eabi/libgcc/../../../../gcc-4.5-2010.09/libgcc/../gcc/libgcc2.c:954
50008c98:	e0646006 	rsb	r6, r4, r6
50008c9c:	e1a08824 	lsr	r8, r4, #16
50008ca0:	e1a09829 	lsr	r9, r9, #16
/home/gopu/wdir/toolchain/gopu/build/gcc/arm-none-eabi/libgcc/../../../../gcc-4.5-2010.09/libgcc/../gcc/libgcc2.c:973
50008ca4:	e1a01008 	mov	r1, r8
50008ca8:	e1a00006 	mov	r0, r6
50008cac:	eb0001c5 	bl	500093c8 <__aeabi_uidiv>
50008cb0:	e1a01008 	mov	r1, r8
50008cb4:	e1a0a000 	mov	sl, r0
50008cb8:	e1a00006 	mov	r0, r6
50008cbc:	eb0001fe 	bl	500094bc <__aeabi_uidivmod>
50008cc0:	e0030a99 	mul	r3, r9, sl
50008cc4:	e1a0c825 	lsr	ip, r5, #16
50008cc8:	e18cb801 	orr	fp, ip, r1, lsl #16
50008ccc:	e153000b 	cmp	r3, fp
50008cd0:	9a000005 	bls	50008cec <__divdi3+0x204>
50008cd4:	e09bb004 	adds	fp, fp, r4
50008cd8:	e24aa001 	sub	sl, sl, #1
50008cdc:	2a000002 	bcs	50008cec <__divdi3+0x204>
50008ce0:	e153000b 	cmp	r3, fp
50008ce4:	824aa001 	subhi	sl, sl, #1
50008ce8:	808bb004 	addhi	fp, fp, r4
50008cec:	e063b00b 	rsb	fp, r3, fp
50008cf0:	e1a01008 	mov	r1, r8
50008cf4:	e1a0000b 	mov	r0, fp
50008cf8:	eb0001b2 	bl	500093c8 <__aeabi_uidiv>
50008cfc:	e1a01008 	mov	r1, r8
50008d00:	e1a06000 	mov	r6, r0
50008d04:	e1a0000b 	mov	r0, fp
50008d08:	eb0001eb 	bl	500094bc <__aeabi_uidivmod>
50008d0c:	e0090996 	mul	r9, r6, r9
50008d10:	e1a00805 	lsl	r0, r5, #16
50008d14:	e1a05820 	lsr	r5, r0, #16
50008d18:	e1855801 	orr	r5, r5, r1, lsl #16
50008d1c:	e1590005 	cmp	r9, r5
50008d20:	9a000004 	bls	50008d38 <__divdi3+0x250>
50008d24:	e0955004 	adds	r5, r5, r4
50008d28:	e2466001 	sub	r6, r6, #1
50008d2c:	2a000001 	bcs	50008d38 <__divdi3+0x250>
50008d30:	e1590005 	cmp	r9, r5
50008d34:	82466001 	subhi	r6, r6, #1
50008d38:	e186680a 	orr	r6, r6, sl, lsl #16
50008d3c:	e59d9008 	ldr	r9, [sp, #8]
50008d40:	eaffffac 	b	50008bf8 <__divdi3+0x110>
__divdi3():
/home/gopu/wdir/toolchain/gopu/build/gcc/arm-none-eabi/libgcc/../../../../gcc-4.5-2010.09/libgcc/../gcc/libgcc2.c:1090
50008d44:	e1e07007 	mvn	r7, r7
/home/gopu/wdir/toolchain/gopu/build/gcc/arm-none-eabi/libgcc/../../../../gcc-4.5-2010.09/libgcc/../gcc/libgcc2.c:1091
50008d48:	e2722000 	rsbs	r2, r2, #0
50008d4c:	e2e33000 	rsc	r3, r3, #0
50008d50:	eaffff6c 	b	50008b08 <__divdi3+0x20>
/home/gopu/wdir/toolchain/gopu/build/gcc/arm-none-eabi/libgcc/../../../../gcc-4.5-2010.09/libgcc/../gcc/libgcc2.c:1088
50008d54:	e2700000 	rsbs	r0, r0, #0
50008d58:	e2e11000 	rsc	r1, r1, #0
/home/gopu/wdir/toolchain/gopu/build/gcc/arm-none-eabi/libgcc/../../../../gcc-4.5-2010.09/libgcc/../gcc/libgcc2.c:1087
50008d5c:	e3e07000 	mvn	r7, #0
50008d60:	eaffff66 	b	50008b00 <__divdi3+0x18>
__udivmoddi4():
/home/gopu/wdir/toolchain/gopu/build/gcc/arm-none-eabi/libgcc/../../../../gcc-4.5-2010.09/libgcc/../gcc/libgcc2.c:961
50008d64:	e2638020 	rsb	r8, r3, #32
/home/gopu/wdir/toolchain/gopu/build/gcc/arm-none-eabi/libgcc/../../../../gcc-4.5-2010.09/libgcc/../gcc/libgcc2.c:965
50008d68:	e1a0b835 	lsr	fp, r5, r8
/home/gopu/wdir/toolchain/gopu/build/gcc/arm-none-eabi/libgcc/../../../../gcc-4.5-2010.09/libgcc/../gcc/libgcc2.c:963
50008d6c:	e1a04314 	lsl	r4, r4, r3
/home/gopu/wdir/toolchain/gopu/build/gcc/arm-none-eabi/libgcc/../../../../gcc-4.5-2010.09/libgcc/../gcc/libgcc2.c:964
50008d70:	e1a0a836 	lsr	sl, r6, r8
/home/gopu/wdir/toolchain/gopu/build/gcc/arm-none-eabi/libgcc/../../../../gcc-4.5-2010.09/libgcc/../gcc/libgcc2.c:965
50008d74:	e18be316 	orr	lr, fp, r6, lsl r3
/home/gopu/wdir/toolchain/gopu/build/gcc/arm-none-eabi/libgcc/../../../../gcc-4.5-2010.09/libgcc/../gcc/libgcc2.c:968
50008d78:	e1a08824 	lsr	r8, r4, #16
50008d7c:	e1a0c804 	lsl	ip, r4, #16
50008d80:	e1a01008 	mov	r1, r8
50008d84:	e1a0000a 	mov	r0, sl
50008d88:	e1a0982c 	lsr	r9, ip, #16
/home/gopu/wdir/toolchain/gopu/build/gcc/arm-none-eabi/libgcc/../../../../gcc-4.5-2010.09/libgcc/../gcc/libgcc2.c:966
50008d8c:	e1a05315 	lsl	r5, r5, r3
/home/gopu/wdir/toolchain/gopu/build/gcc/arm-none-eabi/libgcc/../../../../gcc-4.5-2010.09/libgcc/../gcc/libgcc2.c:965
50008d90:	e58de008 	str	lr, [sp, #8]
/home/gopu/wdir/toolchain/gopu/build/gcc/arm-none-eabi/libgcc/../../../../gcc-4.5-2010.09/libgcc/../gcc/libgcc2.c:968
50008d94:	eb00018b 	bl	500093c8 <__aeabi_uidiv>
50008d98:	e1a01008 	mov	r1, r8
50008d9c:	e1a0b000 	mov	fp, r0
50008da0:	e1a0000a 	mov	r0, sl
50008da4:	eb0001c4 	bl	500094bc <__aeabi_uidivmod>
50008da8:	e0030b99 	mul	r3, r9, fp
50008dac:	e59d2008 	ldr	r2, [sp, #8]
50008db0:	e1a06822 	lsr	r6, r2, #16
50008db4:	e1866801 	orr	r6, r6, r1, lsl #16
50008db8:	e1530006 	cmp	r3, r6
50008dbc:	9a000002 	bls	50008dcc <__divdi3+0x2e4>
50008dc0:	e0966004 	adds	r6, r6, r4
50008dc4:	e24bb001 	sub	fp, fp, #1
50008dc8:	3a00006c 	bcc	50008f80 <__divdi3+0x498>
50008dcc:	e0636006 	rsb	r6, r3, r6
50008dd0:	e1a01008 	mov	r1, r8
50008dd4:	e1a00006 	mov	r0, r6
50008dd8:	eb00017a 	bl	500093c8 <__aeabi_uidiv>
50008ddc:	e1a01008 	mov	r1, r8
50008de0:	e1a0a000 	mov	sl, r0
50008de4:	e1a00006 	mov	r0, r6
50008de8:	eb0001b3 	bl	500094bc <__aeabi_uidivmod>
50008dec:	e0030a99 	mul	r3, r9, sl
50008df0:	e59d2008 	ldr	r2, [sp, #8]
50008df4:	e1a06802 	lsl	r6, r2, #16
50008df8:	e1a00826 	lsr	r0, r6, #16
50008dfc:	e1806801 	orr	r6, r0, r1, lsl #16
50008e00:	e1530006 	cmp	r3, r6
50008e04:	9a000005 	bls	50008e20 <__divdi3+0x338>
50008e08:	e0966004 	adds	r6, r6, r4
50008e0c:	e24aa001 	sub	sl, sl, #1
50008e10:	2a000002 	bcs	50008e20 <__divdi3+0x338>
50008e14:	e1530006 	cmp	r3, r6
50008e18:	824aa001 	subhi	sl, sl, #1
50008e1c:	80866004 	addhi	r6, r6, r4
50008e20:	e0636006 	rsb	r6, r3, r6
50008e24:	e18a380b 	orr	r3, sl, fp, lsl #16
50008e28:	e58d3008 	str	r3, [sp, #8]
50008e2c:	eaffff9c 	b	50008ca4 <__divdi3+0x1bc>
/home/gopu/wdir/toolchain/gopu/build/gcc/arm-none-eabi/libgcc/../../../../gcc-4.5-2010.09/libgcc/../gcc/libgcc2.c:1041
50008e30:	e2641020 	rsb	r1, r4, #32
/home/gopu/wdir/toolchain/gopu/build/gcc/arm-none-eabi/libgcc/../../../../gcc-4.5-2010.09/libgcc/../gcc/libgcc2.c:1043
50008e34:	e1a0b139 	lsr	fp, r9, r1
/home/gopu/wdir/toolchain/gopu/build/gcc/arm-none-eabi/libgcc/../../../../gcc-4.5-2010.09/libgcc/../gcc/libgcc2.c:1046
50008e38:	e1a02135 	lsr	r2, r5, r1
/home/gopu/wdir/toolchain/gopu/build/gcc/arm-none-eabi/libgcc/../../../../gcc-4.5-2010.09/libgcc/../gcc/libgcc2.c:1043
50008e3c:	e18ba41a 	orr	sl, fp, sl, lsl r4
/home/gopu/wdir/toolchain/gopu/build/gcc/arm-none-eabi/libgcc/../../../../gcc-4.5-2010.09/libgcc/../gcc/libgcc2.c:1045
50008e40:	e1a06138 	lsr	r6, r8, r1
/home/gopu/wdir/toolchain/gopu/build/gcc/arm-none-eabi/libgcc/../../../../gcc-4.5-2010.09/libgcc/../gcc/libgcc2.c:1046
50008e44:	e1828418 	orr	r8, r2, r8, lsl r4
/home/gopu/wdir/toolchain/gopu/build/gcc/arm-none-eabi/libgcc/../../../../gcc-4.5-2010.09/libgcc/../gcc/libgcc2.c:1049
50008e48:	e1a0380a 	lsl	r3, sl, #16
50008e4c:	e1a0b82a 	lsr	fp, sl, #16
50008e50:	e1a0e823 	lsr	lr, r3, #16
50008e54:	e1a0100b 	mov	r1, fp
50008e58:	e1a00006 	mov	r0, r6
/home/gopu/wdir/toolchain/gopu/build/gcc/arm-none-eabi/libgcc/../../../../gcc-4.5-2010.09/libgcc/../gcc/libgcc2.c:1046
50008e5c:	e58d8008 	str	r8, [sp, #8]
/home/gopu/wdir/toolchain/gopu/build/gcc/arm-none-eabi/libgcc/../../../../gcc-4.5-2010.09/libgcc/../gcc/libgcc2.c:1049
50008e60:	e58de00c 	str	lr, [sp, #12]
50008e64:	eb000157 	bl	500093c8 <__aeabi_uidiv>
50008e68:	e1a0100b 	mov	r1, fp
50008e6c:	e1a08000 	mov	r8, r0
50008e70:	e1a00006 	mov	r0, r6
50008e74:	eb000190 	bl	500094bc <__aeabi_uidivmod>
50008e78:	e59dc00c 	ldr	ip, [sp, #12]
50008e7c:	e002089c 	mul	r2, ip, r8
50008e80:	e59d3008 	ldr	r3, [sp, #8]
50008e84:	e1a06823 	lsr	r6, r3, #16
50008e88:	e1861801 	orr	r1, r6, r1, lsl #16
50008e8c:	e1520001 	cmp	r2, r1
/home/gopu/wdir/toolchain/gopu/build/gcc/arm-none-eabi/libgcc/../../../../gcc-4.5-2010.09/libgcc/../gcc/libgcc2.c:1044
50008e90:	e1a03419 	lsl	r3, r9, r4
/home/gopu/wdir/toolchain/gopu/build/gcc/arm-none-eabi/libgcc/../../../../gcc-4.5-2010.09/libgcc/../gcc/libgcc2.c:1049
50008e94:	9a000002 	bls	50008ea4 <__divdi3+0x3bc>
50008e98:	e091100a 	adds	r1, r1, sl
50008e9c:	e2488001 	sub	r8, r8, #1
50008ea0:	3a000032 	bcc	50008f70 <__divdi3+0x488>
50008ea4:	e0629001 	rsb	r9, r2, r1
50008ea8:	e1a00009 	mov	r0, r9
50008eac:	e1a0100b 	mov	r1, fp
50008eb0:	e58d3004 	str	r3, [sp, #4]
50008eb4:	eb000143 	bl	500093c8 <__aeabi_uidiv>
50008eb8:	e1a0100b 	mov	r1, fp
50008ebc:	e1a06000 	mov	r6, r0
50008ec0:	e1a00009 	mov	r0, r9
50008ec4:	eb00017c 	bl	500094bc <__aeabi_uidivmod>
50008ec8:	e59d300c 	ldr	r3, [sp, #12]
50008ecc:	e0020693 	mul	r2, r3, r6
50008ed0:	e59dc008 	ldr	ip, [sp, #8]
50008ed4:	e1a0080c 	lsl	r0, ip, #16
50008ed8:	e1a09820 	lsr	r9, r0, #16
50008edc:	e1890801 	orr	r0, r9, r1, lsl #16
50008ee0:	e1520000 	cmp	r2, r0
50008ee4:	e59d3004 	ldr	r3, [sp, #4]
50008ee8:	9a000002 	bls	50008ef8 <__divdi3+0x410>
50008eec:	e090000a 	adds	r0, r0, sl
50008ef0:	e2466001 	sub	r6, r6, #1
50008ef4:	3a000019 	bcc	50008f60 <__divdi3+0x478>
50008ef8:	e062e000 	rsb	lr, r2, r0
50008efc:	e1866808 	orr	r6, r6, r8, lsl #16
/home/gopu/wdir/toolchain/gopu/build/gcc/arm-none-eabi/libgcc/../../../../gcc-4.5-2010.09/libgcc/../gcc/libgcc2.c:1050
50008f00:	e1a02826 	lsr	r2, r6, #16
50008f04:	e1a01823 	lsr	r1, r3, #16
50008f08:	e1c6c802 	bic	ip, r6, r2, lsl #16
50008f0c:	e1c39801 	bic	r9, r3, r1, lsl #16
50008f10:	e003099c 	mul	r3, ip, r9
50008f14:	e0090992 	mul	r9, r2, r9
50008f18:	e00c0c91 	mul	ip, r1, ip
50008f1c:	e0010192 	mul	r1, r2, r1
50008f20:	e099c00c 	adds	ip, r9, ip
50008f24:	22811801 	addcs	r1, r1, #65536	; 0x10000
50008f28:	e093380c 	adds	r3, r3, ip, lsl #16
50008f2c:	e0a1182c 	adc	r1, r1, ip, lsr #16
/home/gopu/wdir/toolchain/gopu/build/gcc/arm-none-eabi/libgcc/../../../../gcc-4.5-2010.09/libgcc/../gcc/libgcc2.c:1052
50008f30:	e15e0001 	cmp	lr, r1
50008f34:	3a000006 	bcc	50008f54 <__divdi3+0x46c>
50008f38:	13a02000 	movne	r2, #0
50008f3c:	03a02001 	moveq	r2, #1
50008f40:	e1530415 	cmp	r3, r5, lsl r4
50008f44:	93a09000 	movls	r9, #0
50008f48:	82029001 	andhi	r9, r2, #1
50008f4c:	e3590000 	cmp	r9, #0
50008f50:	0affff28 	beq	50008bf8 <__divdi3+0x110>
/home/gopu/wdir/toolchain/gopu/build/gcc/arm-none-eabi/libgcc/../../../../gcc-4.5-2010.09/libgcc/../gcc/libgcc2.c:1054
50008f54:	e2466001 	sub	r6, r6, #1
/home/gopu/wdir/toolchain/gopu/build/gcc/arm-none-eabi/libgcc/../../../../gcc-4.5-2010.09/libgcc/../gcc/libgcc2.c:1055
50008f58:	e3a09000 	mov	r9, #0
50008f5c:	eaffff25 	b	50008bf8 <__divdi3+0x110>
/home/gopu/wdir/toolchain/gopu/build/gcc/arm-none-eabi/libgcc/../../../../gcc-4.5-2010.09/libgcc/../gcc/libgcc2.c:1049
50008f60:	e1520000 	cmp	r2, r0
50008f64:	82466001 	subhi	r6, r6, #1
50008f68:	8080000a 	addhi	r0, r0, sl
50008f6c:	eaffffe1 	b	50008ef8 <__divdi3+0x410>
50008f70:	e1520001 	cmp	r2, r1
50008f74:	82488001 	subhi	r8, r8, #1
50008f78:	8081100a 	addhi	r1, r1, sl
50008f7c:	eaffffc8 	b	50008ea4 <__divdi3+0x3bc>
/home/gopu/wdir/toolchain/gopu/build/gcc/arm-none-eabi/libgcc/../../../../gcc-4.5-2010.09/libgcc/../gcc/libgcc2.c:968
50008f80:	e1530006 	cmp	r3, r6
50008f84:	824bb001 	subhi	fp, fp, #1
50008f88:	80866004 	addhi	r6, r6, r4
50008f8c:	eaffff8e 	b	50008dcc <__divdi3+0x2e4>

50008f90 <__udivdi3>:
__udivdi3():
/home/gopu/wdir/toolchain/gopu/build/gcc/arm-none-eabi/libgcc/../../../../gcc-4.5-2010.09/libgcc/../gcc/libgcc2.c:1139
50008f90:	e92d4ff0 	push	{r4, r5, r6, r7, r8, r9, sl, fp, lr}
__udivmoddi4():
/home/gopu/wdir/toolchain/gopu/build/gcc/arm-none-eabi/libgcc/../../../../gcc-4.5-2010.09/libgcc/../gcc/libgcc2.c:913
50008f94:	e2538000 	subs	r8, r3, #0
__udivdi3():
/home/gopu/wdir/toolchain/gopu/build/gcc/arm-none-eabi/libgcc/../../../../gcc-4.5-2010.09/libgcc/../gcc/libgcc2.c:1139
50008f98:	e24dd00c 	sub	sp, sp, #12
50008f9c:	e1a05000 	mov	r5, r0
50008fa0:	e1a04001 	mov	r4, r1
50008fa4:	e1a06002 	mov	r6, r2
__udivmoddi4():
/home/gopu/wdir/toolchain/gopu/build/gcc/arm-none-eabi/libgcc/../../../../gcc-4.5-2010.09/libgcc/../gcc/libgcc2.c:873
50008fa8:	e1a0a002 	mov	sl, r2
/home/gopu/wdir/toolchain/gopu/build/gcc/arm-none-eabi/libgcc/../../../../gcc-4.5-2010.09/libgcc/../gcc/libgcc2.c:875
50008fac:	e1a0b000 	mov	fp, r0
/home/gopu/wdir/toolchain/gopu/build/gcc/arm-none-eabi/libgcc/../../../../gcc-4.5-2010.09/libgcc/../gcc/libgcc2.c:876
50008fb0:	e1a07001 	mov	r7, r1
/home/gopu/wdir/toolchain/gopu/build/gcc/arm-none-eabi/libgcc/../../../../gcc-4.5-2010.09/libgcc/../gcc/libgcc2.c:913
50008fb4:	1a000038 	bne	5000909c <__udivdi3+0x10c>
/home/gopu/wdir/toolchain/gopu/build/gcc/arm-none-eabi/libgcc/../../../../gcc-4.5-2010.09/libgcc/../gcc/libgcc2.c:915
50008fb8:	e1520001 	cmp	r2, r1
50008fbc:	9a000046 	bls	500090dc <__udivdi3+0x14c>
/home/gopu/wdir/toolchain/gopu/build/gcc/arm-none-eabi/libgcc/../../../../gcc-4.5-2010.09/libgcc/../gcc/libgcc2.c:919
50008fc0:	e1a00002 	mov	r0, r2
50008fc4:	eb000144 	bl	500094dc <__clzsi2>
/home/gopu/wdir/toolchain/gopu/build/gcc/arm-none-eabi/libgcc/../../../../gcc-4.5-2010.09/libgcc/../gcc/libgcc2.c:921
50008fc8:	e3500000 	cmp	r0, #0
/home/gopu/wdir/toolchain/gopu/build/gcc/arm-none-eabi/libgcc/../../../../gcc-4.5-2010.09/libgcc/../gcc/libgcc2.c:927
50008fcc:	12603020 	rsbne	r3, r0, #32
50008fd0:	11a03335 	lsrne	r3, r5, r3
/home/gopu/wdir/toolchain/gopu/build/gcc/arm-none-eabi/libgcc/../../../../gcc-4.5-2010.09/libgcc/../gcc/libgcc2.c:926
50008fd4:	11a0a016 	lslne	sl, r6, r0
/home/gopu/wdir/toolchain/gopu/build/gcc/arm-none-eabi/libgcc/../../../../gcc-4.5-2010.09/libgcc/../gcc/libgcc2.c:927
50008fd8:	11837014 	orrne	r7, r3, r4, lsl r0
/home/gopu/wdir/toolchain/gopu/build/gcc/arm-none-eabi/libgcc/../../../../gcc-4.5-2010.09/libgcc/../gcc/libgcc2.c:931
50008fdc:	e1a0482a 	lsr	r4, sl, #16
/home/gopu/wdir/toolchain/gopu/build/gcc/arm-none-eabi/libgcc/../../../../gcc-4.5-2010.09/libgcc/../gcc/libgcc2.c:928
50008fe0:	11a0b015 	lslne	fp, r5, r0
/home/gopu/wdir/toolchain/gopu/build/gcc/arm-none-eabi/libgcc/../../../../gcc-4.5-2010.09/libgcc/../gcc/libgcc2.c:931
50008fe4:	e1a01004 	mov	r1, r4
50008fe8:	e1a00007 	mov	r0, r7
50008fec:	eb0000f5 	bl	500093c8 <__aeabi_uidiv>
50008ff0:	e1a01004 	mov	r1, r4
50008ff4:	e1a08000 	mov	r8, r0
50008ff8:	e1a00007 	mov	r0, r7
50008ffc:	eb00012e 	bl	500094bc <__aeabi_uidivmod>
50009000:	e1a0680a 	lsl	r6, sl, #16
50009004:	e1a06826 	lsr	r6, r6, #16
50009008:	e0030896 	mul	r3, r6, r8
5000900c:	e1a0782b 	lsr	r7, fp, #16
50009010:	e1877801 	orr	r7, r7, r1, lsl #16
50009014:	e1530007 	cmp	r3, r7
50009018:	9a000005 	bls	50009034 <__udivdi3+0xa4>
5000901c:	e097700a 	adds	r7, r7, sl
50009020:	e2488001 	sub	r8, r8, #1
50009024:	2a000002 	bcs	50009034 <__udivdi3+0xa4>
50009028:	e1530007 	cmp	r3, r7
5000902c:	82488001 	subhi	r8, r8, #1
50009030:	8087700a 	addhi	r7, r7, sl
50009034:	e0637007 	rsb	r7, r3, r7
50009038:	e1a01004 	mov	r1, r4
5000903c:	e1a00007 	mov	r0, r7
50009040:	eb0000e0 	bl	500093c8 <__aeabi_uidiv>
50009044:	e1a01004 	mov	r1, r4
50009048:	e1a05000 	mov	r5, r0
5000904c:	e1a00007 	mov	r0, r7
50009050:	eb000119 	bl	500094bc <__aeabi_uidivmod>
50009054:	e0060695 	mul	r6, r5, r6
50009058:	e1a0080b 	lsl	r0, fp, #16
5000905c:	e1a0b820 	lsr	fp, r0, #16
50009060:	e18bb801 	orr	fp, fp, r1, lsl #16
50009064:	e156000b 	cmp	r6, fp
50009068:	9a000004 	bls	50009080 <__udivdi3+0xf0>
5000906c:	e09bb00a 	adds	fp, fp, sl
50009070:	e2455001 	sub	r5, r5, #1
50009074:	2a000001 	bcs	50009080 <__udivdi3+0xf0>
50009078:	e156000b 	cmp	r6, fp
5000907c:	82455001 	subhi	r5, r5, #1
50009080:	e1858808 	orr	r8, r5, r8, lsl #16
50009084:	e3a01000 	mov	r1, #0
/home/gopu/wdir/toolchain/gopu/build/gcc/arm-none-eabi/libgcc/../../../../gcc-4.5-2010.09/libgcc/../gcc/libgcc2.c:1072
50009088:	e1a04001 	mov	r4, r1
__udivdi3():
/home/gopu/wdir/toolchain/gopu/build/gcc/arm-none-eabi/libgcc/../../../../gcc-4.5-2010.09/libgcc/../gcc/libgcc2.c:1141
5000908c:	e1a00008 	mov	r0, r8
50009090:	e28dd00c 	add	sp, sp, #12
50009094:	e8bd4ff0 	pop	{r4, r5, r6, r7, r8, r9, sl, fp, lr}
50009098:	e12fff1e 	bx	lr
__udivmoddi4():
/home/gopu/wdir/toolchain/gopu/build/gcc/arm-none-eabi/libgcc/../../../../gcc-4.5-2010.09/libgcc/../gcc/libgcc2.c:989
5000909c:	e1580001 	cmp	r8, r1
500090a0:	83a01000 	movhi	r1, #0
500090a4:	81a08001 	movhi	r8, r1
500090a8:	8afffff6 	bhi	50009088 <__udivdi3+0xf8>
/home/gopu/wdir/toolchain/gopu/build/gcc/arm-none-eabi/libgcc/../../../../gcc-4.5-2010.09/libgcc/../gcc/libgcc2.c:1008
500090ac:	e1a00008 	mov	r0, r8
500090b0:	eb000109 	bl	500094dc <__clzsi2>
/home/gopu/wdir/toolchain/gopu/build/gcc/arm-none-eabi/libgcc/../../../../gcc-4.5-2010.09/libgcc/../gcc/libgcc2.c:1009
500090b4:	e2507000 	subs	r7, r0, #0
500090b8:	1a00003e 	bne	500091b8 <__udivdi3+0x228>
/home/gopu/wdir/toolchain/gopu/build/gcc/arm-none-eabi/libgcc/../../../../gcc-4.5-2010.09/libgcc/../gcc/libgcc2.c:1019
500090bc:	e1580004 	cmp	r8, r4
500090c0:	21560005 	cmpcs	r6, r5
500090c4:	83a01000 	movhi	r1, #0
500090c8:	93a01001 	movls	r1, #1
/home/gopu/wdir/toolchain/gopu/build/gcc/arm-none-eabi/libgcc/../../../../gcc-4.5-2010.09/libgcc/../gcc/libgcc2.c:1022
500090cc:	93a08001 	movls	r8, #1
500090d0:	91a01007 	movls	r1, r7
/home/gopu/wdir/toolchain/gopu/build/gcc/arm-none-eabi/libgcc/../../../../gcc-4.5-2010.09/libgcc/../gcc/libgcc2.c:1019
500090d4:	81a08001 	movhi	r8, r1
500090d8:	eaffffea 	b	50009088 <__udivdi3+0xf8>
/home/gopu/wdir/toolchain/gopu/build/gcc/arm-none-eabi/libgcc/../../../../gcc-4.5-2010.09/libgcc/../gcc/libgcc2.c:940
500090dc:	e3520000 	cmp	r2, #0
500090e0:	1a000003 	bne	500090f4 <__udivdi3+0x164>
/home/gopu/wdir/toolchain/gopu/build/gcc/arm-none-eabi/libgcc/../../../../gcc-4.5-2010.09/libgcc/../gcc/libgcc2.c:941
500090e4:	e3a00001 	mov	r0, #1
500090e8:	e1a01002 	mov	r1, r2
500090ec:	eb0000b5 	bl	500093c8 <__aeabi_uidiv>
500090f0:	e1a0a000 	mov	sl, r0
/home/gopu/wdir/toolchain/gopu/build/gcc/arm-none-eabi/libgcc/../../../../gcc-4.5-2010.09/libgcc/../gcc/libgcc2.c:943
500090f4:	e1a0000a 	mov	r0, sl
500090f8:	eb0000f7 	bl	500094dc <__clzsi2>
/home/gopu/wdir/toolchain/gopu/build/gcc/arm-none-eabi/libgcc/../../../../gcc-4.5-2010.09/libgcc/../gcc/libgcc2.c:945
500090fc:	e2503000 	subs	r3, r0, #0
50009100:	1a000075 	bne	500092dc <__udivdi3+0x34c>
/home/gopu/wdir/toolchain/gopu/build/gcc/arm-none-eabi/libgcc/../../../../gcc-4.5-2010.09/libgcc/../gcc/libgcc2.c:954
50009104:	e1a0180a 	lsl	r1, sl, #16
50009108:	e06a4004 	rsb	r4, sl, r4
5000910c:	e1a0982a 	lsr	r9, sl, #16
50009110:	e1a06821 	lsr	r6, r1, #16
/home/gopu/wdir/toolchain/gopu/build/gcc/arm-none-eabi/libgcc/../../../../gcc-4.5-2010.09/libgcc/../gcc/libgcc2.c:955
50009114:	e3a07001 	mov	r7, #1
/home/gopu/wdir/toolchain/gopu/build/gcc/arm-none-eabi/libgcc/../../../../gcc-4.5-2010.09/libgcc/../gcc/libgcc2.c:973
50009118:	e1a01009 	mov	r1, r9
5000911c:	e1a00004 	mov	r0, r4
50009120:	eb0000a8 	bl	500093c8 <__aeabi_uidiv>
50009124:	e1a01009 	mov	r1, r9
50009128:	e1a05000 	mov	r5, r0
5000912c:	e1a00004 	mov	r0, r4
50009130:	eb0000e1 	bl	500094bc <__aeabi_uidivmod>
50009134:	e0030596 	mul	r3, r6, r5
50009138:	e1a0282b 	lsr	r2, fp, #16
5000913c:	e1824801 	orr	r4, r2, r1, lsl #16
50009140:	e1530004 	cmp	r3, r4
50009144:	9a000005 	bls	50009160 <__udivdi3+0x1d0>
50009148:	e094400a 	adds	r4, r4, sl
5000914c:	e2455001 	sub	r5, r5, #1
50009150:	2a000002 	bcs	50009160 <__udivdi3+0x1d0>
50009154:	e1530004 	cmp	r3, r4
50009158:	82455001 	subhi	r5, r5, #1
5000915c:	8084400a 	addhi	r4, r4, sl
50009160:	e0634004 	rsb	r4, r3, r4
50009164:	e1a01009 	mov	r1, r9
50009168:	e1a00004 	mov	r0, r4
5000916c:	eb000095 	bl	500093c8 <__aeabi_uidiv>
50009170:	e1a01009 	mov	r1, r9
50009174:	e1a08000 	mov	r8, r0
50009178:	e1a00004 	mov	r0, r4
5000917c:	eb0000ce 	bl	500094bc <__aeabi_uidivmod>
50009180:	e0060698 	mul	r6, r8, r6
50009184:	e1a0b80b 	lsl	fp, fp, #16
50009188:	e1a0382b 	lsr	r3, fp, #16
5000918c:	e183b801 	orr	fp, r3, r1, lsl #16
50009190:	e156000b 	cmp	r6, fp
50009194:	9a000004 	bls	500091ac <__udivdi3+0x21c>
50009198:	e09bb00a 	adds	fp, fp, sl
5000919c:	e2488001 	sub	r8, r8, #1
500091a0:	2a000001 	bcs	500091ac <__udivdi3+0x21c>
500091a4:	e156000b 	cmp	r6, fp
500091a8:	82488001 	subhi	r8, r8, #1
500091ac:	e1888805 	orr	r8, r8, r5, lsl #16
500091b0:	e1a01007 	mov	r1, r7
500091b4:	eaffffb3 	b	50009088 <__udivdi3+0xf8>
/home/gopu/wdir/toolchain/gopu/build/gcc/arm-none-eabi/libgcc/../../../../gcc-4.5-2010.09/libgcc/../gcc/libgcc2.c:1041
500091b8:	e267a020 	rsb	sl, r7, #32
/home/gopu/wdir/toolchain/gopu/build/gcc/arm-none-eabi/libgcc/../../../../gcc-4.5-2010.09/libgcc/../gcc/libgcc2.c:1043
500091bc:	e1a01a36 	lsr	r1, r6, sl
/home/gopu/wdir/toolchain/gopu/build/gcc/arm-none-eabi/libgcc/../../../../gcc-4.5-2010.09/libgcc/../gcc/libgcc2.c:1046
500091c0:	e1a02a35 	lsr	r2, r5, sl
/home/gopu/wdir/toolchain/gopu/build/gcc/arm-none-eabi/libgcc/../../../../gcc-4.5-2010.09/libgcc/../gcc/libgcc2.c:1043
500091c4:	e1818718 	orr	r8, r1, r8, lsl r7
/home/gopu/wdir/toolchain/gopu/build/gcc/arm-none-eabi/libgcc/../../../../gcc-4.5-2010.09/libgcc/../gcc/libgcc2.c:1045
500091c8:	e1a0ba34 	lsr	fp, r4, sl
/home/gopu/wdir/toolchain/gopu/build/gcc/arm-none-eabi/libgcc/../../../../gcc-4.5-2010.09/libgcc/../gcc/libgcc2.c:1046
500091cc:	e1829714 	orr	r9, r2, r4, lsl r7
/home/gopu/wdir/toolchain/gopu/build/gcc/arm-none-eabi/libgcc/../../../../gcc-4.5-2010.09/libgcc/../gcc/libgcc2.c:1049
500091d0:	e1a0a828 	lsr	sl, r8, #16
500091d4:	e1a0e808 	lsl	lr, r8, #16
500091d8:	e1a0100a 	mov	r1, sl
500091dc:	e1a0000b 	mov	r0, fp
500091e0:	e1a0482e 	lsr	r4, lr, #16
/home/gopu/wdir/toolchain/gopu/build/gcc/arm-none-eabi/libgcc/../../../../gcc-4.5-2010.09/libgcc/../gcc/libgcc2.c:1046
500091e4:	e58d9004 	str	r9, [sp, #4]
/home/gopu/wdir/toolchain/gopu/build/gcc/arm-none-eabi/libgcc/../../../../gcc-4.5-2010.09/libgcc/../gcc/libgcc2.c:1049
500091e8:	eb000076 	bl	500093c8 <__aeabi_uidiv>
500091ec:	e1a0100a 	mov	r1, sl
500091f0:	e1a09000 	mov	r9, r0
500091f4:	e1a0000b 	mov	r0, fp
500091f8:	eb0000af 	bl	500094bc <__aeabi_uidivmod>
500091fc:	e0020994 	mul	r2, r4, r9
50009200:	e59d0004 	ldr	r0, [sp, #4]
50009204:	e1a0c820 	lsr	ip, r0, #16
50009208:	e18cb801 	orr	fp, ip, r1, lsl #16
5000920c:	e152000b 	cmp	r2, fp
/home/gopu/wdir/toolchain/gopu/build/gcc/arm-none-eabi/libgcc/../../../../gcc-4.5-2010.09/libgcc/../gcc/libgcc2.c:1044
50009210:	e1a03716 	lsl	r3, r6, r7
/home/gopu/wdir/toolchain/gopu/build/gcc/arm-none-eabi/libgcc/../../../../gcc-4.5-2010.09/libgcc/../gcc/libgcc2.c:1049
50009214:	9a000002 	bls	50009224 <__udivdi3+0x294>
50009218:	e09bb008 	adds	fp, fp, r8
5000921c:	e2499001 	sub	r9, r9, #1
50009220:	3a000060 	bcc	500093a8 <__udivdi3+0x418>
50009224:	e062b00b 	rsb	fp, r2, fp
50009228:	e1a0100a 	mov	r1, sl
5000922c:	e1a0000b 	mov	r0, fp
50009230:	e58d3000 	str	r3, [sp]
50009234:	eb000063 	bl	500093c8 <__aeabi_uidiv>
50009238:	e1a0100a 	mov	r1, sl
5000923c:	e1a06000 	mov	r6, r0
50009240:	e1a0000b 	mov	r0, fp
50009244:	eb00009c 	bl	500094bc <__aeabi_uidivmod>
50009248:	e0040496 	mul	r4, r6, r4
5000924c:	e59d0004 	ldr	r0, [sp, #4]
50009250:	e1a0c800 	lsl	ip, r0, #16
50009254:	e1a0382c 	lsr	r3, ip, #16
50009258:	e1832801 	orr	r2, r3, r1, lsl #16
5000925c:	e1540002 	cmp	r4, r2
50009260:	e59d3000 	ldr	r3, [sp]
50009264:	9a000002 	bls	50009274 <__udivdi3+0x2e4>
50009268:	e0922008 	adds	r2, r2, r8
5000926c:	e2466001 	sub	r6, r6, #1
50009270:	3a000048 	bcc	50009398 <__udivdi3+0x408>
50009274:	e0644002 	rsb	r4, r4, r2
50009278:	e1868809 	orr	r8, r6, r9, lsl #16
/home/gopu/wdir/toolchain/gopu/build/gcc/arm-none-eabi/libgcc/../../../../gcc-4.5-2010.09/libgcc/../gcc/libgcc2.c:1050
5000927c:	e1a02828 	lsr	r2, r8, #16
50009280:	e1a0e823 	lsr	lr, r3, #16
50009284:	e1c80802 	bic	r0, r8, r2, lsl #16
50009288:	e1c3680e 	bic	r6, r3, lr, lsl #16
5000928c:	e0030690 	mul	r3, r0, r6
50009290:	e0060692 	mul	r6, r2, r6
50009294:	e000009e 	mul	r0, lr, r0
50009298:	e00e0e92 	mul	lr, r2, lr
5000929c:	e0960000 	adds	r0, r6, r0
500092a0:	228ee801 	addcs	lr, lr, #65536	; 0x10000
500092a4:	e0933800 	adds	r3, r3, r0, lsl #16
500092a8:	e0aee820 	adc	lr, lr, r0, lsr #16
/home/gopu/wdir/toolchain/gopu/build/gcc/arm-none-eabi/libgcc/../../../../gcc-4.5-2010.09/libgcc/../gcc/libgcc2.c:1052
500092ac:	e154000e 	cmp	r4, lr
500092b0:	3a000006 	bcc	500092d0 <__udivdi3+0x340>
500092b4:	13a02000 	movne	r2, #0
500092b8:	03a02001 	moveq	r2, #1
500092bc:	e1530715 	cmp	r3, r5, lsl r7
500092c0:	93a01000 	movls	r1, #0
500092c4:	82021001 	andhi	r1, r2, #1
500092c8:	e3510000 	cmp	r1, #0
500092cc:	0affff6d 	beq	50009088 <__udivdi3+0xf8>
/home/gopu/wdir/toolchain/gopu/build/gcc/arm-none-eabi/libgcc/../../../../gcc-4.5-2010.09/libgcc/../gcc/libgcc2.c:1054
500092d0:	e2488001 	sub	r8, r8, #1
/home/gopu/wdir/toolchain/gopu/build/gcc/arm-none-eabi/libgcc/../../../../gcc-4.5-2010.09/libgcc/../gcc/libgcc2.c:1055
500092d4:	e3a01000 	mov	r1, #0
500092d8:	eaffff6a 	b	50009088 <__udivdi3+0xf8>
/home/gopu/wdir/toolchain/gopu/build/gcc/arm-none-eabi/libgcc/../../../../gcc-4.5-2010.09/libgcc/../gcc/libgcc2.c:961
500092dc:	e2639020 	rsb	r9, r3, #32
/home/gopu/wdir/toolchain/gopu/build/gcc/arm-none-eabi/libgcc/../../../../gcc-4.5-2010.09/libgcc/../gcc/libgcc2.c:963
500092e0:	e1a0a31a 	lsl	sl, sl, r3
/home/gopu/wdir/toolchain/gopu/build/gcc/arm-none-eabi/libgcc/../../../../gcc-4.5-2010.09/libgcc/../gcc/libgcc2.c:964
500092e4:	e1a07934 	lsr	r7, r4, r9
/home/gopu/wdir/toolchain/gopu/build/gcc/arm-none-eabi/libgcc/../../../../gcc-4.5-2010.09/libgcc/../gcc/libgcc2.c:965
500092e8:	e1a08935 	lsr	r8, r5, r9
/home/gopu/wdir/toolchain/gopu/build/gcc/arm-none-eabi/libgcc/../../../../gcc-4.5-2010.09/libgcc/../gcc/libgcc2.c:968
500092ec:	e1a0982a 	lsr	r9, sl, #16
500092f0:	e1a0280a 	lsl	r2, sl, #16
500092f4:	e1a01009 	mov	r1, r9
500092f8:	e1a00007 	mov	r0, r7
/home/gopu/wdir/toolchain/gopu/build/gcc/arm-none-eabi/libgcc/../../../../gcc-4.5-2010.09/libgcc/../gcc/libgcc2.c:965
500092fc:	e1888314 	orr	r8, r8, r4, lsl r3
/home/gopu/wdir/toolchain/gopu/build/gcc/arm-none-eabi/libgcc/../../../../gcc-4.5-2010.09/libgcc/../gcc/libgcc2.c:966
50009300:	e1a0b315 	lsl	fp, r5, r3
/home/gopu/wdir/toolchain/gopu/build/gcc/arm-none-eabi/libgcc/../../../../gcc-4.5-2010.09/libgcc/../gcc/libgcc2.c:968
50009304:	e1a06822 	lsr	r6, r2, #16
50009308:	eb00002e 	bl	500093c8 <__aeabi_uidiv>
5000930c:	e1a01009 	mov	r1, r9
50009310:	e1a05000 	mov	r5, r0
50009314:	e1a00007 	mov	r0, r7
50009318:	eb000067 	bl	500094bc <__aeabi_uidivmod>
5000931c:	e0030596 	mul	r3, r6, r5
50009320:	e1a04828 	lsr	r4, r8, #16
50009324:	e1844801 	orr	r4, r4, r1, lsl #16
50009328:	e1530004 	cmp	r3, r4
5000932c:	9a000002 	bls	5000933c <__udivdi3+0x3ac>
50009330:	e094400a 	adds	r4, r4, sl
50009334:	e2455001 	sub	r5, r5, #1
50009338:	3a00001e 	bcc	500093b8 <__udivdi3+0x428>
5000933c:	e0634004 	rsb	r4, r3, r4
50009340:	e1a01009 	mov	r1, r9
50009344:	e1a00004 	mov	r0, r4
50009348:	eb00001e 	bl	500093c8 <__aeabi_uidiv>
5000934c:	e1a01009 	mov	r1, r9
50009350:	e1a07000 	mov	r7, r0
50009354:	e1a00004 	mov	r0, r4
50009358:	eb000057 	bl	500094bc <__aeabi_uidivmod>
5000935c:	e0030796 	mul	r3, r6, r7
50009360:	e1a00808 	lsl	r0, r8, #16
50009364:	e1a0c820 	lsr	ip, r0, #16
50009368:	e18c4801 	orr	r4, ip, r1, lsl #16
5000936c:	e1530004 	cmp	r3, r4
50009370:	9a000005 	bls	5000938c <__udivdi3+0x3fc>
50009374:	e094400a 	adds	r4, r4, sl
50009378:	e2477001 	sub	r7, r7, #1
5000937c:	2a000002 	bcs	5000938c <__udivdi3+0x3fc>
50009380:	e1530004 	cmp	r3, r4
50009384:	82477001 	subhi	r7, r7, #1
50009388:	8084400a 	addhi	r4, r4, sl
5000938c:	e0634004 	rsb	r4, r3, r4
50009390:	e1877805 	orr	r7, r7, r5, lsl #16
50009394:	eaffff5f 	b	50009118 <__udivdi3+0x188>
/home/gopu/wdir/toolchain/gopu/build/gcc/arm-none-eabi/libgcc/../../../../gcc-4.5-2010.09/libgcc/../gcc/libgcc2.c:1049
50009398:	e1540002 	cmp	r4, r2
5000939c:	82466001 	subhi	r6, r6, #1
500093a0:	80822008 	addhi	r2, r2, r8
500093a4:	eaffffb2 	b	50009274 <__udivdi3+0x2e4>
500093a8:	e152000b 	cmp	r2, fp
500093ac:	82499001 	subhi	r9, r9, #1
500093b0:	808bb008 	addhi	fp, fp, r8
500093b4:	eaffff9a 	b	50009224 <__udivdi3+0x294>
/home/gopu/wdir/toolchain/gopu/build/gcc/arm-none-eabi/libgcc/../../../../gcc-4.5-2010.09/libgcc/../gcc/libgcc2.c:968
500093b8:	e1530004 	cmp	r3, r4
500093bc:	82455001 	subhi	r5, r5, #1
500093c0:	8084400a 	addhi	r4, r4, sl
500093c4:	eaffffdc 	b	5000933c <__udivdi3+0x3ac>

500093c8 <__aeabi_uidiv>:
__aeabi_uidiv():
/home/gopu/wdir/toolchain/gopu/build/gcc/arm-none-eabi/libgcc/../../../../gcc-4.5-2010.09/libgcc/../gcc/config/arm/lib1funcs.asm:999
500093c8:	e2512001 	subs	r2, r1, #1
/home/gopu/wdir/toolchain/gopu/build/gcc/arm-none-eabi/libgcc/../../../../gcc-4.5-2010.09/libgcc/../gcc/config/arm/lib1funcs.asm:1001
500093cc:	012fff1e 	bxeq	lr
/home/gopu/wdir/toolchain/gopu/build/gcc/arm-none-eabi/libgcc/../../../../gcc-4.5-2010.09/libgcc/../gcc/config/arm/lib1funcs.asm:1002
500093d0:	3a000036 	bcc	500094b0 <__aeabi_uidiv+0xe8>
/home/gopu/wdir/toolchain/gopu/build/gcc/arm-none-eabi/libgcc/../../../../gcc-4.5-2010.09/libgcc/../gcc/config/arm/lib1funcs.asm:1003
500093d4:	e1500001 	cmp	r0, r1
/home/gopu/wdir/toolchain/gopu/build/gcc/arm-none-eabi/libgcc/../../../../gcc-4.5-2010.09/libgcc/../gcc/config/arm/lib1funcs.asm:1004
500093d8:	9a000022 	bls	50009468 <__aeabi_uidiv+0xa0>
/home/gopu/wdir/toolchain/gopu/build/gcc/arm-none-eabi/libgcc/../../../../gcc-4.5-2010.09/libgcc/../gcc/config/arm/lib1funcs.asm:1005
500093dc:	e1110002 	tst	r1, r2
/home/gopu/wdir/toolchain/gopu/build/gcc/arm-none-eabi/libgcc/../../../../gcc-4.5-2010.09/libgcc/../gcc/config/arm/lib1funcs.asm:1006
500093e0:	0a000023 	beq	50009474 <__aeabi_uidiv+0xac>
/home/gopu/wdir/toolchain/gopu/build/gcc/arm-none-eabi/libgcc/../../../../gcc-4.5-2010.09/libgcc/../gcc/config/arm/lib1funcs.asm:631
500093e4:	e311020e 	tst	r1, #-536870912	; 0xe0000000
500093e8:	01a01181 	lsleq	r1, r1, #3
500093ec:	03a03008 	moveq	r3, #8
500093f0:	13a03001 	movne	r3, #1
500093f4:	e3510201 	cmp	r1, #268435456	; 0x10000000
500093f8:	31510000 	cmpcc	r1, r0
500093fc:	31a01201 	lslcc	r1, r1, #4
50009400:	31a03203 	lslcc	r3, r3, #4
50009404:	3afffffa 	bcc	500093f4 <__aeabi_uidiv+0x2c>
50009408:	e3510102 	cmp	r1, #-2147483648	; 0x80000000
5000940c:	31510000 	cmpcc	r1, r0
50009410:	31a01081 	lslcc	r1, r1, #1
50009414:	31a03083 	lslcc	r3, r3, #1
50009418:	3afffffa 	bcc	50009408 <__aeabi_uidiv+0x40>
5000941c:	e3a02000 	mov	r2, #0
50009420:	e1500001 	cmp	r0, r1
50009424:	20400001 	subcs	r0, r0, r1
50009428:	21822003 	orrcs	r2, r2, r3
5000942c:	e15000a1 	cmp	r0, r1, lsr #1
50009430:	204000a1 	subcs	r0, r0, r1, lsr #1
50009434:	218220a3 	orrcs	r2, r2, r3, lsr #1
50009438:	e1500121 	cmp	r0, r1, lsr #2
5000943c:	20400121 	subcs	r0, r0, r1, lsr #2
50009440:	21822123 	orrcs	r2, r2, r3, lsr #2
50009444:	e15001a1 	cmp	r0, r1, lsr #3
50009448:	204001a1 	subcs	r0, r0, r1, lsr #3
5000944c:	218221a3 	orrcs	r2, r2, r3, lsr #3
50009450:	e3500000 	cmp	r0, #0
50009454:	11b03223 	lsrsne	r3, r3, #4
50009458:	11a01221 	lsrne	r1, r1, #4
5000945c:	1affffef 	bne	50009420 <__aeabi_uidiv+0x58>
/home/gopu/wdir/toolchain/gopu/build/gcc/arm-none-eabi/libgcc/../../../../gcc-4.5-2010.09/libgcc/../gcc/config/arm/lib1funcs.asm:1010
50009460:	e1a00002 	mov	r0, r2
/home/gopu/wdir/toolchain/gopu/build/gcc/arm-none-eabi/libgcc/../../../../gcc-4.5-2010.09/libgcc/../gcc/config/arm/lib1funcs.asm:1011
50009464:	e12fff1e 	bx	lr
/home/gopu/wdir/toolchain/gopu/build/gcc/arm-none-eabi/libgcc/../../../../gcc-4.5-2010.09/libgcc/../gcc/config/arm/lib1funcs.asm:1014
50009468:	03a00001 	moveq	r0, #1
/home/gopu/wdir/toolchain/gopu/build/gcc/arm-none-eabi/libgcc/../../../../gcc-4.5-2010.09/libgcc/../gcc/config/arm/lib1funcs.asm:1015
5000946c:	13a00000 	movne	r0, #0
/home/gopu/wdir/toolchain/gopu/build/gcc/arm-none-eabi/libgcc/../../../../gcc-4.5-2010.09/libgcc/../gcc/config/arm/lib1funcs.asm:1016
50009470:	e12fff1e 	bx	lr
/home/gopu/wdir/toolchain/gopu/build/gcc/arm-none-eabi/libgcc/../../../../gcc-4.5-2010.09/libgcc/../gcc/config/arm/lib1funcs.asm:698
50009474:	e3510801 	cmp	r1, #65536	; 0x10000
50009478:	21a01821 	lsrcs	r1, r1, #16
5000947c:	23a02010 	movcs	r2, #16
50009480:	33a02000 	movcc	r2, #0
50009484:	e3510c01 	cmp	r1, #256	; 0x100
50009488:	21a01421 	lsrcs	r1, r1, #8
5000948c:	22822008 	addcs	r2, r2, #8
50009490:	e3510010 	cmp	r1, #16
50009494:	21a01221 	lsrcs	r1, r1, #4
50009498:	22822004 	addcs	r2, r2, #4
5000949c:	e3510004 	cmp	r1, #4
500094a0:	82822003 	addhi	r2, r2, #3
500094a4:	908220a1 	addls	r2, r2, r1, lsr #1
/home/gopu/wdir/toolchain/gopu/build/gcc/arm-none-eabi/libgcc/../../../../gcc-4.5-2010.09/libgcc/../gcc/config/arm/lib1funcs.asm:1020
500094a8:	e1a00230 	lsr	r0, r0, r2
/home/gopu/wdir/toolchain/gopu/build/gcc/arm-none-eabi/libgcc/../../../../gcc-4.5-2010.09/libgcc/../gcc/config/arm/lib1funcs.asm:1021
500094ac:	e12fff1e 	bx	lr
/home/gopu/wdir/toolchain/gopu/build/gcc/arm-none-eabi/libgcc/../../../../gcc-4.5-2010.09/libgcc/../gcc/config/arm/lib1funcs.asm:1025
500094b0:	e3500000 	cmp	r0, #0
500094b4:	13e00000 	mvnne	r0, #0
500094b8:	eafffd89 	b	50008ae4 <__aeabi_idiv0>

500094bc <__aeabi_uidivmod>:
__aeabi_uidivmod():
/home/gopu/wdir/toolchain/gopu/build/gcc/arm-none-eabi/libgcc/../../../../gcc-4.5-2010.09/libgcc/../gcc/config/arm/lib1funcs.asm:1039
500094bc:	e3510000 	cmp	r1, #0
/home/gopu/wdir/toolchain/gopu/build/gcc/arm-none-eabi/libgcc/../../../../gcc-4.5-2010.09/libgcc/../gcc/config/arm/lib1funcs.asm:1040
500094c0:	0afffffa 	beq	500094b0 <__aeabi_uidiv+0xe8>
/home/gopu/wdir/toolchain/gopu/build/gcc/arm-none-eabi/libgcc/../../../../gcc-4.5-2010.09/libgcc/../gcc/config/arm/lib1funcs.asm:1041
500094c4:	e92d4003 	push	{r0, r1, lr}
/home/gopu/wdir/toolchain/gopu/build/gcc/arm-none-eabi/libgcc/../../../../gcc-4.5-2010.09/libgcc/../gcc/config/arm/lib1funcs.asm:1042
500094c8:	ebffffbe 	bl	500093c8 <__aeabi_uidiv>
/home/gopu/wdir/toolchain/gopu/build/gcc/arm-none-eabi/libgcc/../../../../gcc-4.5-2010.09/libgcc/../gcc/config/arm/lib1funcs.asm:1043
500094cc:	e8bd4006 	pop	{r1, r2, lr}
/home/gopu/wdir/toolchain/gopu/build/gcc/arm-none-eabi/libgcc/../../../../gcc-4.5-2010.09/libgcc/../gcc/config/arm/lib1funcs.asm:1044
500094d0:	e0030092 	mul	r3, r2, r0
/home/gopu/wdir/toolchain/gopu/build/gcc/arm-none-eabi/libgcc/../../../../gcc-4.5-2010.09/libgcc/../gcc/config/arm/lib1funcs.asm:1045
500094d4:	e0411003 	sub	r1, r1, r3
/home/gopu/wdir/toolchain/gopu/build/gcc/arm-none-eabi/libgcc/../../../../gcc-4.5-2010.09/libgcc/../gcc/config/arm/lib1funcs.asm:1046
500094d8:	e12fff1e 	bx	lr

500094dc <__clzsi2>:
__clzsi2():
/home/gopu/wdir/toolchain/gopu/build/gcc/arm-none-eabi/libgcc/../../../../gcc-4.5-2010.09/libgcc/../gcc/config/arm/lib1funcs.asm:1493
500094dc:	e3a0101c 	mov	r1, #28
/home/gopu/wdir/toolchain/gopu/build/gcc/arm-none-eabi/libgcc/../../../../gcc-4.5-2010.09/libgcc/../gcc/config/arm/lib1funcs.asm:1494
500094e0:	e3500801 	cmp	r0, #65536	; 0x10000
/home/gopu/wdir/toolchain/gopu/build/gcc/arm-none-eabi/libgcc/../../../../gcc-4.5-2010.09/libgcc/../gcc/config/arm/lib1funcs.asm:1496
500094e4:	21a00820 	lsrcs	r0, r0, #16
/home/gopu/wdir/toolchain/gopu/build/gcc/arm-none-eabi/libgcc/../../../../gcc-4.5-2010.09/libgcc/../gcc/config/arm/lib1funcs.asm:1497
500094e8:	22411010 	subcs	r1, r1, #16
/home/gopu/wdir/toolchain/gopu/build/gcc/arm-none-eabi/libgcc/../../../../gcc-4.5-2010.09/libgcc/../gcc/config/arm/lib1funcs.asm:1498
500094ec:	e3500c01 	cmp	r0, #256	; 0x100
/home/gopu/wdir/toolchain/gopu/build/gcc/arm-none-eabi/libgcc/../../../../gcc-4.5-2010.09/libgcc/../gcc/config/arm/lib1funcs.asm:1500
500094f0:	21a00420 	lsrcs	r0, r0, #8
/home/gopu/wdir/toolchain/gopu/build/gcc/arm-none-eabi/libgcc/../../../../gcc-4.5-2010.09/libgcc/../gcc/config/arm/lib1funcs.asm:1501
500094f4:	22411008 	subcs	r1, r1, #8
/home/gopu/wdir/toolchain/gopu/build/gcc/arm-none-eabi/libgcc/../../../../gcc-4.5-2010.09/libgcc/../gcc/config/arm/lib1funcs.asm:1502
500094f8:	e3500010 	cmp	r0, #16
/home/gopu/wdir/toolchain/gopu/build/gcc/arm-none-eabi/libgcc/../../../../gcc-4.5-2010.09/libgcc/../gcc/config/arm/lib1funcs.asm:1504
500094fc:	21a00220 	lsrcs	r0, r0, #4
/home/gopu/wdir/toolchain/gopu/build/gcc/arm-none-eabi/libgcc/../../../../gcc-4.5-2010.09/libgcc/../gcc/config/arm/lib1funcs.asm:1505
50009500:	22411004 	subcs	r1, r1, #4
/home/gopu/wdir/toolchain/gopu/build/gcc/arm-none-eabi/libgcc/../../../../gcc-4.5-2010.09/libgcc/../gcc/config/arm/lib1funcs.asm:1506
50009504:	e28f2008 	add	r2, pc, #8
/home/gopu/wdir/toolchain/gopu/build/gcc/arm-none-eabi/libgcc/../../../../gcc-4.5-2010.09/libgcc/../gcc/config/arm/lib1funcs.asm:1507
50009508:	e7d20000 	ldrb	r0, [r2, r0]
/home/gopu/wdir/toolchain/gopu/build/gcc/arm-none-eabi/libgcc/../../../../gcc-4.5-2010.09/libgcc/../gcc/config/arm/lib1funcs.asm:1508
5000950c:	e0800001 	add	r0, r0, r1
/home/gopu/wdir/toolchain/gopu/build/gcc/arm-none-eabi/libgcc/../../../../gcc-4.5-2010.09/libgcc/../gcc/config/arm/lib1funcs.asm:1509
50009510:	e12fff1e 	bx	lr
50009514:	02020304 	.word	0x02020304
50009518:	01010101 	.word	0x01010101
	...

50009524 <tsee_rtks_call>:
tsee_rtks_call():
/home/liwenhaosuper/data/trustkernel/tsee/tsee/tsee/tee/tsee_rtks_call.S:4
50009524:	eaffe843 	b	50003638 <tsee_main>

50009528 <tsee_rtks_ns_call>:
tsee_rtks_ns_call():
/home/liwenhaosuper/data/trustkernel/tsee/tsee/tsee/tee/tsee_rtks_call.S:8
50009528:	eaffe720 	b	500031b0 <tsee_ns_main>
